 pathos_x64

 Timestamp is 6638ecfb (Mon May  6 17:45:15 2024)

 Preferred load address is 0000000140000000

 Start         Length     Name                   Class
 0001:00000000 000086f0H .text                   CODE
 0001:000086f0 00001720H .text$di                CODE
 0001:00009e10 002097a0H .text$mn                CODE
 0001:002135b0 00000040H .text$mn$00             CODE
 0001:002135f0 000037d0H .text$x                 CODE
 0001:00216dc0 00001310H .text$yd                CODE
 0002:00000000 00000870H .idata$5                DATA
 0002:00000870 00000038H .00cfg                  DATA
 0002:000008a8 00000008H .CRT$XCA                DATA
 0002:000008b0 00000008H .CRT$XCAA               DATA
 0002:000008b8 00000038H .CRT$XCC                DATA
 0002:000008f0 00000010H .CRT$XCL                DATA
 0002:00000900 000001a0H .CRT$XCU                DATA
 0002:00000aa0 00000008H .CRT$XCZ                DATA
 0002:00000aa8 00000008H .CRT$XIA                DATA
 0002:00000ab0 00000008H .CRT$XIAA               DATA
 0002:00000ab8 00000008H .CRT$XIAC               DATA
 0002:00000ac0 00000008H .CRT$XIZ                DATA
 0002:00000ac8 00000008H .CRT$XLA                DATA
 0002:00000ad0 00000008H .CRT$XLZ                DATA
 0002:00000ad8 00000008H .CRT$XPA                DATA
 0002:00000ae0 00000008H .CRT$XPZ                DATA
 0002:00000ae8 00000008H .CRT$XTA                DATA
 0002:00000af0 00000010H .CRT$XTZ                DATA
 0002:00000af8 00000000H .gehcont$y              DATA
 0002:00000af8 00000000H .gfids$y                DATA
 0002:00000b00 0004b400H .rdata                  DATA
 0002:0004bf00 00000000H .rdata$CastGuardVftablesA DATA
 0002:0004bf00 00000000H .rdata$CastGuardVftablesC DATA
 0002:0004bf00 00000028H .rdata$T                DATA
 0002:0004bf28 000033a4H .rdata$r                DATA
 0002:0004f2cc 00000344H .rdata$voltmd           DATA
 0002:0004f610 000000e0H .rdata$zzz              DATA
 0002:0004f6f0 00000508H .rdata$zzzdbg           DATA
 0002:0004fbf8 00000008H .rtc$IAA                DATA
 0002:0004fc00 00000008H .rtc$IZZ                DATA
 0002:0004fc08 00000008H .rtc$TAA                DATA
 0002:0004fc10 00000008H .rtc$TZZ                DATA
 0002:0004fc18 00000008H .tls                    DATA
 0002:0004fc20 00000028H .tls$                   DATA
 0002:0004fc48 00000008H .tls$ZZZ                DATA
 0002:0004fc50 0001eb30H .xdata                  DATA
 0002:0006e780 0000036cH .xdata$x                DATA
 0002:0006eaec 00000040H .didat$2                DATA
 0002:0006eb2c 00000024H .didat$3                DATA
 0002:0006eb50 000002b8H .didat$4                DATA
 0002:0006ee08 000005c0H .didat$6                DATA
 0002:0006f3c8 00000408H .didat$7                DATA
 0002:0006f7d0 00000084H .edata                  DATA
 0002:0006f854 00000168H .idata$2                DATA
 0002:0006f9bc 00000014H .idata$3                DATA
 0002:0006f9d0 00000870H .idata$4                DATA
 0002:00070240 00001038H .idata$6                DATA
 0003:00000000 000324a8H .data                   DATA
 0003:000324a8 000001c8H .data$r                 DATA
 0003:00032670 00001030H .data$rs                DATA
 0003:000336a0 000002c0H .didat$5                DATA
 0003:00033960 15968c20H .bss                    DATA
 0004:00000000 00012cc0H .pdata                  DATA
 0005:00000000 00000018H .detourd                DATA
 0006:00000000 000021f0H .detourc                DATA
 0007:00000000 000001e0H .rsrc$01                DATA
 0007:000001e0 0002a6d8H .rsrc$02                DATA

  Address         Publics by Value              Rva+Base               Lib:Object

 0000:00000000       __AbsoluteZero             0000000000000000     <absolute>
 0000:00000000       ___safe_se_handler_count   0000000000000000     <absolute>
 0000:00000000       ___safe_se_handler_table   0000000000000000     <absolute>
 0000:00000000       __arm64x_extra_rfe_table   0000000000000000     <absolute>
 0000:00000000       __arm64x_extra_rfe_table_size 0000000000000000     <absolute>
 0000:00000000       __arm64x_native_entrypoint 0000000000000000     <absolute>
 0000:00000000       __arm64x_redirection_metadata 0000000000000000     <absolute>
 0000:00000000       __arm64x_redirection_metadata_count 0000000000000000     <absolute>
 0000:00000000       __dynamic_value_reloc_table 0000000000000000     <absolute>
 0000:00000000       __enclave_config           0000000000000000     <absolute>
 0000:00000000       __guard_check_icall_a64n_fptr 0000000000000000     <absolute>
 0000:00000000       __guard_eh_cont_count      0000000000000000     <absolute>
 0000:00000000       __guard_eh_cont_table      0000000000000000     <absolute>
 0000:00000000       __guard_fids_count         0000000000000000     <absolute>
 0000:00000000       __guard_fids_table         0000000000000000     <absolute>
 0000:00000000       __guard_iat_count          0000000000000000     <absolute>
 0000:00000000       __guard_iat_table          0000000000000000     <absolute>
 0000:00000000       __guard_longjmp_count      0000000000000000     <absolute>
 0000:00000000       __guard_longjmp_table      0000000000000000     <absolute>
 0000:00000000       __hybrid_auxiliary_delayload_iat 0000000000000000     <absolute>
 0000:00000000       __hybrid_auxiliary_delayload_iat_copy 0000000000000000     <absolute>
 0000:00000000       __hybrid_auxiliary_iat     0000000000000000     <absolute>
 0000:00000000       __hybrid_auxiliary_iat_copy 0000000000000000     <absolute>
 0000:00000000       __hybrid_code_map          0000000000000000     <absolute>
 0000:00000000       __hybrid_code_map_count    0000000000000000     <absolute>
 0000:00000000       __hybrid_image_info_bitfield 0000000000000000     <absolute>
 0000:00000000       __x64_code_ranges_to_entry_points 0000000000000000     <absolute>
 0000:00000000       __x64_code_ranges_to_entry_points_count 0000000000000000     <absolute>
 0000:00000100       __guard_flags              0000000000000100     <absolute>
 0000:00000000       __ImageBase                0000000140000000     <linker-defined>
 0001:00000000       enet_initialize            0000000140001000 f   enet64:win32.o
 0001:00000070       enet_deinitialize          0000000140001070 f   enet64:win32.o
 0001:00000090       enet_host_random_seed      0000000140001090 f   enet64:win32.o
 0001:000000a0       enet_time_get              00000001400010a0 f   enet64:win32.o
 0001:000000c0       enet_time_set              00000001400010c0 f   enet64:win32.o
 0001:000000e0       enet_address_set_host_ip   00000001400010e0 f   enet64:win32.o
 0001:00000290       enet_address_set_host      0000000140001290 f   enet64:win32.o
 0001:00000480       enet_address_get_host_ip   0000000140001480 f   enet64:win32.o
 0001:000004d0       enet_address_get_host      00000001400014d0 f   enet64:win32.o
 0001:00000560       enet_socket_bind           0000000140001560 f   enet64:win32.o
 0001:000005e0       enet_socket_get_address    00000001400015e0 f   enet64:win32.o
 0001:00000630       enet_socket_listen         0000000140001630 f   enet64:win32.o
 0001:00000660       enet_socket_create         0000000140001660 f   enet64:win32.o
 0001:00000680       enet_socket_set_option     0000000140001680 f   enet64:win32.o
 0001:000007e0       enet_socket_get_option     00000001400017e0 f   enet64:win32.o
 0001:00000830       enet_socket_connect        0000000140001830 f   enet64:win32.o
 0001:000008c0       enet_socket_accept         00000001400018c0 f   enet64:win32.o
 0001:00000930       enet_socket_shutdown       0000000140001930 f   enet64:win32.o
 0001:00000950       enet_socket_destroy        0000000140001950 f   enet64:win32.o
 0001:00000970       enet_socket_send           0000000140001970 f   enet64:win32.o
 0001:00000a50       enet_socket_receive        0000000140001a50 f   enet64:win32.o
 0001:00000b20       enet_socketset_select      0000000140001b20 f   enet64:win32.o
 0001:00000b70       enet_socket_wait           0000000140001b70 f   enet64:win32.o
 0001:00000c70       enet_host_create           0000000140001c70 f   enet64:host.o
 0001:00001000       enet_host_destroy          0000000140002000 f   enet64:host.o
 0001:000010b0       enet_host_connect          00000001400020b0 f   enet64:host.o
 0001:000012f0       enet_host_broadcast        00000001400022f0 f   enet64:host.o
 0001:00001370       enet_host_compress         0000000140002370 f   enet64:host.o
 0001:000013f0       enet_host_channel_limit    00000001400023f0 f   enet64:host.o
 0001:00001410       enet_host_bandwidth_limit  0000000140002410 f   enet64:host.o
 0001:00001420       enet_host_bandwidth_throttle 0000000140002420 f   enet64:host.o
 0001:00001790       enet_peer_throttle_configure 0000000140002790 f   enet64:peer.o
 0001:00001980       enet_peer_throttle         0000000140002980 f   enet64:peer.o
 0001:00001a10       enet_peer_receive          0000000140002a10 f   enet64:peer.o
 0001:00001a90       enet_peer_reset_queues     0000000140002a90 f   enet64:peer.o
 0001:00001df0       enet_peer_on_connect       0000000140002df0 f   enet64:peer.o
 0001:00001e20       enet_peer_on_disconnect    0000000140002e20 f   enet64:peer.o
 0001:00001e50       enet_peer_reset            0000000140002e50 f   enet64:peer.o
 0001:00001f70       enet_peer_ping             0000000140002f70 f   enet64:peer.o
 0001:00002110       enet_peer_ping_interval    0000000140003110 f   enet64:peer.o
 0001:00002130       enet_peer_timeout          0000000140003130 f   enet64:peer.o
 0001:00002170       enet_peer_disconnect       0000000140003170 f   enet64:peer.o
 0001:000024e0       enet_peer_queue_acknowledgement 00000001400034e0 f   enet64:peer.o
 0001:000025b0       enet_peer_setup_outgoing_command 00000001400035b0 f   enet64:peer.o
 0001:00002720       enet_peer_disconnect_later 0000000140003720 f   enet64:peer.o
 0001:00002860       enet_peer_send             0000000140003860 f   enet64:peer.o
 0001:00002b90       enet_peer_disconnect_now   0000000140003b90 f   enet64:peer.o
 0001:00002d60       enet_peer_queue_outgoing_command 0000000140003d60 f   enet64:peer.o
 0001:00002f60       enet_peer_dispatch_incoming_unreliable_commands 0000000140003f60 f   enet64:peer.o
 0001:000031a0       enet_peer_dispatch_incoming_reliable_commands 00000001400041a0 f   enet64:peer.o
 0001:00003280       enet_peer_queue_incoming_command 0000000140004280 f   enet64:peer.o
 0001:000046a0       enet_protocol_command_size 00000001400056a0 f   enet64:protocol.o
 0001:000046b0       enet_host_flush            00000001400056b0 f   enet64:protocol.o
 0001:00004ff0       enet_host_check_events     0000000140005ff0 f   enet64:protocol.o
 0001:00005160       enet_host_service          0000000140006160 f   enet64:protocol.o
 0001:00006f00       enet_packet_create         0000000140007f00 f   enet64:packet.o
 0001:00006fb0       enet_packet_destroy        0000000140007fb0 f   enet64:packet.o
 0001:00007000       enet_packet_resize         0000000140008000 f   enet64:packet.o
 0001:00007070       enet_crc32                 0000000140008070 f   enet64:packet.o
 0001:00007260       enet_initialize_with_callbacks 0000000140008260 f   enet64:callbacks.o
 0001:000072d0       enet_linked_version        00000001400082d0 f   enet64:callbacks.o
 0001:000072e0       enet_malloc                00000001400082e0 f   enet64:callbacks.o
 0001:00007310       enet_free                  0000000140008310 f   enet64:callbacks.o
 0001:00007320       enet_list_clear            0000000140008320 f   enet64:list.o
 0001:00007330       enet_list_insert           0000000140008330 f   enet64:list.o
 0001:00007350       enet_list_remove           0000000140008350 f   enet64:list.o
 0001:00007370       enet_list_move             0000000140008370 f   enet64:list.o
 0001:000073a0       enet_list_size             00000001400083a0 f   enet64:list.o
 0001:000073c0       DetourEnumerateExports     00000001400083c0 f   detours:modules.obj
 0001:000076a0       ?CopyBytes@CDetourDis@@IEAAPEAEPEBUCOPYENTRY@1@PEAE1@Z 00000001400086a0 f   detours:disasm.obj
 0001:000079a0       ?CopyBytesPrefix@CDetourDis@@IEAAPEAEPEBUCOPYENTRY@1@PEAE1@Z 00000001400089a0 f   detours:disasm.obj
 0001:00007a20       ?CopyBytesSegment@CDetourDis@@IEAAPEAEPEBUCOPYENTRY@1@PEAE1@Z 0000000140008a20 f   detours:disasm.obj
 0001:00007a70       ?CopyBytesRax@CDetourDis@@IEAAPEAEPEBUCOPYENTRY@1@PEAE1@Z 0000000140008a70 f   detours:disasm.obj
 0001:00007ac0       ?CopyBytesJump@CDetourDis@@IEAAPEAEPEBUCOPYENTRY@1@PEAE1@Z 0000000140008ac0 f   detours:disasm.obj
 0001:00007c10       ?AdjustTarget@CDetourDis@@IEAAPEAEPEAE0III@Z 0000000140008c10 f   detours:disasm.obj
 0001:00007de0       ?Invalid@CDetourDis@@IEAAPEAEPEBUCOPYENTRY@1@PEAE1@Z 0000000140008de0 f   detours:disasm.obj
 0001:00007e00       ?Copy0F@CDetourDis@@IEAAPEAEPEBUCOPYENTRY@1@PEAE1@Z 0000000140008e00 f   detours:disasm.obj
 0001:00007e80       ?Copy0F78@CDetourDis@@IEAAPEAEPEBUCOPYENTRY@1@PEAE1@Z 0000000140008e80 f   detours:disasm.obj
 0001:00007f00       ?Copy66@CDetourDis@@IEAAPEAEPEBUCOPYENTRY@1@PEAE1@Z 0000000140008f00 f   detours:disasm.obj
 0001:00007f50       ?Copy67@CDetourDis@@IEAAPEAEPEBUCOPYENTRY@1@PEAE1@Z 0000000140008f50 f   detours:disasm.obj
 0001:00007fa0       ?CopyF2@CDetourDis@@IEAAPEAEPEBUCOPYENTRY@1@PEAE1@Z 0000000140008fa0 f   detours:disasm.obj
 0001:00007ff0       ?CopyF3@CDetourDis@@IEAAPEAEPEBUCOPYENTRY@1@PEAE1@Z 0000000140008ff0 f   detours:disasm.obj
 0001:00008040       ?CopyF6@CDetourDis@@IEAAPEAEPEBUCOPYENTRY@1@PEAE1@Z 0000000140009040 f   detours:disasm.obj
 0001:000080b0       ?CopyF7@CDetourDis@@IEAAPEAEPEBUCOPYENTRY@1@PEAE1@Z 00000001400090b0 f   detours:disasm.obj
 0001:00008120       ?CopyFF@CDetourDis@@IEAAPEAEPEBUCOPYENTRY@1@PEAE1@Z 0000000140009120 f   detours:disasm.obj
 0001:00008250       ?CopyVexEvexCommon@CDetourDis@@IEAAPEAEEPEAE0E@Z 0000000140009250 f   detours:disasm.obj
 0001:00008370       ?CopyVexCommon@CDetourDis@@IEAAPEAEEPEAE0@Z 0000000140009370 f   detours:disasm.obj
 0001:000083d0       ?CopyVex3@CDetourDis@@IEAAPEAEPEBUCOPYENTRY@1@PEAE1@Z 00000001400093d0 f   detours:disasm.obj
 0001:00008490       ?CopyVex2@CDetourDis@@IEAAPEAEPEBUCOPYENTRY@1@PEAE1@Z 0000000140009490 f   detours:disasm.obj
 0001:00008500       ?CopyEvex@CDetourDis@@IEAAPEAEPEBUCOPYENTRY@1@PEAE1@Z 0000000140009500 f   detours:disasm.obj
 0001:00008630       ?CopyXop@CDetourDis@@IEAAPEAEPEBUCOPYENTRY@1@PEAE1@Z 0000000140009630 f   detours:disasm.obj
 0001:00009e10       __local_stdio_printf_options 000000014000ae10 f i cbitset.obj
 0001:00009e20       sprintf                    000000014000ae20 f i cbitset.obj
 0001:00009e80       ?Append@CString@@QEAAXPEBD@Z 000000014000ae80 f i cbitset.obj
 0001:00009f30       ?c_str@CString@@QEBAPEBDXZ 000000014000af30 f i cbitset.obj
 0001:00009f40       ?qstrlen@@YAIPEBD@Z        000000014000af40 f i cbitset.obj
 0001:00009f60       ?qstrcpy@@YAPEADPEADPEBD@Z 000000014000af60 f i cbitset.obj
 0001:00009ff0       ?qstrcmp@@YAHPEBD0@Z       000000014000aff0 f i cbitset.obj
 0001:0000a080       ?resize@CBitSet@@QEAAXI@Z  000000014000b080 f i cbitset.obj
 0001:0000a100       ??_ECString@@QEAAPEAXI@Z   000000014000b100 f i cbitset.obj
 0001:0000a140       ?append@CBuffer@@QEAA_NPEBXI@Z 000000014000b140 f i cbuffer.obj
 0001:0000a3a0       ??0CBuffer@@QEAA@I@Z       000000014000b3a0 f   cbuffer.obj
 0001:0000a410       ??1CBuffer@@QEAA@XZ        000000014000b410 f   cbuffer.obj
 0001:0000a440       ??1?$CArray@H@@QEAA@XZ     000000014000b440 f i texturemanager.obj
 0001:0000a440       ??1?$CArray@I@@QEAA@XZ     000000014000b440 f i cl_main.obj
 0001:0000a440       ??1?$CArray@PEAPEAX@@QEAA@XZ 000000014000b440 f i cbuffer.obj
 0001:0000a440       ??1?$CArray@PEAUbsp_decal_t@@@@QEAA@XZ 000000014000b440 f i r_bsp.obj
 0001:0000a440       ??1?$CArray@PEAUdetail_association_t@@@@QEAA@XZ 000000014000b440 f i r_wadtextures.obj
 0001:0000a440       ??1?$CArray@PEAUdetailtexture_t@@@@QEAA@XZ 000000014000b440 f i r_wadtextures.obj
 0001:0000a440       ??1?$CArray@PEAUentity_extrainfo_t@@@@QEAA@XZ 000000014000b440 f i cl_main.obj
 0001:0000a440       ??1?$CArray@PEAUflexscript_t@@@@QEAA@XZ 000000014000b440 f i flexmanager.obj
 0001:0000a440       ??1?$CArray@PEAUmlight_t@@@@QEAA@XZ 000000014000b440 f i r_vbm.obj
 0001:0000a440       ??1?$CArray@PEAUparticle_t@CLegacyParticles@@@@QEAA@XZ 000000014000b440 f i r_legacyparticles.obj
 0001:0000a440       ??1?$CArray@PEAUsentence_t@CSentencesFile@@@@QEAA@XZ 000000014000b440 f i sentencesfile.obj
 0001:0000a440       ??1?$CArray@PEAUsentencegroup_t@CSentencesFile@@@@QEAA@XZ 000000014000b440 f i sentencesfile.obj
 0001:0000a440       ??1?$CArray@PEAUvertexgroup_t@CNormalSmoothing@@@@QEAA@XZ 000000014000b440 f i r_nsmoothing.obj
 0001:0000a440       ??1?$CArray@PEAUvertexnode_t@CNormalSmoothing@@@@QEAA@XZ 000000014000b440 f i r_nsmoothing.obj
 0001:0000a440       ??1?$CArray@PEAVCMenuButton@@@@QEAA@XZ 000000014000b440 f i r_menu.obj
 0001:0000a440       ??1?$CArray@PEAVCUIObject@@@@QEAA@XZ 000000014000b440 f i uielements.obj
 0001:0000a440       ??1?$CArray@Ubsp_surface_t@@@@QEAA@XZ 000000014000b440 f i r_bsp.obj
 0001:0000a440       ??1?$CArray@Ubsp_vertex_t@@@@QEAA@XZ 000000014000b440 f i r_bsp.obj
 0001:0000a440       ??1?$CArray@Uglsl_shader_t@CGLSLShader@@@@QEAA@XZ 000000014000b440 f i r_glsl.obj
 0001:0000a440       ??1?$CArray@Uinvalid_state_t@CGLSLShader@@@@QEAA@XZ 000000014000b440 f i r_glsl.obj
 0001:0000a440       ??1?$CArray@Uiterator_t@?$CLinkedList@PEAUcl_dlight_t@@@@@@QEAA@XZ 000000014000b440 f i r_dlights.obj
 0001:0000a440       ??1?$CArray@Uiterator_t@?$CLinkedList@Uline_chunk_t@@@@@@QEAA@XZ 000000014000b440 f i r_text.obj
 0001:0000a440       ??1?$CArray@Uiterator_t@?$CLinkedList@Usv_level_connection_t@@@@@@QEAA@XZ 000000014000b440 f i sv_main.obj
 0001:0000a440       ??1?$CArray@Unet_msg_t@@@@QEAA@XZ 000000014000b440 f i networking.obj
 0001:0000a440       ??1?$CArray@Usnd_playing_t@CSoundEngine@@@@QEAA@XZ 000000014000b440 f i cl_snd.obj
 0001:0000a440       ??1?$CArray@Uusercmd_t@@@@QEAA@XZ 000000014000b440 f i cl_main.obj
 0001:0000a440       ??1?$CArray@_J@@QEAA@XZ    000000014000b440 f i cbuffer.obj
 0001:0000a440       ??1CString@@QEAA@XZ        000000014000b440 f i cstring.obj
 0001:0000a440       ??1alias_mapping_t@CTextureManager@@QEAA@XZ 000000014000b440 f i texturemanager.obj
 0001:0000a440       ??1cached_decal_t@@QEAA@XZ 000000014000b440 f i r_decals.obj
 0001:0000a440       ??1cl_resource_t@@QEAA@XZ  000000014000b440 f i cl_cmd.obj
 0001:0000a440       ??1cl_usermsgfunction_t@@QEAA@XZ 000000014000b440 f i cl_main.obj
 0001:0000a440       ??1debug_print_t@CConsole@@QEAA@XZ 000000014000b440 f i console.obj
 0001:0000a440       ??1decalcache_t@@QEAA@XZ   000000014000b440 f i cl_main.obj
 0001:0000a440       ??1decalgroupentry_t@@QEAA@XZ 000000014000b440 f i decallist.obj
 0001:0000a440       ??1disabled_state_t@CGLSLShader@@QEAA@XZ 000000014000b440 f i r_glsl.obj
 0001:0000a440       ??1dll_export_t@@QEAA@XZ   000000014000b440 f i sv_main.obj
 0001:0000a440       ??1glowquery_t@@QEAA@XZ    000000014000b440 f i r_glqueries.obj
 0001:0000a440       ??1hdr_column_t@CUIListHeader@@QEAA@XZ 000000014000b440 f i uielements.obj
 0001:0000a440       ??1mtexture_t@@QEAA@XZ     000000014000b440 f i bspv30.obj
 0001:0000a440       ??1skytextureset_t@CSkyRenderer@@QEAA@XZ 000000014000b440 f i r_sky.obj
 0001:0000a440       ??1snd_missing_t@CSoundEngine@@QEAA@XZ 000000014000b440 f i cl_snd.obj
 0001:0000a440       ??1sv_model_t@@QEAA@XZ     000000014000b440 f i sv_main.obj
 0001:0000a440       ??1sv_particlecache_t@@QEAA@XZ 000000014000b440 f i sv_main.obj
 0001:0000a440       ??1sv_sound_t@@QEAA@XZ     000000014000b440 f i sv_main.obj
 0001:0000a440       ??1sv_usermsgfunction_t@@QEAA@XZ 000000014000b440 f i sv_main.obj
 0001:0000a440       ??1ui_schemeobject_t@@QEAA@XZ 000000014000b440 f i uimanager.obj
 0001:0000a440       ??1usermsgdata_t@@QEAA@XZ  000000014000b440 f i cl_main.obj
 0001:0000a440       ??1vbmhull_t@@QEAA@XZ      000000014000b440 f i cl_main.obj
 0001:0000a450       ??4CString@@QEAAAEAV0@AEBV0@@Z 000000014000b450 f i common.obj
 0001:0000a550       ??6CString@@QEAAAEAV0@PEBD@Z 000000014000b550 f i common.obj
 0001:0000a570       ??AVector@@QEAAAEAMI@Z     000000014000b570 f i common.obj
 0001:0000a5d0       ??1entitydata_t@@QEAA@XZ   000000014000b5d0 f i common.obj
 0001:0000a650       ?ValueForKey@@YAPEBDAEBUentitydata_t@@PEBD@Z 000000014000b650 f i common.obj
 0001:0000a760       ?Parse@Common@@YAPEBDPEBDAEAVCString@@0_N2@Z 000000014000b760 f   common.obj
 0001:0000aab0       ?ReadLine@Common@@YAPEBDPEBDPEAD@Z 000000014000bab0 f   common.obj
 0001:0000ab70       ?ReadLine@Common@@YAPEBDPEBDAEAVCString@@@Z 000000014000bb70 f   common.obj
 0001:0000ace0       ?GetDate@Common@@YA?AVCString@@XZ 000000014000bce0 f i common.obj
 0001:0000adf0       ?ResizeArray@Common@@YAPEAXPEAX_K11@Z 000000014000bdf0 f   common.obj
 0001:0000ae80       ?Basename@Common@@YAXPEBDAEAVCString@@@Z 000000014000be80 f   common.obj
 0001:0000b020       ?Basename@Common@@YAXPEBDPEAD@Z 000000014000c020 f   common.obj
 0001:0000b100       ?IsNumber@Common@@YA_NPEBD@Z 000000014000c100 f   common.obj
 0001:0000b150       ?StringToVector@Common@@YAXPEBDAEAVVector@@@Z 000000014000c150 f   common.obj
 0001:0000b380       ?FixVector@Common@@YAXPEAM@Z 000000014000c380 f   common.obj
 0001:0000b610       ?RandomFloat@Common@@YAMMM@Z 000000014000c610 f i common.obj
 0001:0000b680       ?CheckVisibility@Common@@YA_NAEBV?$CArray@I@@PEBE@Z 000000014000c680 f i common.obj
 0001:0000b750       ?GetFileLineCount@Common@@YAIPEBD@Z 000000014000c750 f   common.obj
 0001:0000b7b0       ?GetWADList@Common@@YA_NPEBDAEAV?$CArray@VCString@@@@@Z 000000014000c7b0 f   common.obj
 0001:0000c820       ?resize@?$CArray@VCString@@@@QEAAXI@Z 000000014000d820 f i common.obj
 0001:0000ca50       ??0CString@@QEAA@XZ        000000014000da50 f   cstring.obj
 0001:0000ca80       ??0CString@@QEAA@PEBD@Z    000000014000da80 f   cstring.obj
 0001:0000cb20       ??0CString@@QEAA@AEBV0@@Z  000000014000db20 f   cstring.obj
 0001:0000cba0       ?DDS_Load@@YA_NPEBDPEBEAEAPEAEAEAI333AEAW4texture_compression_t@@P6AX0ZZ@Z 000000014000dba0 f   dds.obj
 0001:0000cdd0       ??6CString@@QEAAAEAV0@AEBV0@@Z 000000014000ddd0 f i logfile.obj
 0001:0000ce20       ?clear@CString@@QEAAXXZ    000000014000de20 f i logfile.obj
 0001:0000ce70       ?assign@CString@@QEAAXPEBDI@Z 000000014000de70 f i logfile.obj
 0001:0000cf10       ?insert@CString@@QEAAXIPEBD@Z 000000014000df10 f i logfile.obj
 0001:0000d000       ?Init@CLogFile@@QEAA_NXZ   000000014000e000 f   logfile.obj
 0001:0000d5a0       ?Write@CLogFile@@QEAA_NPEBD@Z 000000014000e5a0 f   logfile.obj
 0001:0000dea0       ?WriteInternal@CLogFile@@AEAA_NPEBD@Z 000000014000eea0 f   logfile.obj
 0001:0000dfa0       ?Printf@CLogFile@@QEAA_NPEBDZZ 000000014000efa0 f   logfile.obj
 0001:0000e040       ??0CMatrix@@QEAA@XZ        000000014000f040 f   matrix.obj
 0001:0000e1a0       ??_ECMatrix@@UEAAPEAXI@Z   000000014000f1a0 f i * CIL library *:* CIL module *
 0001:0000e1a0       ??_GCMatrix@@UEAAPEAXI@Z   000000014000f1a0 f i matrix.obj
 0001:0000e1e0       ??0CMatrix@@QEAA@PEBM@Z    000000014000f1e0 f   matrix.obj
 0001:0000e3b0       ??1CMatrix@@UEAA@XZ        000000014000f3b0 f   matrix.obj
 0001:0000e420       ?PushMatrix@CMatrix@@QEAAXXZ 000000014000f420 f   matrix.obj
 0001:0000e4b0       ?PopMatrix@CMatrix@@QEAAXXZ 000000014000f4b0 f   matrix.obj
 0001:0000e510       ?GetMatrix@CMatrix@@QEAAPEBMXZ 000000014000f510 f   matrix.obj
 0001:0000e590       ?GetInverse@CMatrix@@QEAAPEBMXZ 000000014000f590 f   matrix.obj
 0001:0000ef90       ?MultMatrix@CMatrix@@QEAAXPEBM@Z 000000014000ff90 f   matrix.obj
 0001:0000f380       ?Rotate@CMatrix@@QEAAXMMMM@Z 0000000140010380 f   matrix.obj
 0001:0000f560       ?SetFrustum@CMatrix@@QEAAXMMMMMM@Z 0000000140010560 f   matrix.obj
 0001:0000f630       ?Ortho@CMatrix@@QEAAXMMMMMM@Z 0000000140010630 f   matrix.obj
 0001:0000f6f0       ?LookAt@CMatrix@@QEAAXMMMMMMMMM@Z 00000001400106f0 f   matrix.obj
 0001:0000fa10       ??0CMD5@@QEAA@PEBEI@Z      0000000140010a10 f   md5.obj
 0001:0000fb70       ?Transform@CMD5@@AEAAXPEBE@Z 0000000140010b70 f   md5.obj
 0001:00010440       ?Update@CMD5@@QEAAXPEBEI@Z 0000000140011440 f   md5.obj
 0001:00010510       ?HexDigest@CMD5@@QEBA?AVCString@@XZ 0000000140011510 f   md5.obj
 0001:00010630       ?AR_readOgg@@YA_KPEAX_K10@Z 0000000140011630 f   ogg_common.obj
 0001:00010680       ?AR_seekOgg@@YAHPEAX_JH@Z  0000000140011680 f   ogg_common.obj
 0001:000106f0       ?AR_closeOgg@@YAHPEAX@Z    00000001400116f0 f   ogg_common.obj
 0001:000106f0       ?getFullRange@CUIObject@@UEAAIXZ 00000001400116f0 f   uielements.obj
 0001:000106f0       ?showmanyc@?$basic_streambuf@DU?$char_traits@D@std@@@std@@MEAA_JXZ 00000001400116f0 f   shdrchk.obj
 0001:000106f0       ?sync@?$basic_streambuf@DU?$char_traits@D@std@@@std@@MEAAHXZ 00000001400116f0 f   shdrchk.obj
 0001:000106f0       __scrt_exe_initialize_mta  00000001400116f0 f   MSVCRT:utility_desktop.obj
 0001:000106f0       __scrt_initialize_winrt    00000001400116f0 f   MSVCRT:utility_desktop.obj
 0001:000106f0       __scrt_stub_for_initialize_mta 00000001400116f0 f   MSVCRT:utility_desktop.obj
 0001:000106f0       _get_startup_commit_mode   00000001400116f0 f   MSVCRT:commit_mode.obj
 0001:000106f0       _get_startup_new_mode      00000001400116f0 f   MSVCRT:new_mode.obj
 0001:000106f0       _get_startup_thread_locale_mode 00000001400116f0 f   MSVCRT:thread_locale.obj
 0001:000106f0       _matherr                   00000001400116f0 f   MSVCRT:matherr.obj
 0001:00010700       ?AR_tellOgg@@YAJPEAX@Z     0000000140011700 f   ogg_common.obj
 0001:00010710       ??AVector@@QEAAAEAMH@Z     0000000140011710 f i r_common.obj
 0001:00010770       ??AVector@@QEBAMH@Z        0000000140011770 f i r_common.obj
 0001:000107d0       ?VectorCopy@Math@@YAXAEBVVector@@AEAV2@@Z 00000001400117d0 f i r_common.obj
 0001:00010990       ?VectorCopy@Math@@YAXPEBMAEAVVector@@@Z 0000000140011990 f i r_common.obj
 0001:00010aa0       ?VectorCopy@Math@@YAXAEBVVector@@PEAM@Z 0000000140011aa0 f i r_common.obj
 0001:00010bc0       ?VectorClear@Math@@YAXAEAVVector@@@Z 0000000140011bc0 f i r_common.obj
 0001:00010c30       ?VectorSubtract@Math@@YAXAEBVVector@@0AEAV2@@Z 0000000140011c30 f i r_common.obj
 0001:00010ed0       ?VectorAdd@Math@@YAXAEBVVector@@0AEAV2@@Z 0000000140011ed0 f i r_common.obj
 0001:00011170       ?VectorMA@Math@@YAXAEBVVector@@M0AEAV2@@Z 0000000140012170 f i r_common.obj
 0001:00011440       ?VectorScale@Math@@YAXAEBVVector@@MAEAV2@@Z 0000000140012440 f i r_common.obj
 0001:00011630       ?AngleVectors@Math@@YAXAEBVVector@@PEAV2@11@Z 0000000140012630 f i r_common.obj
 0001:00011800       ?VectorNormalize@Math@@YAMAEAVVector@@@Z 0000000140012800 f i r_common.obj
 0001:000118b0       ?PointInMinsMaxs@Math@@YA_NAEBVVector@@00@Z 00000001400128b0 f i r_common.obj
 0001:000119a0       ?RotateToEntitySpace@Math@@YAXAEBVVector@@AEAV2@@Z 00000001400129a0 f i r_common.obj
 0001:00011c00       ?RotateFromEntitySpace@Math@@YAXAEBVVector@@AEAV2@@Z 0000000140012c00 f i r_common.obj
 0001:00011e10       ?AngleMatrix@Math@@YAXAEBVVector@@PEAY03M@Z 0000000140012e10 f i r_common.obj
 0001:00011fe0       ?VectorToAngles@Math@@YA?AVVector@@AEBV2@0@Z 0000000140012fe0 f i r_common.obj
 0001:00012190       ?VectorToAngles@Math@@YA?AVVector@@AEBV2@@Z 0000000140013190 f i r_common.obj
 0001:000122a0       ?GetUpRight@Math@@YAXAEBVVector@@AEAV2@1@Z 00000001400132a0 f i r_common.obj
 0001:000123c0       ?VectorTransform@Math@@YAXAEBVVector@@PEAY03MAEAV2@@Z 00000001400133c0 f i r_common.obj
 0001:00012450       ?QuaternionMatrix@Math@@YAXAEAY03$$CBMPEAY03M@Z 0000000140013450 f i r_common.obj
 0001:00012670       ?QuaternionBlend@Math@@YAXAEAY03$$CBM0MAEAY03M@Z 0000000140013670 f i r_common.obj
 0001:000129a0       ?AngleQuaternion@Math@@YAXAEBVVector@@AEAY03M@Z 00000001400139a0 f i r_common.obj
 0001:00012af0       ?ConcatTransforms@Math@@YAXPEAY03$$CBM0PEAY03M@Z 0000000140013af0 f i r_common.obj
 0001:00012d10       ??_H@YAXPEAX_K1P6APEAX0@Z@Z 0000000140013d10 f i r_common.obj
 0001:00012d60       ?getVBMCache@cache_model_t@@QEBAPEBUvbmcache_t@@XZ 0000000140013d60 f i r_common.obj
 0001:00012da0       ?R_StyleIndex@@YAHPEBUmsurface_t@@I@Z 0000000140013da0 f   r_common.obj
 0001:00012e40       ?R_AllocBlock@@YAXIIAEAI0I0PEAI@Z 0000000140013e40 f   r_common.obj
 0001:00012f80       ?R_BuildLightmap@@YAPEAUcolor24_t@@GGPEBU1@PEBUmsurface_t@@PEAUcolor32_t@@HIM_N3@Z 0000000140013f80 f   r_common.obj
 0001:00013640       ?R_IsEntityMoved@@YA_NAEBUcl_entity_t@@@Z 0000000140014640 f   r_common.obj
 0001:000136c0       ?R_IsEntityRotated@@YA_NAEBUcl_entity_t@@@Z 00000001400146c0 f   r_common.obj
 0001:00013700       ?R_RotateForEntity@@YAXAEAVCMatrix@@AEBUcl_entity_t@@@Z 0000000140014700 f   r_common.obj
 0001:000137f0       ?R_CheckShaderVertexAttribute@@YA_NHPEBDPEBVCGLSLShader@@P6AX0ZZ@Z 00000001400147f0 f   r_common.obj
 0001:00013b80       ?R_CheckShaderDeterminator@@YA_NHPEBDPEBVCGLSLShader@@P6AX0ZZ@Z 0000000140014b80 f   r_common.obj
 0001:00013f10       ?R_CheckShaderUniform@@YA_NHPEBDPEBVCGLSLShader@@P6AX0ZZ@Z 0000000140014f10 f   r_common.obj
 0001:000142a0       ?R_ResizeTextureToPOT@@YAXAEAI0AEAPEAE@Z 00000001400152a0 f   r_common.obj
 0001:000146a0       ?R_FlipTexture@@YAXIII_N0AEAPEAE@Z 00000001400156a0 f   r_common.obj
 0001:000147b0       ?R_WorldToScreenTransform@@YA_NAEAVCMatrix@@AEBVVector@@AEAV2@@Z 00000001400157b0 f   r_common.obj
 0001:00014900       ?TGA_Load@@YA_NPEBDPEBEAEAPEAEAEAI333AEAW4texture_compression_t@@P6AX0ZZ@Z 0000000140015900 f   tga.obj
 0001:00014ca0       ?SetUniformMatrix4fv@CGLSLShader@@QEAAXHPEBM_N@Z 0000000140015ca0 f i r_basicdraw.obj
 0001:00014e60       ?SetUniform1i@CGLSLShader@@QEAAXHH@Z 0000000140015e60 f i r_basicdraw.obj
 0001:00014f70       ?SetUniform1f@CGLSLShader@@QEAAXHM@Z 0000000140015f70 f i r_basicdraw.obj
 0001:00015080       ?SetUniform2f@CGLSLShader@@QEAAXHMM@Z 0000000140016080 f i r_basicdraw.obj
 0001:000151b0       ?SetUniform3f@CGLSLShader@@QEAAXHMMM@Z 00000001400161b0 f i r_basicdraw.obj
 0001:00015310       ?InitGL@CBasicDraw@@QEAA_NAEBVCGLExtF@@AEBUfile_interface_t@@P6AXPEBDZZ@Z 0000000140016310 f   r_basicdraw.obj
 0001:000156e0       ?ClearGL@CBasicDraw@@QEAAXXZ 00000001400166e0 f   r_basicdraw.obj
 0001:00015770       ??_GCVBO@@QEAAPEAXI@Z      0000000140016770 f i r_basicdraw.obj
 0001:000157c0       ?End@CBasicDraw@@QEAAX_N@Z 00000001400167c0 f   r_basicdraw.obj
 0001:00015830       ?EnableTexture@CBasicDraw@@QEAA_NXZ 0000000140016830 f   r_basicdraw.obj
 0001:00015880       ?DisableTexture@CBasicDraw@@QEAA_NXZ 0000000140016880 f   r_basicdraw.obj
 0001:000158d0       ?EnableRectangleTexture@CBasicDraw@@QEAA_NXZ 00000001400168d0 f   r_basicdraw.obj
 0001:00015920       ?DisableRectangleTexture@CBasicDraw@@QEAA_NXZ 0000000140016920 f   r_basicdraw.obj
 0001:00015970       ?Enable@CBasicDraw@@QEAA_NXZ 0000000140016970 f   r_basicdraw.obj
 0001:00015a70       ?Disable@CBasicDraw@@QEAAXXZ 0000000140016a70 f   r_basicdraw.obj
 0001:00015ac0       ?TexCoord2f@CBasicDraw@@QEAAXMM@Z 0000000140016ac0 f   r_basicdraw.obj
 0001:00015b30       ?Vertex3fv@CBasicDraw@@QEAAXPEBM@Z 0000000140016b30 f   r_basicdraw.obj
 0001:00015c40       ?EnableFog@CBasicDraw@@QEAA_NXZ 0000000140016c40 f   r_basicdraw.obj
 0001:00015c90       ?SetFogParams@CBasicDraw@@QEAAXAEBVVector@@MM@Z 0000000140016c90 f   r_basicdraw.obj
 0001:00015d00       ?DisableFog@CBasicDraw@@QEAA_NXZ 0000000140016d00 f   r_basicdraw.obj
 0001:00015d50       ??A?$CArray@F@@QEBAAEAFI@Z 0000000140016d50 f i r_basicdraw.obj
 0001:00015d90       ?resize@?$CArray@Ubasic_vertex_t@@@@QEAAXI@Z 0000000140016d90 f i r_basicdraw.obj
 0001:00015f20       ??6CString@@QEAAAEAV0@H@Z  0000000140016f20 f i sentencesfile.obj
 0001:00015fd0       ??6CString@@QEAAAEAV0@I@Z  0000000140016fd0 f i sentencesfile.obj
 0001:00016080       ?Append@CString@@QEAAXD@Z  0000000140017080 f i sentencesfile.obj
 0001:00016100       ?Init@CSentencesFile@@QEAA_NPEBE@Z 0000000140017100 f   sentencesfile.obj
 0001:00017d40       ??_Gsentence_t@CSentencesFile@@QEAAPEAXI@Z 0000000140018d40 f i sentencesfile.obj
 0001:00017e10       ?ParseOptionToken@CSentencesFile@@AEAA_NPEAPEBDPEBDAEAI2222@Z 0000000140018e10 f   sentencesfile.obj
 0001:00018330       ?Clear@CSentencesFile@@QEAAXXZ 0000000140019330 f   sentencesfile.obj
 0001:00018540       ?PrecacheSentence@CSentencesFile@@QEAAXPEAUsentence_t@1@@Z 0000000140019540 f   sentencesfile.obj
 0001:000187f0       ?GetSentenceDefinition@CSentencesFile@@QEBAPEBUsentence_t@1@H@Z 00000001400197f0 f   sentencesfile.obj
 0001:00018850       ??0?$CArray@VCString@@@@QEAA@XZ 0000000140019850 f i sentencesfile.obj
 0001:00018860       ??1?$CArray@VCString@@@@QEAA@XZ 0000000140019860 f i sentencesfile.obj
 0001:00018860       ??1CHashList@@QEAA@XZ      0000000140019860 f i modelcache.obj
 0001:00018860       ??1stringbuffer_t@@QEAA@XZ 0000000140019860 f i sv_main.obj
 0001:000188a0       ?clear@?$CArray@VCString@@@@QEAAXXZ 00000001400198a0 f i sentencesfile.obj
 0001:00018900       ?empty@?$CArray@VCString@@@@QEBA_NXZ 0000000140019900 f i sentencesfile.obj
 0001:00018920       ??A?$CArray@Ukeyevent_t@CInput@@@@QEBAAEAUkeyevent_t@CInput@@I@Z 0000000140019920 f i input.obj
 0001:00018920       ??A?$CArray@VCString@@@@QEBAAEAVCString@@I@Z 0000000140019920 f i sentencesfile.obj
 0001:00018970       ??A?$CArray@PEAUcache_model_t@@@@QEBAAEAPEAUcache_model_t@@I@Z 0000000140019970 f i modelcache.obj
 0001:00018970       ??A?$CArray@PEAUdecalpolygroup_t@@@@QEBAAEAPEAUdecalpolygroup_t@@I@Z 0000000140019970 f i r_bsp.obj
 0001:00018970       ??A?$CArray@PEAUfbobind_t@@@@QEBAAEAPEAUfbobind_t@@I@Z 0000000140019970 f i r_dlights.obj
 0001:00018970       ??A?$CArray@PEAUfontsetglinfo_t@@@@QEBAAEAPEAUfontsetglinfo_t@@I@Z 0000000140019970 f i r_text.obj
 0001:00018970       ??A?$CArray@PEAUparticle_t@CLegacyParticles@@@@QEBAAEAPEAUparticle_t@CLegacyParticles@@I@Z 0000000140019970 f i r_legacyparticles.obj
 0001:00018970       ??A?$CArray@PEAUsent_chunk_t@CSentencesFile@@@@QEBAAEAPEAUsent_chunk_t@CSentencesFile@@I@Z 0000000140019970 f i sentencesfile.obj
 0001:00018970       ??A?$CArray@PEAUsentence_t@CSentencesFile@@@@QEBAAEAPEAUsentence_t@CSentencesFile@@I@Z 0000000140019970 f i sentencesfile.obj
 0001:00018970       ??A?$CArray@PEAVCMenuButton@@@@QEBAAEAPEAVCMenuButton@@I@Z 0000000140019970 f i r_menu.obj
 0001:00018970       ??A?$CArray@Uglsl_shader_t@CGLSLShader@@@@QEBAAEAUglsl_shader_t@CGLSLShader@@I@Z 0000000140019970 f i r_glsl.obj
 0001:000189b0       ??6CString@@QEAAAEAV0@M@Z  00000001400199b0 f i texturemanager.obj
 0001:00018a70       ?find@CString@@QEAAHIPEBD@Z 0000000140019a70 f i texturemanager.obj
 0001:00018b50       ?erase@CString@@QEAAXII@Z  0000000140019b50 f i texturemanager.obj
 0001:00018c30       ??0en_material_t@@QEAA@XZ  0000000140019c30 f i texturemanager.obj
 0001:00018d00       ?Shutdown@CTextureManager@@QEAAXXZ 0000000140019d00 f   texturemanager.obj
 0001:00018e90       ??_Gen_material_t@@QEAAPEAXI@Z 0000000140019e90 f i texturemanager.obj
 0001:00018ef0       ?GenTextureIndex@CTextureManager@@QEAAPEAUen_texalloc_t@@W4rs_level_t@@@Z 0000000140019ef0 f   texturemanager.obj
 0001:00018fa0       ?AllocTexture@CTextureManager@@AEAAPEAUen_texture_t@@XZ 0000000140019fa0 f   texturemanager.obj
 0001:00019050       ?DeleteBinds@CTextureManager@@AEAAXW4rs_level_t@@@Z 000000014001a050 f   texturemanager.obj
 0001:00019240       ?DeleteMaterials@CTextureManager@@QEAAXW4rs_level_t@@@Z 000000014001a240 f   texturemanager.obj
 0001:00019670       ?DeleteTextures@CTextureManager@@QEAAXW4rs_level_t@@_N@Z 000000014001a670 f   texturemanager.obj
 0001:00019890       ?DeleteTexture@CTextureManager@@QEAAXPEBD@Z 000000014001a890 f   texturemanager.obj
 0001:000199f0       ?DeleteTexture@CTextureManager@@QEAAXPEAUen_texture_t@@@Z 000000014001a9f0 f   texturemanager.obj
 0001:00019aa0       ?DeleteAllocation@CTextureManager@@QEAAXPEAUen_texalloc_t@@@Z 000000014001aaa0 f   texturemanager.obj
 0001:00019b70       ?CreateDummyTexture@CTextureManager@@AEAAXXZ 000000014001ab70 f   texturemanager.obj
 0001:0001a080       ?GetFormat@CTextureManager@@CA?AW4texture_format_t@@PEBD@Z 000000014001b080 f   texturemanager.obj
 0001:0001a2a0       ?GetTextureType@CTextureManager@@CA?AW4mt_texture_t@@PEBD@Z 000000014001b2a0 f   texturemanager.obj
 0001:0001a4c0       ?LoadMaterialScript@CTextureManager@@QEAAPEAUen_material_t@@PEBDW4rs_level_t@@_N2@Z 000000014001b4c0 f   texturemanager.obj
 0001:0001caf0       ?LoadTexture@CTextureManager@@QEAAPEAUen_texture_t@@PEBDW4rs_level_t@@HPEBH@Z 000000014001daf0 f   texturemanager.obj
 0001:0001d8a0       ?LoadFromMemory@CTextureManager@@QEAAPEAUen_texture_t@@PEBDW4rs_level_t@@HPEBEIIII@Z 000000014001e8a0 f   texturemanager.obj
 0001:0001dd10       ?FindTexture@CTextureManager@@QEAAPEAUen_texture_t@@PEBDW4rs_level_t@@@Z 000000014001ed10 f   texturemanager.obj
 0001:0001de00       ?FindMaterialScript@CTextureManager@@QEAAPEAUen_material_t@@PEBDW4rs_level_t@@@Z 000000014001ee00 f   texturemanager.obj
 0001:0001e010       ?LoadPallettedTexture@CTextureManager@@QEAAPEAUen_texture_t@@PEBDW4rs_level_t@@PEBEPEBUcolor24_t@@IIH@Z 000000014001f010 f   texturemanager.obj
 0001:0001ec00       ?FindMaterialScriptByIndex@CTextureManager@@QEAAPEAUen_material_t@@H@Z 000000014001fc00 f   texturemanager.obj
 0001:0001ec60       ?WritePMFFile@CTextureManager@@QEAAXPEAUen_material_t@@@Z 000000014001fc60 f   texturemanager.obj
 0001:000210f0       ?remove@?$CLinkedList@PEAUbsp_decal_t@@@@QEAAXPEAUlink_t@1@@Z 00000001400220f0 f i r_bsp.obj
 0001:000210f0       ?remove@?$CLinkedList@PEAUcl_dlight_t@@@@QEAAXPEAUlink_t@1@@Z 00000001400220f0 f i r_dlights.obj
 0001:000210f0       ?remove@?$CLinkedList@PEAUedict_t@@@@QEAAXPEAUlink_t@1@@Z 00000001400220f0 f i sv_main.obj
 0001:000210f0       ?remove@?$CLinkedList@PEAUen_texalloc_t@@@@QEAAXPEAUlink_t@1@@Z 00000001400220f0 f i texturemanager.obj
 0001:000210f0       ?remove@?$CLinkedList@PEAUen_texture_t@@@@QEAAXPEAUlink_t@1@@Z 00000001400220f0 f i texturemanager.obj
 0001:000210f0       ?remove@?$CLinkedList@PEAUfilechunk_t@@@@QEAAXPEAUlink_t@1@@Z 00000001400220f0 f i cl_main.obj
 0001:000210f0       ?remove@?$CLinkedList@PEAUparticle_system_t@@@@QEAAXPEAUlink_t@1@@Z 00000001400220f0 f i r_particles.obj
 0001:000210f0       ?remove@?$CLinkedList@PEAUrtt_texture_t@@@@QEAAXPEAUlink_t@1@@Z 00000001400220f0 f i r_rttcache.obj
 0001:000210f0       ?remove@?$CLinkedList@PEAUs_msg_cache_t@CSoundEngine@@@@QEAAXPEAUlink_t@1@@Z 00000001400220f0 f i cl_snd.obj
 0001:000210f0       ?remove@?$CLinkedList@PEAUshadowmap_t@@@@QEAAXPEAUlink_t@1@@Z 00000001400220f0 f i r_dlights.obj
 0001:000210f0       ?remove@?$CLinkedList@PEAUsnd_cache_t@CSoundEngine@@@@QEAAXPEAUlink_t@1@@Z 00000001400220f0 f i cl_snd.obj
 0001:000210f0       ?remove@?$CLinkedList@PEAUsnd_music_t@CSoundEngine@@@@QEAAXPEAUlink_t@1@@Z 00000001400220f0 f i cl_snd.obj
 0001:000210f0       ?remove@?$CLinkedList@PEAVCUIWindow@@@@QEAAXPEAUlink_t@1@@Z 00000001400220f0 f i uimanager.obj
 0001:00021250       ?clear@?$CLinkedList@PEAUbsp_decal_t@@@@QEAAXXZ 0000000140022250 f i r_bsp.obj
 0001:00021250       ?clear@?$CLinkedList@PEAUcl_dlight_t@@@@QEAAXXZ 0000000140022250 f i r_dlights.obj
 0001:00021250       ?clear@?$CLinkedList@PEAUedict_t@@@@QEAAXXZ 0000000140022250 f i sv_main.obj
 0001:00021250       ?clear@?$CLinkedList@PEAUen_material_t@@@@QEAAXXZ 0000000140022250 f i texturemanager.obj
 0001:00021250       ?clear@?$CLinkedList@PEAUen_texalloc_t@@@@QEAAXXZ 0000000140022250 f i texturemanager.obj
 0001:00021250       ?clear@?$CLinkedList@PEAUen_texture_t@@@@QEAAXXZ 0000000140022250 f i texturemanager.obj
 0001:00021250       ?clear@?$CLinkedList@PEAUfilechunk_t@@@@QEAAXXZ 0000000140022250 f i cl_main.obj
 0001:00021250       ?clear@?$CLinkedList@PEAUmparticle_t@CMenuParticles@@@@QEAAXXZ 0000000140022250 f i r_menuparticles.obj
 0001:00021250       ?clear@?$CLinkedList@PEAUparticle_system_t@@@@QEAAXXZ 0000000140022250 f i r_particles.obj
 0001:00021250       ?clear@?$CLinkedList@PEAUrtt_texture_t@@@@QEAAXXZ 0000000140022250 f i r_rttcache.obj
 0001:00021250       ?clear@?$CLinkedList@PEAUs_msg_cache_t@CSoundEngine@@@@QEAAXXZ 0000000140022250 f i cl_snd.obj
 0001:00021250       ?clear@?$CLinkedList@PEAUshadowmap_t@@@@QEAAXXZ 0000000140022250 f i r_dlights.obj
 0001:00021250       ?clear@?$CLinkedList@PEAUsnd_cache_t@CSoundEngine@@@@QEAAXXZ 0000000140022250 f i cl_snd.obj
 0001:00021250       ?clear@?$CLinkedList@PEAUsnd_music_t@CSoundEngine@@@@QEAAXXZ 0000000140022250 f i cl_snd.obj
 0001:00021250       ?clear@?$CLinkedList@PEAUsnd_oggcache_t@@@@QEAAXXZ 0000000140022250 f i cl_snd.obj
 0001:00021250       ?clear@?$CLinkedList@PEAUthreadfile_t@@@@QEAAXXZ 0000000140022250 f i filewriterthread.obj
 0001:00021250       ?clear@?$CLinkedList@PEAUusermsgdata_t@@@@QEAAXXZ 0000000140022250 f i sv_main.obj
 0001:00021250       ?clear@?$CLinkedList@PEAVCCVar@@@@QEAAXXZ 0000000140022250 f i console.obj
 0001:00021250       ?clear@?$CLinkedList@PEAVCUIWindow@@@@QEAAXXZ 0000000140022250 f i uimanager.obj
 0001:00021410       ??1?$CLinkedList@PEAUbsp_decal_t@@@@QEAA@XZ 0000000140022410 f i r_bsp.obj
 0001:00021410       ??1?$CLinkedList@PEAUen_texture_t@@@@QEAA@XZ 0000000140022410 f i texturemanager.obj
 0001:00021410       ??1?$CLinkedList@PEAUs_msg_cache_t@CSoundEngine@@@@QEAA@XZ 0000000140022410 f i cl_snd.obj
 0001:00021410       ??1?$CLinkedList@PEAUsnd_cache_t@CSoundEngine@@@@QEAA@XZ 0000000140022410 f i cl_snd.obj
 0001:00021410       ??1?$CLinkedList@PEAUsnd_music_t@CSoundEngine@@@@QEAA@XZ 0000000140022410 f i cl_snd.obj
 0001:00021410       ??1?$CLinkedList@PEAUsnd_oggcache_t@@@@QEAA@XZ 0000000140022410 f i cl_snd.obj
 0001:00021410       ??1?$CLinkedList@PEAVCCVar@@@@QEAA@XZ 0000000140022410 f i console.obj
 0001:00021410       ??1?$CLinkedList@PEAVCUIWindow@@@@QEAA@XZ 0000000140022410 f i uimanager.obj
 0001:00021440       ?resize@?$CArray@PEAUbsp_decal_t@@@@QEAAXI@Z 0000000140022440 f i r_bsp.obj
 0001:00021440       ?resize@?$CArray@PEAUdetail_association_t@@@@QEAAXI@Z 0000000140022440 f i r_wadtextures.obj
 0001:00021440       ?resize@?$CArray@PEAUdetailtexture_t@@@@QEAAXI@Z 0000000140022440 f i r_wadtextures.obj
 0001:00021440       ?resize@?$CArray@PEAUen_material_t@@@@QEAAXI@Z 0000000140022440 f i texturemanager.obj
 0001:00021440       ?resize@?$CArray@PEAUentity_extrainfo_t@@@@QEAAXI@Z 0000000140022440 f i cl_main.obj
 0001:00021440       ?resize@?$CArray@PEAUmaterial_association_t@CWADTextureResource@@@@QEAAXI@Z 0000000140022440 f i r_wadtextures.obj
 0001:00021440       ?resize@?$CArray@PEAUvbm_decal_mesh_t@@@@QEAAXI@Z 0000000140022440 f i r_vbm.obj
 0001:00021440       ?resize@?$CArray@PEAVCUIObject@@@@QEAAXI@Z 0000000140022440 f i uielements.obj
 0001:00021550       ?clear@?$CLinkedList@Ualias_mapping_t@CTextureManager@@@@QEAAXXZ 0000000140022550 f i texturemanager.obj
 0001:00021550       ?clear@?$CLinkedList@Ucl_resource_t@@@@QEAAXXZ 0000000140022550 f i cl_main.obj
 0001:00021720       ??A?$CArray@H@@QEBAAEAHI@Z 0000000140022720 f i texturemanager.obj
 0001:00021760       ?resize@?$CArray@H@@QEAAXI@Z 0000000140022760 f i texturemanager.obj
 0001:00021760       ?resize@?$CArray@I@@QEAAXI@Z 0000000140022760 f i brushmodel.obj
 0001:00021870       ?getBrushmodel@cache_model_t@@QEAAPEAUbrushmodel_t@@XZ 0000000140022870 f i ald.obj
 0001:000218b0       ?ALD_Load@@YA_NW4daystage_t@@@Z 00000001400228b0 f   ald.obj
 0001:00021d70       ?ALD_ExportLightmaps@@YAXXZ 0000000140022d70 f   ald.obj
 0001:00022140       ?BoxOnPlaneSide@@YAIAEBVVector@@0PEBUplane_t@@@Z 0000000140023140 f i brushmodel.obj
 0001:00022370       ?RotatePointAroundVector@@YAXAEBVVector@@0MAEAV1@@Z 0000000140023370 f i brushmodel.obj
 0001:00022560       ?Mod_PointInLeaf@@YAPEBUmleaf_t@@AEBVVector@@AEBUbrushmodel_t@@@Z 0000000140023560 f   brushmodel.obj
 0001:000225e0       ?Mod_DecompressVIS@@YAPEAEPEAEI0AEBUbrushmodel_t@@I@Z 00000001400235e0 f   brushmodel.obj
 0001:00022700       ?Mod_DecompressPAS@@YAPEAEPEAEI0AEBUbrushmodel_t@@I@Z 0000000140023700 f   brushmodel.obj
 0001:00022820       ?Mod_LeafPVS@@YAPEBEPEAEIAEBUmleaf_t@@AEBUbrushmodel_t@@@Z 0000000140023820 f   brushmodel.obj
 0001:000228a0       ?Mod_LeafPAS@@YAPEBEPEAEIAEBUmleaf_t@@AEBUbrushmodel_t@@@Z 00000001400238a0 f   brushmodel.obj
 0001:00022920       ?Mod_SurfaceAtPoint@@YAPEBUmsurface_t@@PEBUbrushmodel_t@@PEBUmnode_t@@AEBVVector@@2@Z 0000000140023920 f   brushmodel.obj
 0001:00022b70       ?Mod_FindTouchedLeafs@@YAXPEBUbrushmodel_t@@AEAV?$CArray@I@@AEBVVector@@2PEAUmnode_t@@@Z 0000000140023b70 f   brushmodel.obj
 0001:00022c50       ?Mod_RecursiveLightPoint@@YA_NPEBUbrushmodel_t@@PEAUmnode_t@@AEBVVector@@2AEAV3@@Z 0000000140023c50 f   brushmodel.obj
 0001:00022fb0       ?Mod_RecursiveLightPoint_BumpData@@YA_NPEBUbrushmodel_t@@PEAUmnode_t@@AEBVVector@@2AEAV3@33@Z 0000000140023fb0 f   brushmodel.obj
 0001:00023570       ??ACString@@QEBADI@Z       0000000140024570 f i bspv30.obj
 0001:000235f0       ??0mtexture_t@@QEAA@XZ     00000001400245f0 f i bspv30.obj
 0001:00023640       ??0msurface_t@@QEAA@XZ     0000000140024640 f i bspv30.obj
 0001:00023690       ??0brushmodel_t@@QEAA@XZ   0000000140024690 f i bspv30.obj
 0001:00023840       ??1brushmodel_t@@QEAA@XZ   0000000140024840 f i bspv30.obj
 0001:000239e0       ??1msurface_t@@QEAA@XZ     00000001400249e0 f i bspv30.obj
 0001:000239f0       ?BSPV30_Load@@YAPEAUbrushmodel_t@@PEBEPEBUdheader_t@@PEBD@Z 00000001400249f0 f   bspv30.obj
 0001:000240e0       ?BSPV30_LoadVertexes@@YA_NPEBEAEAUbrushmodel_t@@AEBUlump_t@@@Z 00000001400250e0 f   bspv30.obj
 0001:000242b0       ?BSPV30_LoadTextures@@YA_NPEBEAEAUbrushmodel_t@@AEBUlump_t@@@Z 00000001400252b0 f   bspv30.obj
 0001:00024b10       ?BSPV30_LoadPlanes@@YA_NPEBEAEAUbrushmodel_t@@AEBUlump_t@@@Z 0000000140025b10 f   bspv30.obj
 0001:00024e70       ?BSPV30_LoadFaces@@YA_NPEBEAEAUbrushmodel_t@@AEBUlump_t@@@Z 0000000140025e70 f   bspv30.obj
 0001:00025160       ?BSPV30_LoadLeafs@@YA_NPEBEAEAUbrushmodel_t@@AEBUlump_t@@@Z 0000000140026160 f   bspv30.obj
 0001:000254c0       ?BSPV30_LoadNodes@@YA_NPEBEAEAUbrushmodel_t@@AEBUlump_t@@@Z 00000001400264c0 f   bspv30.obj
 0001:000258b0       ?BSPV30_LoadClipnodes@@YA_NPEBEAEAUbrushmodel_t@@AEBUlump_t@@@Z 00000001400268b0 f   bspv30.obj
 0001:00025ac0       ?BSPV30_LoadSubmodels@@YA_NPEBEAEAUbrushmodel_t@@AEBUlump_t@@@Z 0000000140026ac0 f   bspv30.obj
 0001:00025c60       ?BSPV30_SetNodeParent@@YAXPEAUmnode_t@@0@Z 0000000140026c60 f   bspv30.obj
 0001:00025c60       ?PBSPV1_SetNodeParent@@YAXPEAUmnode_t@@0@Z 0000000140026c60 f   pbspv1.obj
 0001:00025ca0       ?BSPV30_CalcSurfaceExtents@@YA_NPEAUmsurface_t@@AEAUbrushmodel_t@@@Z 0000000140026ca0 f   bspv30.obj
 0001:000260b0       ?BSPV30_SetupPAS@@YAXAEAUbrushmodel_t@@@Z 00000001400270b0 f   bspv30.obj
 0001:000265f0       ?Cmd_Disconnect@@YAXXZ     00000001400275f0 f   cl_cmd.obj
 0001:00026660       ?Cmd_Connect@@YAXXZ        0000000140027660 f   cl_cmd.obj
 0001:00026760       ?Cmd_DownloadFile@@YAXXZ   0000000140027760 f   cl_cmd.obj
 0001:00026a10       ?Cmd_Heartbeat@@YAXXZ      0000000140027a10 f   cl_cmd.obj
 0001:00026a20       ?radd@?$CLinkedList@Ucl_resource_t@@@@QEAAPEAUlink_t@1@Ucl_resource_t@@@Z 0000000140027a20 f i cl_cmd.obj
 0001:00026af0       ?CL_AllocStaticSpriteEntity@@YAPEAUcl_entity_t@@XZ 0000000140027af0 f   cl_efx.obj
 0001:00026b50       ?CL_AllocTempSpriteEntity@@YAPEAUcl_entity_t@@HM@Z 0000000140027b50 f   cl_efx.obj
 0001:00026b60       ?CL_AllocEntityLight@@YAPEAUmlight_t@@HMH@Z 0000000140027b60 f   cl_efx.obj
 0001:00026d10       ?CL_CreateCableEntity@@YAXAEBVVector@@0III@Z 0000000140027d10 f   cl_efx.obj
 0001:00026d40       ?CL_SetFogParameters@@YAXHAEBVVector@@MM_NM@Z 0000000140027d40 f   cl_efx.obj
 0001:00026eb0       ?CL_SetSkyboxParameters@@YAXAEBVVector@@MMM0H_N1@Z 0000000140027eb0 f   cl_efx.obj
 0001:00026fa0       ?CL_AllocDynamicPointLight@@YAPEAUcl_dlight_t@@HH_N0PEAUcl_entity_t@@@Z 0000000140027fa0 f   cl_efx.obj
 0001:00026fd0       ?CL_AllocDynamicSpotLight@@YAPEAUcl_dlight_t@@HH_N0PEAUcl_entity_t@@@Z 0000000140027fd0 f   cl_efx.obj
 0001:00027000       ?CL_SetDayStage@@YAXW4daystage_t@@@Z 0000000140028000 f   cl_efx.obj
 0001:000270f0       ?CL_SetSpecialFog@@YAX_N@Z 00000001400280f0 f   cl_efx.obj
 0001:00027130       ?CL_FreeEntityData@@YAXHH@Z 0000000140028130 f   cl_efx.obj
 0001:00027300       ?CL_SetLightStyle@@YAXHPEBD_NM@Z 0000000140028300 f   cl_efx.obj
 0001:00027340       ?CL_GetDecalList@@YAAEAVCDecalList@@XZ 0000000140028340 f   cl_efx.obj
 0001:00027350       ?CL_DecalVBMEntity@@YAXAEBVVector@@0PEAUdecalgroupentry_t@@PEAUcl_entity_t@@H@Z 0000000140028350 f   cl_efx.obj
 0001:00027380       ?CL_CreateGenericDecal@@YAXPEBDAEBVVector@@1HHMMM@Z 0000000140028380 f   cl_efx.obj
 0001:000273e0       ?CL_PrecacheParticleScript@@YAXW4part_script_type_t@@PEBD@Z 00000001400283e0 f   cl_efx.obj
 0001:00027400       ?CL_RemoveParticleSystem@@YAXIH_N@Z 0000000140028400 f   cl_efx.obj
 0001:000274f0       ?CL_KillEntityParticleSystems@@YAXH@Z 00000001400284f0 f   cl_efx.obj
 0001:00027500       ?CL_SpawnParticleSystem@@YAXAEBVVector@@0W4part_script_type_t@@PEBDHHHHH@Z 0000000140028500 f   cl_efx.obj
 0001:00027560       ?CL_SetMotionBlur@@YAX_NM0@Z 0000000140028560 f   cl_efx.obj
 0001:000275e0       ?CL_SetFade@@YAXIMMHAEBUcolor24_t@@EM@Z 00000001400285e0 f   cl_efx.obj
 0001:00027730       ?CL_SetGaussianBlur@@YAX_NM@Z 0000000140028730 f   cl_efx.obj
 0001:00027750       ?CL_BreakModel@@YAXAEBVVector@@00IMIIHMMH@Z 0000000140028750 f   cl_efx.obj
 0001:000277d0       ?CL_Bubbles@@YAXAEBVVector@@0MIIM@Z 00000001400287d0 f   cl_efx.obj
 0001:00027800       ?CL_BubbleTrail@@YAXAEBVVector@@0MIIM@Z 0000000140028800 f   cl_efx.obj
 0001:00027830       ?CL_FunnelSprite@@YAXAEBVVector@@0MI_N@Z 0000000140028830 f   cl_efx.obj
 0001:00027860       ?CL_SphereModel@@YAXAEBVVector@@MMIIMMH@Z 0000000140028860 f   cl_efx.obj
 0001:000278b0       ?CL_TempModel@@YAPEAUtempentity_t@@AEBVVector@@00MIHMMH@Z 00000001400288b0 f   cl_efx.obj
 0001:00027910       ?CL_TempSprite@@YAPEAUtempentity_t@@AEBVVector@@0MIHHMMHH@Z 0000000140028910 f   cl_efx.obj
 0001:00027970       ?CL_ParticleExplosion1@@YAXAEBVVector@@@Z 0000000140028970 f   cl_efx.obj
 0001:00027980       ?CL_ParticleExplosion2@@YAXAEBVVector@@II@Z 0000000140028980 f   cl_efx.obj
 0001:00027990       ?CL_BlobExplosion@@YAXAEBVVector@@@Z 0000000140028990 f   cl_efx.obj
 0001:000279a0       ?CL_RocketExplosion@@YAXAEBVVector@@I@Z 00000001400289a0 f   cl_efx.obj
 0001:000279b0       ?CL_ParticleEffect@@YAXAEBVVector@@0II@Z 00000001400289b0 f   cl_efx.obj
 0001:000279d0       ?CL_LavaSplash@@YAXAEBVVector@@@Z 00000001400289d0 f   cl_efx.obj
 0001:000279e0       ?CL_TeleportSplash@@YAXAEBVVector@@@Z 00000001400289e0 f   cl_efx.obj
 0001:000279f0       ?CL_RocketTrail@@YAXAEBVVector@@0I@Z 00000001400289f0 f   cl_efx.obj
 0001:00027a00       ?CL_BeamLightning@@YAPEAUbeam_t@@AEBVVector@@0HMMMMMMH@Z 0000000140028a00 f   cl_efx.obj
 0001:00027a80       ?CL_BeamCirclePoints@@YAPEAUbeam_t@@W4beam_types_t@@AEBVVector@@1HMMMMMMIMMMMH@Z 0000000140028a80 f   cl_efx.obj
 0001:00027b50       ?CL_BeamEntityPoint@@YAPEAUbeam_t@@HHAEBVVector@@HMMMMMMIMMMMH@Z 0000000140028b50 f   cl_efx.obj
 0001:00027c20       ?CL_BeamEntities@@YAPEAUbeam_t@@HHHHHMMMMMMIMMMMH@Z 0000000140028c20 f   cl_efx.obj
 0001:00027d00       ?CL_BeamFollow@@YAPEAUbeam_t@@HHHMMMMMM@Z 0000000140028d00 f   cl_efx.obj
 0001:00027d70       ?CL_BeamPoints@@YAPEAUbeam_t@@AEBVVector@@0HMMMMMMIMMMMH@Z 0000000140028d70 f   cl_efx.obj
 0001:00027e30       ?CL_BeamRing@@YAPEAUbeam_t@@HHHHHMMMMMMIMMMMH@Z 0000000140028e30 f   cl_efx.obj
 0001:00027f10       ?CL_BeamVaporTrail@@YAPEAUbeam_t@@AEBVVector@@0HHMMMMMMMMMMMH@Z 0000000140028f10 f   cl_efx.obj
 0001:00027ff0       ?CL_KillEntityBeams@@YAXH@Z 0000000140028ff0 f   cl_efx.obj
 0001:00028000       ?CL_CreateBlackHole@@YAXHAEBVVector@@MMMMMM@Z 0000000140029000 f   cl_efx.obj
 0001:00028180       ?CL_KillBlackHole@@YAXH@Z  0000000140029180 f   cl_efx.obj
 0001:000283b0       ?CL_SetSunFlare@@YAXH_NMMMAEBVVector@@0@Z 00000001400293b0 f   cl_efx.obj
 0001:000283f0       ?CL_AddSkyTextureSet@@YAXPEBDH@Z 00000001400293f0 f   cl_efx.obj
 0001:00028400       ?CL_SetSkyTexture@@YAXH@Z  0000000140029400 f   cl_efx.obj
 0001:00028450       ??0entity_state_t@@QEAA@XZ 0000000140029450 f i cl_main.obj
 0001:000286a0       ??0cl_entity_t@@QEAA@XZ    00000001400296a0 f i cl_main.obj
 0001:000288b0       ??0pm_info_t@@QEAA@XZ      00000001400298b0 f i cl_main.obj
 0001:00028970       ??0flexstate_t@@QEAA@XZ    0000000140029970 f i cl_main.obj
 0001:00028c80       ??0entity_lightinfo_t@@QEAA@XZ 0000000140029c80 f i cl_main.obj
 0001:00028ea0       ??0usermsgdata_t@@QEAA@XZ  0000000140029ea0 f i cl_main.obj
 0001:00028ef0       ??0cl_net_t@@QEAA@XZ       0000000140029ef0 f i cl_main.obj
 0001:00029020       ??1cl_download_t@@QEAA@XZ  000000014002a020 f i cl_main.obj
 0001:00029060       ??0clientstate_t@@QEAA@XZ  000000014002a060 f i cl_main.obj
 0001:00029210       ??1cl_net_t@@QEAA@XZ       000000014002a210 f i cl_main.obj
 0001:00029340       ??4entity_state_t@@QEAAAEAU0@$$QEAU0@@Z 000000014002a340 f i cl_main.obj
 0001:00029340       ??4entity_state_t@@QEAAAEAU0@AEBU0@@Z 000000014002a340 f i cl_main.obj
 0001:00029a20       ??1cl_entity_t@@QEAA@XZ    000000014002aa20 f i cl_main.obj
 0001:00029a40       ?CL_Init@@YA_NXZ           000000014002aa40 f   cl_main.obj
 0001:0002a690       ?CL_ResetGame@@YAXXZ       000000014002b690 f   cl_main.obj
 0001:0002ab50       ?CL_SendCmd@@YAXXZ         000000014002bb50 f   cl_main.obj
 0001:0002b080       ?CL_Frame@@YAXXZ           000000014002c080 f   cl_main.obj
 0001:0002b4c0       ?CL_InitGame@@YA_NXZ       000000014002c4c0 f   cl_main.obj
 0001:0002bb80       ?CL_EstablishConnection@@YA_NPEBD_N@Z 000000014002cb80 f   cl_main.obj
 0001:0002bef0       ?CL_Disconnect@@YAX_N0@Z   000000014002cef0 f   cl_main.obj
 0001:0002c080       ?CL_CheckGameReady@@YA_NXZ 000000014002d080 f   cl_main.obj
 0001:0002c120       ?CL_CanPlayGameSounds@@YA_NXZ 000000014002d120 f   cl_main.obj
 0001:0002c140       ?CL_SendHeartbeat@@YAX_N@Z 000000014002d140 f   cl_main.obj
 0001:0002c1e0       ?CL_SetEntityTypeData@@YAXPEAUcl_entity_t@@PEAUentity_extrainfo_t@@W4entity_type_t@@@Z 000000014002d1e0 f   cl_main.obj
 0001:0002c3c0       ?CL_GetEntityExtraData@@YAPEAUentity_extrainfo_t@@PEAUcl_entity_t@@@Z 000000014002d3c0 f   cl_main.obj
 0001:0002c620       ??4cl_entity_t@@QEAAAEAU0@$$QEAU0@@Z 000000014002d620 f i cl_main.obj
 0001:0002c620       ??4cl_entity_t@@QEAAAEAU0@AEBU0@@Z 000000014002d620 f i cl_main.obj
 0001:0002c9a0       ?CL_PrecacheFlexScript@@YAXW4flextypes_t@@PEBD@Z 000000014002d9a0 f   cl_main.obj
 0001:0002ca00       ?CL_SetFlexScript@@YAXHPEBD@Z 000000014002da00 f   cl_main.obj
 0001:0002cb00       ?CL_ClientCommand@@YAXPEBD@Z 000000014002db00 f   cl_main.obj
 0001:0002cb30       ?CL_ServerCommand@@YAXPEBD@Z 000000014002db30 f   cl_main.obj
 0001:0002cc60       ?CL_LinkMapTextureMaterials@@YAXAEAV?$CArray@VCString@@@@@Z 000000014002dc60 f   cl_main.obj
 0001:0002d660       ??0adv_choice_t@CUISettingsWindow@@QEAA@XZ 000000014002e660 f i uisettingswindow.obj
 0001:0002d660       ??0maptexturematerial_t@@QEAA@XZ 000000014002e660 f i cl_main.obj
 0001:0002d660       ??0sent_assoc_t@@QEAA@XZ   000000014002e660 f i flexmanager.obj
 0001:0002d660       ??0setting_t@CUISettingsWindow@@QEAA@XZ 000000014002e660 f i uisettingswindow.obj
 0001:0002d6b0       ??1adv_choice_t@CUISettingsWindow@@QEAA@XZ 000000014002e6b0 f i uisettingswindow.obj
 0001:0002d6b0       ??1cmd_definition_t@CCommandManager@@QEAA@XZ 000000014002e6b0 f i commands.obj
 0001:0002d6b0       ??1con_input_t@@QEAA@XZ    000000014002e6b0 f i console.obj
 0001:0002d6b0       ??1glsl_attrib_t@CGLSLShader@@QEAA@XZ 000000014002e6b0 f i r_glsl.obj
 0001:0002d6b0       ??1glsl_determinator_t@CGLSLShader@@QEAA@XZ 000000014002e6b0 f i r_glsl.obj
 0001:0002d6b0       ??1maptexturematerial_t@@QEAA@XZ 000000014002e6b0 f i cl_main.obj
 0001:0002d6b0       ??1sent_assoc_t@@QEAA@XZ   000000014002e6b0 f i flexmanager.obj
 0001:0002d6b0       ??1setting_t@CUISettingsWindow@@QEAA@XZ 000000014002e6b0 f i uisettingswindow.obj
 0001:0002d6b0       ??1sv_entitypacket_t@@QEAA@XZ 000000014002e6b0 f i sv_main.obj
 0001:0002d6b0       ??1sv_level_connection_t@@QEAA@XZ 000000014002e6b0 f i sv_main.obj
 0001:0002d6e0       ?CL_UpdateAttachments@@YAXPEAUcl_entity_t@@@Z 000000014002e6e0 f   cl_main.obj
 0001:0002d6f0       ?CL_GetMaxClients@@YAIXZ   000000014002e6f0 f   cl_main.obj
 0001:0002d700       ?CL_SetPaused@@YAX_N0@Z    000000014002e700 f   cl_main.obj
 0001:0002d7c0       ??4?$CArray@M@@QEAAXAEBV0@@Z 000000014002e7c0 f i cl_main.obj
 0001:0002d830       ??1?$CArray@Uusermsg_t@@@@QEAA@XZ 000000014002e830 f i cl_main.obj
 0001:0002d870       ??1?$CArray@Ucl_usermsgfunction_t@@@@QEAA@XZ 000000014002e870 f i cl_main.obj
 0001:0002d870       ??1?$CArray@Uhdr_column_t@CUIListHeader@@@@QEAA@XZ 000000014002e870 f i uielements.obj
 0001:0002d8b0       ??1?$CLinkedList@Ucl_resource_t@@@@QEAA@XZ 000000014002e8b0 f i cl_main.obj
 0001:0002d8e0       ??1?$CArray@Udecalcache_t@@@@QEAA@XZ 000000014002e8e0 f i cl_main.obj
 0001:0002d8e0       ??1?$CArray@Udisabled_state_t@CGLSLShader@@@@QEAA@XZ 000000014002e8e0 f i r_glsl.obj
 0001:0002d8e0       ??1?$CArray@Udll_export_t@@@@QEAA@XZ 000000014002e8e0 f i sv_main.obj
 0001:0002d8e0       ??1?$CArray@Usnd_missing_t@CSoundEngine@@@@QEAA@XZ 000000014002e8e0 f i cl_snd.obj
 0001:0002d8e0       ??1?$CArray@Usv_model_t@@@@QEAA@XZ 000000014002e8e0 f i sv_main.obj
 0001:0002d8e0       ??1?$CArray@Usv_particlecache_t@@@@QEAA@XZ 000000014002e8e0 f i sv_main.obj
 0001:0002d8e0       ??1?$CArray@Usv_sound_t@@@@QEAA@XZ 000000014002e8e0 f i sv_main.obj
 0001:0002d930       ??1?$CArray@Ucl_entity_t@@@@QEAA@XZ 000000014002e930 f i cl_main.obj
 0001:0002d970       ?resize@?$CArray@Ucl_entity_t@@@@QEAAXI@Z 000000014002e970 f i cl_main.obj
 0001:0002daf0       ??A?$CArray@Ucl_entity_t@@@@QEBAAEAUcl_entity_t@@I@Z 000000014002eaf0 f i cl_main.obj
 0001:0002db40       ?resize@?$CArray@Uusercmd_t@@@@QEAAXI@Z 000000014002eb40 f i cl_main.obj
 0001:0002df10       ??1?$CArray@Uadv_choice_t@CUISettingsWindow@@@@QEAA@XZ 000000014002ef10 f i uisettingswindow.obj
 0001:0002df10       ??1?$CArray@Umaptexturematerial_t@@@@QEAA@XZ 000000014002ef10 f i cl_main.obj
 0001:0002df10       ??1?$CArray@Usent_assoc_t@@@@QEAA@XZ 000000014002ef10 f i flexmanager.obj
 0001:0002df50       ??_Elightstyle_t@CDynamicLightManager@@QEAAPEAXI@Z 000000014002ef50 f i r_dlights.obj
 0001:0002df50       ??_Eusermsg_t@@QEAAPEAXI@Z 000000014002ef50 f i cl_main.obj
 0001:0002df90       ??_Ecl_usermsgfunction_t@@QEAAPEAXI@Z 000000014002ef90 f i cl_main.obj
 0001:0002df90       ??_Eglowquery_t@@QEAAPEAXI@Z 000000014002ef90 f i r_glqueries.obj
 0001:0002df90       ??_Ehdr_column_t@CUIListHeader@@QEAAPEAXI@Z 000000014002ef90 f i uielements.obj
 0001:0002df90       ??_Esv_usermsgfunction_t@@QEAAPEAXI@Z 000000014002ef90 f i sv_main.obj
 0001:0002dfd0       ??_Edecalcache_t@@QEAAPEAXI@Z 000000014002efd0 f i cl_main.obj
 0001:0002dfd0       ??_Edisabled_state_t@CGLSLShader@@QEAAPEAXI@Z 000000014002efd0 f i r_glsl.obj
 0001:0002dfd0       ??_Edll_export_t@@QEAAPEAXI@Z 000000014002efd0 f i sv_main.obj
 0001:0002dfd0       ??_Esnd_missing_t@CSoundEngine@@QEAAPEAXI@Z 000000014002efd0 f i cl_snd.obj
 0001:0002dfd0       ??_Esv_model_t@@QEAAPEAXI@Z 000000014002efd0 f i sv_main.obj
 0001:0002dfd0       ??_Esv_particlecache_t@@QEAAPEAXI@Z 000000014002efd0 f i sv_main.obj
 0001:0002dfd0       ??_Esv_sound_t@@QEAAPEAXI@Z 000000014002efd0 f i sv_main.obj
 0001:0002e010       ??_Ecl_entity_t@@QEAAPEAXI@Z 000000014002f010 f i cl_main.obj
 0001:0002e050       ??_Eadv_choice_t@CUISettingsWindow@@QEAAPEAXI@Z 000000014002f050 f i uisettingswindow.obj
 0001:0002e050       ??_Emaptexturematerial_t@@QEAAPEAXI@Z 000000014002f050 f i cl_main.obj
 0001:0002e050       ??_Esent_assoc_t@@QEAAPEAXI@Z 000000014002f050 f i flexmanager.obj
 0001:0002e050       ??_Esetting_t@CUISettingsWindow@@QEAAPEAXI@Z 000000014002f050 f i uisettingswindow.obj
 0001:0002e090       ??1lightstyle_t@CDynamicLightManager@@QEAA@XZ 000000014002f090 f i r_dlights.obj
 0001:0002e090       ??1part_msg_cache_t@@QEAA@XZ 000000014002f090 f i r_particles.obj
 0001:0002e090       ??1usermsg_t@@QEAA@XZ      000000014002f090 f i cl_main.obj
 0001:0002e0a0       ?resize@?$CArray@M@@QEAAXI@Z 000000014002f0a0 f i cl_main.obj
 0001:0002e240       ?resize@?$CArray@Uadv_choice_t@CUISettingsWindow@@@@QEAAXI@Z 000000014002f240 f i uisettingswindow.obj
 0001:0002e240       ?resize@?$CArray@Umaptexturematerial_t@@@@QEAAXI@Z 000000014002f240 f i cl_main.obj
 0001:0002e240       ?resize@?$CArray@Usent_assoc_t@@@@QEAAXI@Z 000000014002f240 f i flexmanager.obj
 0001:0002e240       ?resize@?$CArray@Usetting_t@CUISettingsWindow@@@@QEAAXI@Z 000000014002f240 f i uisettingswindow.obj
 0001:0002e410       ??0decalcache_t@@QEAA@XZ   000000014002f410 f i cl_msg.obj
 0001:0002e410       ??0snd_missing_t@CSoundEngine@@QEAA@XZ 000000014002f410 f i cl_snd.obj
 0001:0002e410       ??0sv_particlecache_t@@QEAA@XZ 000000014002f410 f i sv_msg.obj
 0001:0002e450       ?HasError@CMSGReader@@QEAA_NXZ 000000014002f450 f i cl_msg.obj
 0001:0002e540       ?ReadByte@CMSGReader@@QEAAEXZ 000000014002f540 f i cl_msg.obj
 0001:0002e6e0       ?ReadInt16@CMSGReader@@QEAAFXZ 000000014002f6e0 f i cl_msg.obj
 0001:0002e6e0       ?ReadUint16@CMSGReader@@QEAAGXZ 000000014002f6e0 f i cl_msg.obj
 0001:0002e880       ?ReadInt32@CMSGReader@@QEAAHXZ 000000014002f880 f i cl_msg.obj
 0001:0002e880       ?ReadUint32@CMSGReader@@QEAAIXZ 000000014002f880 f i cl_msg.obj
 0001:0002ea20       ?ReadInt64@CMSGReader@@QEAA_JXZ 000000014002fa20 f i cl_msg.obj
 0001:0002ea20       ?ReadUint64@CMSGReader@@QEAA_KXZ 000000014002fa20 f i cl_msg.obj
 0001:0002ebc0       ?ReadSmallFloat@CMSGReader@@QEAAMXZ 000000014002fbc0 f i cl_msg.obj
 0001:0002ec00       ?ReadFloat@CMSGReader@@QEAAMXZ 000000014002fc00 f i cl_msg.obj
 0001:0002eda0       ?ReadDouble@CMSGReader@@QEAANXZ 000000014002fda0 f i cl_msg.obj
 0001:0002ef50       ?ReadString@CMSGReader@@QEAAPEBDXZ 000000014002ff50 f i cl_msg.obj
 0001:0002f0f0       ?ReadBuffer@CMSGReader@@QEAAPEBEI@Z 00000001400300f0 f i cl_msg.obj
 0001:0002f270       ??0cl_usermsgfunction_t@@QEAA@XZ 0000000140030270 f i cl_msg.obj
 0001:0002f270       ??0sv_usermsgfunction_t@@QEAA@XZ 0000000140030270 f i sv_msg.obj
 0001:0002f2b0       ?CL_ReadMessages@@YA_NXZ   00000001400302b0 f   cl_msg.obj
 0001:0002ff90       ?CL_ParseAddAVelocity@@YAXXZ 0000000140030f90 f   cl_msg.obj
 0001:00030230       ?CL_ParseViewSetAngles@@YAXXZ 0000000140031230 f   cl_msg.obj
 0001:000304b0       ?CL_ParseServerInfo@@YA_NXZ 00000001400314b0 f   cl_msg.obj
 0001:00030ac0       ?CL_UpdateLatchedState@@YAXPEAUcl_entity_t@@@Z 0000000140031ac0 f   cl_msg.obj
 0001:00030ec0       ?CL_ResetLatchedState@@YAXPEAUcl_entity_t@@@Z 0000000140031ec0 f   cl_msg.obj
 0001:00031320       ?CL_ReadPacketEntities@@YA_NXZ 0000000140032320 f   cl_msg.obj
 0001:00034a20       ?CL_ReadDecalPrecacheMessage@@YAXXZ 0000000140035a20 f   cl_msg.obj
 0001:00034d00       ?CL_RegisterUserMessage@@YAXXZ 0000000140035d00 f   cl_msg.obj
 0001:00035190       ?CL_ReadSoundEngineMessage@@YAXXZ 0000000140036190 f   cl_msg.obj
 0001:000359f0       ?CL_RegisterClientUserMessage@@YAHPEBDH@Z 00000001400369f0 f   cl_msg.obj
 0001:00035a10       ?CL_ClientUserMessageBegin@@YAXH@Z 0000000140036a10 f   cl_msg.obj
 0001:00035aa0       ?CL_ClientUserMessageEnd@@YAXXZ 0000000140036aa0 f   cl_msg.obj
 0001:00035c10       ?CL_Msg_WriteByte@@YAXE@Z  0000000140036c10 f   cl_msg.obj
 0001:00035c70       ?CL_Msg_WriteChar@@YAXD@Z  0000000140036c70 f   cl_msg.obj
 0001:00035cd0       ?CL_Msg_WriteInt16@@YAXF@Z 0000000140036cd0 f   cl_msg.obj
 0001:00035d30       ?CL_Msg_WriteUint16@@YAXG@Z 0000000140036d30 f   cl_msg.obj
 0001:00035d90       ?CL_Msg_WriteEntindex@@YAXH@Z 0000000140036d90 f   cl_msg.obj
 0001:00035d90       ?CL_Msg_WriteInt32@@YAXH@Z 0000000140036d90 f   cl_msg.obj
 0001:00035df0       ?CL_Msg_WriteUint32@@YAXI@Z 0000000140036df0 f   cl_msg.obj
 0001:00035e50       ?CL_Msg_WriteInt64@@YAX_J@Z 0000000140036e50 f   cl_msg.obj
 0001:00035eb0       ?CL_Msg_WriteUint64@@YAX_K@Z 0000000140036eb0 f   cl_msg.obj
 0001:00035f10       ?CL_Msg_WriteSmallFloat@@YAXM@Z 0000000140036f10 f   cl_msg.obj
 0001:00035f80       ?CL_Msg_WriteFloat@@YAXM@Z 0000000140036f80 f   cl_msg.obj
 0001:00035fe0       ?CL_Msg_WriteDouble@@YAXN@Z 0000000140036fe0 f   cl_msg.obj
 0001:00036040       ?CL_Msg_WriteBuffer@@YAXPEBEI@Z 0000000140037040 f   cl_msg.obj
 0001:000360d0       ?CL_Msg_WriteString@@YAXPEBD@Z 00000001400370d0 f   cl_msg.obj
 0001:00036210       ?resize@?$CArray@Ucl_usermsgfunction_t@@@@QEAAXI@Z 0000000140037210 f i cl_msg.obj
 0001:00036210       ?resize@?$CArray@Usv_usermsgfunction_t@@@@QEAAXI@Z 0000000140037210 f i sv_msg.obj
 0001:000363b0       ?resize@?$CArray@Udecalcache_t@@@@QEAAXI@Z 00000001400373b0 f i cl_msg.obj
 0001:000363b0       ?resize@?$CArray@Usnd_missing_t@CSoundEngine@@@@QEAAXI@Z 00000001400373b0 f i cl_snd.obj
 0001:000363b0       ?resize@?$CArray@Usv_particlecache_t@@@@QEAAXI@Z 00000001400373b0 f i sv_msg.obj
 0001:00036540       ?IsZero@Vector@@QEBA_NXZ   0000000140037540 f i cl_pmove.obj
 0001:00036570       ?getBrushmodel@cache_model_t@@QEBAPEBUbrushmodel_t@@XZ 0000000140037570 f i cl_pmove.obj
 0001:000365b0       ?CL_TestPlayerPosition@@YAHW4hull_types_t@@HAEBVVector@@@Z 00000001400375b0 f   cl_pmove.obj
 0001:00036640       ?CL_PointContents@@YAHAEBVVector@@PEAH@Z 0000000140037640 f   cl_pmove.obj
 0001:00036920       ?CL_PointContents@@YAHPEAUcl_entity_t@@AEBVVector@@@Z 0000000140037920 f   cl_pmove.obj
 0001:00036a80       ?CL_TruePointContents@@YAHAEBVVector@@@Z 0000000140037a80 f   cl_pmove.obj
 0001:00036a90       ?CL_PlayerTrace@@YAXAEBVVector@@0HW4hull_types_t@@HAEAUtrace_t@@@Z 0000000140037a90 f   cl_pmove.obj
 0001:000373f0       ?CL_TraceLine@@YAXAEBVVector@@0HW4hull_types_t@@HAEAUtrace_t@@@Z 00000001400383f0 f   cl_pmove.obj
 0001:00037400       ?CL_HullForBSP@@YAPEBUhull_t@@HW4hull_types_t@@PEAVVector@@@Z 0000000140038400 f   cl_pmove.obj
 0001:00037500       ?CL_TraceModel@@YAMHAEBVVector@@0W4hull_types_t@@HAEAUtrace_t@@@Z 0000000140038500 f   cl_pmove.obj
 0001:000375e0       ?CL_TraceTexture@@YAPEBDHAEBVVector@@0@Z 00000001400385e0 f   cl_pmove.obj
 0001:000376b0       ?CL_GetNextMissingResource@@YAPEAUcl_resource_t@@XZ 00000001400386b0 f   cl_resource.obj
 0001:00037700       ?CL_ClearDownload@@YAXXZ   0000000140038700 f   cl_resource.obj
 0001:000377a0       ?CL_ClearResources@@YAXXZ  00000001400387a0 f   cl_resource.obj
 0001:00037800       ?CL_CancelDownload@@YA_NXZ 0000000140038800 f   cl_resource.obj
 0001:00037850       ?CL_GetResourceAbsolutePath@@YA?BVCString@@PEAUcl_resource_t@@@Z 0000000140038850 f   cl_resource.obj
 0001:00037b80       ?CL_BeginResourceDownload@@YA_NPEAUcl_resource_t@@@Z 0000000140038b80 f   cl_resource.obj
 0001:00037cb0       ?CL_BeginFilesDownload@@YA_NXZ 0000000140038cb0 f   cl_resource.obj
 0001:00037de0       ?CL_ReadFileInfo@@YA_NXZ   0000000140038de0 f   cl_resource.obj
 0001:00037f70       ?CL_LoadResources@@YA_NXZ  0000000140038f70 f   cl_resource.obj
 0001:000380e0       ?CL_FinishDownloadedFile@@YA_NXZ 00000001400390e0 f   cl_resource.obj
 0001:000388d0       ?CL_ReadFileChunk@@YA_NXZ  00000001400398d0 f   cl_resource.obj
 0001:00038d30       ?CL_ReadResourceList@@YA_NXZ 0000000140039d30 f   cl_resource.obj
 0001:0003a260       ?radd@?$CLinkedList@PEAUfilechunk_t@@@@QEAAPEAUlink_t@1@PEAUfilechunk_t@@@Z 000000014003b260 f i cl_resource.obj
 0001:0003a260       ?radd@?$CLinkedList@PEAUs_msg_cache_t@CSoundEngine@@@@QEAAPEAUlink_t@1@PEAUs_msg_cache_t@CSoundEngine@@@Z 000000014003b260 f i cl_snd.obj
 0001:0003a2c0       ?reserve@?$CArray@Udecalcache_t@@@@QEAAXI@Z 000000014003b2c0 f i cl_resource.obj
 0001:0003a440       ?clear@?$CArray@Udecalcache_t@@@@QEAAXXZ 000000014003b440 f i cl_resource.obj
 0001:0003a4a0       ??0snd_oggcache_t@@QEAA@XZ 000000014003b4a0 f i cl_snd.obj
 0001:0003a4e0       ??0snd_active_t@CSoundEngine@@QEAA@XZ 000000014003b4e0 f i cl_snd.obj
 0001:0003a580       ?getSequence@studiohdr_t@@QEBAPEBUmstudioseqdesc_t@@H@Z 000000014003b580 f i cl_snd.obj
 0001:0003a5e0       ?Cmd_PlayMusic@@YAXXZ      000000014003b5e0 f   cl_snd.obj
 0001:0003a7f0       ?Cmd_StopMusic@@YAXXZ      000000014003b7f0 f   cl_snd.obj
 0001:0003a810       ?Cmd_SetHRTF@@YAXXZ        000000014003b810 f   cl_snd.obj
 0001:0003a8b0       ??0CSoundEngine@@QEAA@XZ   000000014003b8b0 f   cl_snd.obj
 0001:0003ad40       ??1CSoundEngine@@QEAA@XZ   000000014003bd40 f   cl_snd.obj
 0001:0003aeb0       ?Init@CSoundEngine@@QEAA_NXZ 000000014003beb0 f   cl_snd.obj
 0001:0003c0b0       ?Shutdown@CSoundEngine@@QEAAXXZ 000000014003d0b0 f   cl_snd.obj
 0001:0003c250       ??_GCSentencesFile@@QEAAPEAXI@Z 000000014003d250 f i cl_snd.obj
 0001:0003c2e0       ?FreeResources@CSoundEngine@@QEAAXW4rs_level_t@@_N@Z 000000014003d2e0 f   cl_snd.obj
 0001:0003c790       ??_Gsnd_cache_t@CSoundEngine@@QEAAPEAXI@Z 000000014003d790 f i cl_snd.obj
 0001:0003c7c0       ?ResetEngine@CSoundEngine@@QEAAX_N@Z 000000014003d7c0 f   cl_snd.obj
 0001:0003c8e0       ?RemovePlaying@CSoundEngine@@CAXAEAUsnd_active_t@1@@Z 000000014003d8e0 f   cl_snd.obj
 0001:0003c950       ?AllocSound@CSoundEngine@@AEAAPEAUsnd_active_t@1@PEBDHHH@Z 000000014003d950 f   cl_snd.obj
 0001:0003cba0       ?KillSound@CSoundEngine@@AEAAXAEAUsnd_active_t@1@@Z 000000014003dba0 f   cl_snd.obj
 0001:0003cdd0       ??1snd_active_t@CSoundEngine@@QEAA@XZ 000000014003ddd0 f i cl_snd.obj
 0001:0003cde0       ?ShouldPlay@CSoundEngine@@AEBA_NPEAUsnd_active_t@1@AEBVVector@@NHM@Z 000000014003dde0 f   cl_snd.obj
 0001:0003cec0       ?DrawNormal@CSoundEngine@@QEAA_NXZ 000000014003dec0 f   cl_snd.obj
 0001:0003d420       ?UpdateReverb@CSoundEngine@@AEAAXPEAUref_params_t@@@Z 000000014003e420 f   cl_snd.obj
 0001:0003d840       ?ClearCache@CSoundEngine@@AEAAXXZ 000000014003e840 f   cl_snd.obj
 0001:0003e070       ?PrecacheSound@CSoundEngine@@QEAAPEAUsnd_cache_t@1@PEBDHW4rs_level_t@@_N@Z 000000014003f070 f   cl_snd.obj
 0001:0003e630       ?LoadSoundData@CSoundEngine@@QEAA_NPEBDPEAUsnd_cache_t@1@H_N@Z 000000014003f630 f   cl_snd.obj
 0001:0003ebe0       ?PrecacheServerSound@CSoundEngine@@QEAA_NPEBDH@Z 000000014003fbe0 f   cl_snd.obj
 0001:0003f420       ?GetSoundCache@CSoundEngine@@AEAA_NPEBDHAEAPEAUsnd_cache_t@1@AEAPEBUsentence_t@CSentencesFile@@AEAVCString@@@Z 0000000140040420 f   cl_snd.obj
 0001:0003f730       ?UpdateSound@CSoundEngine@@QEAAXPEBDPEBVVector@@HHMHMPEAUcl_entity_t@@HHM@Z 0000000140040730 f   cl_snd.obj
 0001:0003fac0       ?PlaySound@CSoundEngine@@QEAAXPEBDPEBVVector@@HHMHMPEAUcl_entity_t@@HHM@Z 0000000140040ac0 f   cl_snd.obj
 0001:00040590       ?CalcGain@CSoundEngine@@AEBAMAEBVVector@@PEAUsnd_active_t@1@MM@Z 0000000140041590 f   cl_snd.obj
 0001:00040790       ?Stream@CSoundEngine@@AEAA?AW4stream_result_t@1@IAEAUsnd_music_t@1@@Z 0000000140041790 f   cl_snd.obj
 0001:00040890       ?Update@CSoundEngine@@QEAAXPEAUref_params_t@@@Z 0000000140041890 f   cl_snd.obj
 0001:00042100       ?UpdateMusicPlayback@CSoundEngine@@AEAAXPEBUref_params_t@@M@Z 0000000140043100 f   cl_snd.obj
 0001:00042350       ??_Gsnd_music_t@CSoundEngine@@QEAAPEAXI@Z 0000000140043350 f i cl_snd.obj
 0001:00042380       ?UpdateMusicTrackPlayback@CSoundEngine@@AEAA_NAEAUsnd_music_t@1@PEBUref_params_t@@M@Z 0000000140043380 f   cl_snd.obj
 0001:000428e0       ?CacheMessage@CSoundEngine@@QEAAXPEBVVector@@HHHHHMM_NM@Z 00000001400438e0 f   cl_snd.obj
 0001:00042dc0       ?PlayOgg@CSoundEngine@@QEAAXPEBDHMHM@Z 0000000140043dc0 f   cl_snd.obj
 0001:000433c0       ?StopOggFade@CSoundEngine@@QEAAXPEBDHM@Z 00000001400443c0 f   cl_snd.obj
 0001:00043590       ?StopOgg@CSoundEngine@@QEAAXH_N@Z 0000000140044590 f   cl_snd.obj
 0001:00043810       ?PrecacheOgg@CSoundEngine@@QEAAPEAUsnd_oggcache_t@@PEBDW4rs_level_t@@@Z 0000000140044810 f   cl_snd.obj
 0001:00043b20       ?ApplySoundEffect@CSoundEngine@@QEAAXHHHW4snd_effects_t@@MM@Z 0000000140044b20 f   cl_snd.obj
 0001:00043b80       ?IsSoundPlaying@CSoundEngine@@QEAA_NHHH@Z 0000000140044b80 f   cl_snd.obj
 0001:00043c30       ?ApplySoundEffect@CSoundEngine@@QEAAXHPEBDHW4snd_effects_t@@MM@Z 0000000140044c30 f   cl_snd.obj
 0001:00043fc0       ?SetPauseAllSounds@CSoundEngine@@QEAAX_N@Z 0000000140044fc0 f   cl_snd.obj
 0001:000440b0       ?Sentences_PrecacheSound@@YAHPEBD@Z 00000001400450b0 f   cl_snd.obj
 0001:00044100       ?Sentences_GetSoundDuration@@YAMPEBDI@Z 0000000140045100 f   cl_snd.obj
 0001:00044620       ??1?$CArray@Usnd_active_t@CSoundEngine@@@@QEAA@XZ 0000000140045620 f i cl_snd.obj
 0001:00044660       ??A?$CArray@Usnd_active_t@CSoundEngine@@@@QEBAAEAUsnd_active_t@CSoundEngine@@I@Z 0000000140045660 f i cl_snd.obj
 0001:000446b0       ?Normalize@Vector@@QEAAAEAV1@XZ 00000001400456b0 f i cl_tempentities.obj
 0001:00044760       ?DeleteAllTempEntities@CTempEntityManager@@AEAAXXZ 0000000140045760 f   cl_tempentities.obj
 0001:000447f0       ??1tempentity_t@@QEAA@XZ   00000001400457f0 f i cl_tempentities.obj
 0001:00044810       ?AllocateTempEntities@CTempEntityManager@@AEAAXXZ 0000000140045810 f   cl_tempentities.obj
 0001:000448c0       ?FreeTempEntity@CTempEntityManager@@AEAAXPEAUtempentity_t@@@Z 00000001400458c0 f   cl_tempentities.obj
 0001:000449d0       ??4tempentity_t@@QEAAAEAU0@$$QEAU0@@Z 00000001400459d0 f i cl_tempentities.obj
 0001:00044a70       ?AllocTempEntity@CTempEntityManager@@QEAAPEAUtempentity_t@@AEBVVector@@PEBUcache_model_t@@@Z 0000000140045a70 f   cl_tempentities.obj
 0001:00044c50       ?UpdateTempEntity@CTempEntityManager@@AEBA_NPEAUtempentity_t@@@Z 0000000140045c50 f   cl_tempentities.obj
 0001:00045630       ?PlayTempEntitySound@CTempEntityManager@@CAXPEAUtempentity_t@@M@Z 0000000140046630 f   cl_tempentities.obj
 0001:000466f0       ?CreateFunnel@CTempEntityManager@@QEAAXAEBVVector@@0MI_N@Z 00000001400476f0 f   cl_tempentities.obj
 0001:00046c70       ?CreateBreakModel@CTempEntityManager@@QEAAXAEBVVector@@00IMIIHMMH@Z 0000000140047c70 f   cl_tempentities.obj
 0001:00047640       ?CreateBubbles@CTempEntityManager@@QEAAXAEBVVector@@0MIIM@Z 0000000140048640 f   cl_tempentities.obj
 0001:00047e90       ?CreateBubbleTrail@CTempEntityManager@@QEAAXAEBVVector@@0MIIM@Z 0000000140048e90 f   cl_tempentities.obj
 0001:000486b0       ?CreateTempModel@CTempEntityManager@@QEAAPEAUtempentity_t@@AEBVVector@@00MIHMMH@Z 00000001400496b0 f   cl_tempentities.obj
 0001:00048950       ?CreateTempSprite@CTempEntityManager@@QEAAPEAUtempentity_t@@AEBVVector@@0MIHHMMHH@Z 0000000140049950 f   cl_tempentities.obj
 0001:00048b40       ?CreateSphereModel@CTempEntityManager@@QEAAXAEBVVector@@MMIIMMH@Z 0000000140049b40 f   cl_tempentities.obj
 0001:00049100       ?CL_GetEntityByIndex@@YAPEAUcl_entity_t@@H@Z 000000014004a100 f   cl_utils.obj
 0001:00049170       ?CL_GetLocalPlayer@@YAPEAUcl_entity_t@@XZ 000000014004a170 f   cl_utils.obj
 0001:00049190       ?CL_GetClientTime@@YANXZ   000000014004a190 f   cl_utils.obj
 0001:000491a0       ?CL_GetViewAngles@@YAAEBVVector@@XZ 000000014004a1a0 f   cl_utils.obj
 0001:000491b0       ?CL_SetViewAngles@@YAXAEBVVector@@@Z 000000014004a1b0 f   cl_utils.obj
 0001:000491e0       ?CL_GetMouseDelta@@YAXAEAH0@Z 000000014004a1e0 f   cl_utils.obj
 0001:00049340       ?CL_GetMoveVars@@YAPEBUmovevars_t@@XZ 000000014004a340 f   cl_utils.obj
 0001:00049350       ?CL_GetNumEntities@@YAHXZ  000000014004a350 f   cl_utils.obj
 0001:00049360       ?CL_PlayEntitySound@@YAXHHAEBVCString@@MMHHM@Z 000000014004a360 f   cl_utils.obj
 0001:00049400       ?CL_PlayMusic@@YAXAEBVCString@@HMMH@Z 000000014004a400 f   cl_utils.obj
 0001:00049430       ?CL_StopMusic@@YAXH@Z      000000014004a430 f   cl_utils.obj
 0001:00049460       ?CL_PlayAmbientSound@@YAXHAEBVVector@@HAEBVCString@@MMHHM@Z 000000014004a460 f   cl_utils.obj
 0001:000494d0       ?CL_ApplySoundEffect@@YAXHPEBDHW4snd_effects_t@@MM@Z 000000014004a4d0 f   cl_utils.obj
 0001:00049510       ?CL_GetSoundFileForServerIndex@@YAPEBDH@Z 000000014004a510 f   cl_utils.obj
 0001:00049560       ?CL_PrecacheDecal@@YAXPEBD@Z 000000014004a560 f   cl_utils.obj
 0001:000498c0       ?CL_PrecacheDecalGroup@@YAXPEBD@Z 000000014004a8c0 f   cl_utils.obj
 0001:00049c20       ?CL_PrecacheSound@@YAHPEBDW4rs_level_t@@@Z 000000014004ac20 f   cl_utils.obj
 0001:00049c70       ?CL_GetAttachment@@YA?AVVector@@HI@Z 000000014004ac70 f   cl_utils.obj
 0001:00049d30       ?CL_GetBonePosition@@YA?AVVector@@HPEBD@Z 000000014004ad30 f   cl_utils.obj
 0001:00049df0       ?CL_UILoadSchemaFile@@YAPEAUui_schemeinfo_t@@PEBD@Z 000000014004adf0 f   cl_utils.obj
 0001:00049e00       ?CL_GetMapTextureMaterial@@YAPEBUen_material_t@@PEBD@Z 000000014004ae00 f   cl_utils.obj
 0001:00049f30       ?CL_GetFrameTime@@YANXZ    000000014004af30 f   cl_utils.obj
 0001:00049f40       ?CL_GetMousePosition@@YAXAEAH0@Z 000000014004af40 f   cl_utils.obj
 0001:00049f50       ?CL_ShowMouse@@YAXXZ       000000014004af50 f   cl_utils.obj
 0001:00049f80       ?CL_HideMouse@@YAXXZ       000000014004af80 f   cl_utils.obj
 0001:00049fb0       ?CL_UpdateMousePositions@@YAXXZ 000000014004afb0 f   cl_utils.obj
 0001:00049fc0       ?CL_ResetMouse@@YAXXZ      000000014004afc0 f   cl_utils.obj
 0001:00049fd0       ?CL_SetShouldHideMouse@@YAX_N@Z 000000014004afd0 f   cl_utils.obj
 0001:00049fe0       ?CL_LeafPVS@@YAPEBEAEBUmleaf_t@@@Z 000000014004afe0 f   cl_utils.obj
 0001:0004a000       ?CL_GetSchemaFontSet@@YAPEBUfont_set_t@@PEBD@Z 000000014004b000 f   cl_utils.obj
 0001:0004a010       ?CL_GetResolutionSchemaFontSet@@YAPEBUfont_set_t@@PEBDI@Z 000000014004b010 f   cl_utils.obj
 0001:0004a020       ?Cmd_ToggleConsole@@YAXXZ  000000014004b020 f   console.obj
 0001:0004a030       ?Cmd_ClearHistory@@YAXXZ   000000014004b030 f   console.obj
 0001:0004a070       ?Cmd_CVarList@@YAXXZ       000000014004b070 f   console.obj
 0001:0004a080       ?Cmd_CmdList@@YAXXZ        000000014004b080 f   console.obj
 0001:0004a090       ?Cmd_ConDump@@YAXXZ        000000014004b090 f   console.obj
 0001:0004a0a0       ??1CConsole@@QEAA@XZ       000000014004b0a0 f   console.obj
 0001:0004a220       ?Init@CConsole@@QEAAXXZ    000000014004b220 f   console.obj
 0001:0004a4c0       ?AddTextHistory@CConsole@@QEAAXPEBD@Z 000000014004b4c0 f   console.obj
 0001:0004a830       ?HistoryStepForward@CConsole@@QEAAXXZ 000000014004b830 f   console.obj
 0001:0004a890       ?HistoryStepBack@CConsole@@QEAAXXZ 000000014004b890 f   console.obj
 0001:0004a8d0       ?Think@CConsole@@QEAAXXZ   000000014004b8d0 f   console.obj
 0001:0004ad90       ?Draw@CConsole@@QEAA_NXZ   000000014004bd90 f   console.obj
 0001:0004bd00       ?ShowConsole@CConsole@@SAXXZ 000000014004cd00 f   console.obj
 0001:0004bdb0       ?ToggleConsole@CConsole@@SAXXZ 000000014004cdb0 f   console.obj
 0001:0004bea0       ?CreateCVar@CConsole@@QEAAPEAVCCVar@@W4cvar_type_t@@HPEBD11P6AXPEAV2@@Z@Z 000000014004cea0 f   console.obj
 0001:0004c0f0       ?GetCVar@CConsole@@QEAAPEAVCCVar@@PEBD@Z 000000014004d0f0 f   console.obj
 0001:0004c1f0       ?AddInput@CConsole@@QEAAXW4input_type_t@@PEBD1@Z 000000014004d1f0 f   console.obj
 0001:0004c9f0       ?ProcessCommand@CConsole@@QEAA_NXZ 000000014004d9f0 f   console.obj
 0001:0004cf90       ?CVarSetFloatValue@CConsole@@QEAA_NPEBDM@Z 000000014004df90 f   console.obj
 0001:0004d090       ?CVarSetStringValue@CConsole@@QEAA_NPEBD0@Z 000000014004e090 f   console.obj
 0001:0004d230       ?GetBestInputChoice@CConsole@@QEAAPEBDPEBD_N@Z 000000014004e230 f   console.obj
 0001:0004d540       ?ResetTabbing@CConsole@@QEAAXXZ 000000014004e540 f   console.obj
 0001:0004d5b0       ?CmdInputList@CConsole@@QEAAXW4input_type_t@@@Z 000000014004e5b0 f   console.obj
 0001:0004ea30       ?CmdConDump@CConsole@@QEBAXXZ 000000014004fa30 f   console.obj
 0001:0004eef0       ??1?$CLinkedList@Ucon_input_t@@@@QEAA@XZ 000000014004fef0 f i console.obj
 0001:0004ef20       ?add@?$CLinkedList@Ucon_input_t@@@@QEAAPEAUlink_t@1@Ucon_input_t@@@Z 000000014004ff20 f i console.obj
 0001:0004efc0       ??1?$CLinkedList@VCString@@@@QEAA@XZ 000000014004ffc0 f i console.obj
 0001:0004eff0       ?add@?$CLinkedList@VCString@@@@QEAAPEAUlink_t@1@VCString@@@Z 000000014004fff0 f i console.obj
 0001:0004f090       ?clear@?$CLinkedList@VCString@@@@QEAAXXZ 0000000140050090 f i console.obj
 0001:0004f260       ?add@?$CLinkedList@PEAUedict_t@@@@QEAAPEAUlink_t@1@PEAUedict_t@@@Z 0000000140050260 f i sv_main.obj
 0001:0004f260       ?add@?$CLinkedList@PEAUshadowmap_t@@@@QEAAPEAUlink_t@1@PEAUshadowmap_t@@@Z 0000000140050260 f i r_dlights.obj
 0001:0004f260       ?add@?$CLinkedList@PEAVCCVar@@@@QEAAPEAUlink_t@1@PEAVCCVar@@@Z 0000000140050260 f i console.obj
 0001:0004f2c0       ??1?$CLinkedList@Udebug_print_t@CConsole@@@@QEAA@XZ 00000001400502c0 f i console.obj
 0001:0004f2f0       ?add@?$CLinkedList@Udebug_print_t@CConsole@@@@QEAAPEAUlink_t@1@Udebug_print_t@CConsole@@@Z 00000001400502f0 f i console.obj
 0001:0004f3a0       ?remove@?$CLinkedList@Udebug_print_t@CConsole@@@@QEAAXPEAUlink_t@1@@Z 00000001400503a0 f i console.obj
 0001:0004f500       ??0link_t@?$CLinkedList@Ucon_input_t@@@@QEAA@XZ 0000000140050500 f i console.obj
 0001:0004f570       ?clear@?$CLinkedList@Ucon_input_t@@@@QEAAXXZ 0000000140050570 f i console.obj
 0001:0004f750       ?remove@?$CLinkedList@VCString@@@@QEAAXPEAUlink_t@1@@Z 0000000140050750 f i console.obj
 0001:0004f8b0       ?clear@?$CLinkedList@Udebug_print_t@CConsole@@@@QEAAXXZ 00000001400508b0 f i console.obj
 0001:0004fa80       ??0exception@std@@QEAA@AEBV01@@Z 0000000140050a80 f i discordrpcsystem.obj
 0001:0004fac0       ?what@exception@std@@UEBAPEBDXZ 0000000140050ac0 f i discordrpcsystem.obj
 0001:0004fae0       ??_Ebad_alloc@std@@UEAAPEAXI@Z 0000000140050ae0 f i * CIL library *:* CIL module *
 0001:0004fae0       ??_Ebad_array_new_length@std@@UEAAPEAXI@Z 0000000140050ae0 f i * CIL library *:* CIL module *
 0001:0004fae0       ??_Ebad_cast@std@@UEAAPEAXI@Z 0000000140050ae0 f i * CIL library *:* CIL module *
 0001:0004fae0       ??_Eexception@std@@UEAAPEAXI@Z 0000000140050ae0 f i * CIL library *:* CIL module *
 0001:0004fae0       ??_Eruntime_error@std@@UEAAPEAXI@Z 0000000140050ae0 f i * CIL library *:* CIL module *
 0001:0004fae0       ??_Gbad_alloc@std@@UEAAPEAXI@Z 0000000140050ae0 f i discordrpcsystem.obj
 0001:0004fae0       ??_Gbad_array_new_length@std@@UEAAPEAXI@Z 0000000140050ae0 f i discordrpcsystem.obj
 0001:0004fae0       ??_Gbad_cast@std@@UEAAPEAXI@Z 0000000140050ae0 f i shdrchk.obj
 0001:0004fae0       ??_Gexception@std@@UEAAPEAXI@Z 0000000140050ae0 f i discordrpcsystem.obj
 0001:0004fae0       ??_Gruntime_error@std@@UEAAPEAXI@Z 0000000140050ae0 f i discordrpcsystem.obj
 0001:0004fb30       ??1bad_alloc@std@@UEAA@XZ  0000000140050b30 f i discordrpcsystem.obj
 0001:0004fb30       ??1bad_array_new_length@std@@UEAA@XZ 0000000140050b30 f i discordrpcsystem.obj
 0001:0004fb30       ??1bad_cast@std@@UEAA@XZ   0000000140050b30 f i shdrchk.obj
 0001:0004fb30       ??1failure@ios_base@std@@UEAA@XZ 0000000140050b30 f i discordrpcsystem.obj
 0001:0004fb30       ??1runtime_error@std@@UEAA@XZ 0000000140050b30 f i discordrpcsystem.obj
 0001:0004fb50       ??0bad_array_new_length@std@@QEAA@XZ 0000000140050b50 f i discordrpcsystem.obj
 0001:0004fb80       ?_Throw_bad_array_new_length@std@@YAXXZ 0000000140050b80 f i discordrpcsystem.obj
 0001:0004fb80       ?__scrt_throw_std_bad_array_new_length@@YAXXZ 0000000140050b80 f i MSVCRT:throw_bad_alloc.obj
 0001:0004fba0       ??0bad_array_new_length@std@@QEAA@AEBV01@@Z 0000000140050ba0 f i discordrpcsystem.obj
 0001:0004fbe0       ??0bad_alloc@std@@QEAA@AEBV01@@Z 0000000140050be0 f i discordrpcsystem.obj
 0001:0004fc20       ?_Xlen_string@std@@YAXXZ   0000000140050c20 f i discordrpcsystem.obj
 0001:0004fc40       ??0runtime_error@std@@QEAA@AEBV01@@Z 0000000140050c40 f i discordrpcsystem.obj
 0001:0004fc80       ?default_error_condition@error_category@std@@UEBA?AVerror_condition@2@H@Z 0000000140050c80 f i discordrpcsystem.obj
 0001:0004fc90       ?equivalent@error_category@std@@UEBA_NHAEBVerror_condition@2@@Z 0000000140050c90 f i discordrpcsystem.obj
 0001:0004fcd0       ?equivalent@error_category@std@@UEBA_NAEBVerror_code@2@H@Z 0000000140050cd0 f i discordrpcsystem.obj
 0001:0004fcf0       ?make_error_code@std@@YA?AVerror_code@1@W4io_errc@1@@Z 0000000140050cf0 f i discordrpcsystem.obj
 0001:0004fd10       ??0_System_error@std@@IEAA@Verror_code@1@AEBV?$basic_string@DU?$char_traits@D@std@@V?$allocator@D@2@@1@@Z 0000000140050d10 f i discordrpcsystem.obj
 0001:0004ff30       ??_E_System_error@std@@UEAAPEAXI@Z 0000000140050f30 f i * CIL library *:* CIL module *
 0001:0004ff30       ??_Efailure@ios_base@std@@UEAAPEAXI@Z 0000000140050f30 f i * CIL library *:* CIL module *
 0001:0004ff30       ??_Esystem_error@std@@UEAAPEAXI@Z 0000000140050f30 f i * CIL library *:* CIL module *
 0001:0004ff30       ??_G_System_error@std@@UEAAPEAXI@Z 0000000140050f30 f i discordrpcsystem.obj
 0001:0004ff30       ??_Gfailure@ios_base@std@@UEAAPEAXI@Z 0000000140050f30 f i discordrpcsystem.obj
 0001:0004ff30       ??_Gsystem_error@std@@UEAAPEAXI@Z 0000000140050f30 f i discordrpcsystem.obj
 0001:0004ff80       ??0system_error@std@@QEAA@AEBV01@@Z 0000000140050f80 f i discordrpcsystem.obj
 0001:0004ffe0       ??0_System_error@std@@QEAA@AEBV01@@Z 0000000140050fe0 f i discordrpcsystem.obj
 0001:00050030       ?name@_Iostream_error_category2@std@@UEBAPEBDXZ 0000000140051030 f i discordrpcsystem.obj
 0001:00050040       ?message@_Iostream_error_category2@std@@UEBA?AV?$basic_string@DU?$char_traits@D@std@@V?$allocator@D@2@@2@H@Z 0000000140051040 f i discordrpcsystem.obj
 0001:00050100       ??_E_Iostream_error_category2@std@@UEAAPEAXI@Z 0000000140051100 f i * CIL library *:* CIL module *
 0001:00050100       ??_G_Iostream_error_category2@std@@UEAAPEAXI@Z 0000000140051100 f i discordrpcsystem.obj
 0001:00050130       ??0failure@ios_base@std@@QEAA@PEBDAEBVerror_code@2@@Z 0000000140051130 f i discordrpcsystem.obj
 0001:00050210       ??0failure@ios_base@std@@QEAA@AEBV012@@Z 0000000140051210 f i discordrpcsystem.obj
 0001:00050270       ?handleDiscordReady@@YAXPEBUDiscordUser@@@Z 0000000140051270 f   discordrpcsystem.obj
 0001:00050280       ?updateRichPresence@@YAXPEBD@Z 0000000140051280 f   discordrpcsystem.obj
 0001:000508a0       ??1?$basic_string@DU?$char_traits@D@std@@V?$allocator@D@2@@std@@QEAA@XZ 00000001400518a0 f i discordrpcsystem.obj
 0001:00050900       ??0?$basic_string@DU?$char_traits@D@std@@V?$allocator@D@2@@std@@QEAA@AEBV01@@Z 0000000140051900 f i discordrpcsystem.obj
 0001:00050a20       ?append@?$basic_string@DU?$char_traits@D@std@@V?$allocator@D@2@@std@@QEAAAEAV12@QEBD_K@Z 0000000140051a20 f i discordrpcsystem.obj
 0001:00050aa0       ?_Xran@?$_String_val@U?$_Simple_types@D@std@@@std@@SAXXZ 0000000140051aa0 f i discordrpcsystem.obj
 0001:00050ac0       ??$?6U?$char_traits@D@std@@@std@@YAAEAV?$basic_ostream@DU?$char_traits@D@std@@@0@AEAV10@PEBD@Z 0000000140051ac0 f i discordrpcsystem.obj
 0001:00050da0       ??$_Construct@$00PEBD@?$basic_string@DU?$char_traits@D@std@@V?$allocator@D@2@@std@@AEAAXQEBD_K@Z 0000000140051da0 f i discordrpcsystem.obj
 0001:00050eb0       ??$_Reallocate_grow_by@V<lambda_65e615be2a453ca0576c979606f46740>@@PEBD_K@?$basic_string@DU?$char_traits@D@std@@V?$allocator@D@2@@std@@AEAAAEAV01@_KV<lambda_65e615be2a453ca0576c979606f46740>@@PEBD_K@Z 0000000140051eb0 f i discordrpcsystem.obj
 0001:00051040       ??1sentry@?$basic_ostream@DU?$char_traits@D@std@@@std@@QEAA@XZ 0000000140052040 f i discordrpcsystem.obj
 0001:00051080       ??0sentry@?$basic_ostream@DU?$char_traits@D@std@@@std@@QEAA@AEAV12@@Z 0000000140052080 f i discordrpcsystem.obj
 0001:00051100       ?_Pnavail@?$basic_streambuf@DU?$char_traits@D@std@@@std@@IEBA_JXZ 0000000140052100 f i discordrpcsystem.obj
 0001:00051120       ??1_Sentry_base@?$basic_istream@DU?$char_traits@D@std@@@std@@QEAA@XZ 0000000140052120 f i shdrchk.obj
 0001:00051120       ??1_Sentry_base@?$basic_ostream@DU?$char_traits@D@std@@@std@@QEAA@XZ 0000000140052120 f i discordrpcsystem.obj
 0001:00051150       ?flush@?$basic_ostream@DU?$char_traits@D@std@@@std@@QEAAAEAV12@XZ 0000000140052150 f i discordrpcsystem.obj
 0001:00051280       ?_Osfx@?$basic_ostream@DU?$char_traits@D@std@@@std@@QEAAXXZ 0000000140052280 f i discordrpcsystem.obj
 0001:00051330       ?addhash@CHashList@@QEAA_NPEBEI@Z 0000000140052330 f i edictmanager.obj
 0001:00051470       ??0edict_t@@QEAA@XZ        0000000140052470 f i edictmanager.obj
 0001:00051500       ?ClearEdicts@CEdictManager@@QEAAXXZ 0000000140052500 f   edictmanager.obj
 0001:00051580       ?LoadEntities@CEdictManager@@QEAA_NPEBD@Z 0000000140052580 f   edictmanager.obj
 0001:000527e0       ?CreatePlayerEntity@CEdictManager@@QEAAPEAUedict_t@@I@Z 00000001400537e0 f   edictmanager.obj
 0001:00052890       ?AllocEdict@CEdictManager@@QEAAPEAUedict_t@@XZ 0000000140053890 f   edictmanager.obj
 0001:00052a50       ?FreeEdict@CEdictManager@@QEAAXPEAUedict_t@@@Z 0000000140053a50 f   edictmanager.obj
 0001:00052c00       ?ClearEdict@CEdictManager@@CAXPEAUedict_t@@@Z 0000000140053c00 f   edictmanager.obj
 0001:00052ce0       ?GetEdict@CEdictManager@@QEAAPEAUedict_t@@H@Z 0000000140053ce0 f   edictmanager.obj
 0001:00052d50       ?resize@?$CArray@Uedict_t@@@@QEAAXI@Z 0000000140053d50 f i edictmanager.obj
 0001:00052fa0       ??_Eedict_t@@QEAAPEAXI@Z   0000000140053fa0 f i edictmanager.obj
 0001:00052fe0       ??1edict_t@@QEAA@XZ        0000000140053fe0 f i edictmanager.obj
 0001:00052fe0       ??1sunflare_t@CLensFlareRenderer@@QEAA@XZ 0000000140053fe0 f i r_lensflare.obj
 0001:00052ff0       ??4?$CArray@I@@QEAAXAEBV0@@Z 0000000140053ff0 f i edictmanager.obj
 0001:00053060       ?Engine_GetMaterialScript@@YAPEBUen_material_t@@PEBD@Z 0000000140054060 f   enginefuncs.obj
 0001:00053080       ?Engine_PointInLeaf@@YAPEBUmleaf_t@@AEBVVector@@@Z 0000000140054080 f   enginefuncs.obj
 0001:00053090       ?Engine_LoadModel@@YAPEBUcache_model_t@@PEBD@Z 0000000140054090 f   enginefuncs.obj
 0001:000530a0       ?Engine_GetLevelName@@YAPEBDXZ 00000001400540a0 f   enginefuncs.obj
 0001:00053100       ?Engine_GetEngineTime@@YANXZ 0000000140054100 f   enginefuncs.obj
 0001:00053110       ?Engine_CreateCVar@@YAPEAVCCVar@@W4cvar_type_t@@HPEBD11@Z 0000000140054110 f   enginefuncs.obj
 0001:00053140       ?Engine_CreateCVarCallback@@YAPEAVCCVar@@W4cvar_type_t@@HPEBD11P6AXPEAV1@@Z@Z 0000000140054140 f   enginefuncs.obj
 0001:00053170       ?Engine_GetCVarPointer@@YAPEAVCCVar@@PEBD@Z 0000000140054170 f   enginefuncs.obj
 0001:00053180       ?Engine_SetCVarFloat@@YAXPEBDM@Z 0000000140054180 f   enginefuncs.obj
 0001:00053190       ?Engine_SetCVarString@@YAXPEBD0@Z 0000000140054190 f   enginefuncs.obj
 0001:000531a0       ?Engine_CreateCommand@@YAXPEBDP6AXXZ0@Z 00000001400541a0 f   enginefuncs.obj
 0001:000531c0       ?Engine_Cmd_Argc@@YAIXZ    00000001400541c0 f   enginefuncs.obj
 0001:000531d0       ?Engine_Cmd_Argv@@YAPEBDI@Z 00000001400541d0 f   enginefuncs.obj
 0001:00053200       ?Engine_GetCvarFloatValue@@YAMPEBD@Z 0000000140054200 f   enginefuncs.obj
 0001:00053270       ?Engine_GetCvarStringValue@@YAPEBDPEBD@Z 0000000140054270 f   enginefuncs.obj
 0001:000532f0       ?Engine_GetVISBufferSize@@YAIXZ 00000001400542f0 f   enginefuncs.obj
 0001:00053300       ?FL_WriteFile@@YA_NPEBEIPEBD_N@Z 0000000140054300 f   file.obj
 0001:00053890       ?FL_WriteLogFile@@YA_NPEBEIPEBD_N@Z 0000000140054890 f   file.obj
 0001:00053a60       ?FL_WriteFileRoot@@YA_NPEBEIPEBD_N@Z 0000000140054a60 f   file.obj
 0001:00053e00       ?FL_LoadFile@@YAPEBEPEBDPEAI@Z 0000000140054e00 f   file.obj
 0001:000546a0       ?FL_LoadFileFromRoot@@YAPEBEPEBDPEAI@Z 00000001400556a0 f   file.obj
 0001:00054cf0       ??_V@YAXPEAX_K@Z           0000000140055cf0 f   MSVCRT:delete_array_size.obj
 0001:00054cf0       ?FL_FreeFile@@YAXPEBX@Z    0000000140055cf0 f   file.obj
 0001:00054d00       ?FL_FileExists@@YA_NPEBD@Z 0000000140055d00 f   file.obj
 0001:000552c0       ?FL_DeleteFile@@YA_NPEBD@Z 00000001400562c0 f   file.obj
 0001:00055730       ?FL_CreateDirectory@@YA_NPEBD@Z 0000000140056730 f   file.obj
 0001:00055ba0       ?FL_CompareFileDates@@YAHAEBUfile_dateinfo_t@@0@Z 0000000140056ba0 f   file.obj
 0001:00055c30       ?FL_GetFileDate@@YA_NPEBDAEAUfile_dateinfo_t@@@Z 0000000140056c30 f   file.obj
 0001:00056300       ?FWT_AddFile@@YA_NPEBDPEBEI_N22@Z 0000000140057300 f   filewriterthread.obj
 0001:00056650       ?FileWriterThread@@YAKPEAX@Z 0000000140057650 f   filewriterthread.obj
 0001:00056db0       ?FWT_Con_Printf@@YAXPEAUwriterthread_t@@PEBDZZ 0000000140057db0 f   filewriterthread.obj
 0001:00056ee0       ?reserve@?$CArray@VCString@@@@QEAAXI@Z 0000000140057ee0 f i filewriterthread.obj
 0001:00057100       ?radd@?$CLinkedList@VCString@@@@QEAAPEAUlink_t@1@VCString@@@Z 0000000140058100 f i filewriterthread.obj
 0001:000571a0       ??1mspritegroup_t@@QEAA@XZ 00000001400581a0 f i modelcache.obj
 0001:00057250       ??1mspriteframedesc_t@@QEAA@XZ 0000000140058250 f i modelcache.obj
 0001:000572d0       ??0cache_model_t@@QEAA@XZ  00000001400582d0 f i modelcache.obj
 0001:00057320       ?getVBMCache@cache_model_t@@QEAAPEAUvbmcache_t@@XZ 0000000140058320 f i modelcache.obj
 0001:00057360       ?Mod_DumpCacheModels@@YAXXZ 0000000140058360 f   modelcache.obj
 0001:00057410       ?ClearCache@CModelCache@@QEAAXXZ 0000000140058410 f   modelcache.obj
 0001:000575a0       ??_Gmsprite_t@@QEAAPEAXI@Z 00000001400585a0 f i modelcache.obj
 0001:00057610       ?LoadModel@CModelCache@@QEAAPEAUcache_model_t@@PEBD@Z 0000000140058610 f   modelcache.obj
 0001:000578a0       ?LoadSpriteModel@CModelCache@@AEAAPEAUcache_model_t@@PEBDPEBEI@Z 00000001400588a0 f   modelcache.obj
 0001:00057ab0       ?LoadVBMModel@CModelCache@@AEAAPEAUcache_model_t@@PEBDPEBEI@Z 0000000140058ab0 f   modelcache.obj
 0001:00058600       ?SetupBSPSubmodels@CModelCache@@AEAAXAEAUbrushmodel_t@@PEBD@Z 0000000140059600 f   modelcache.obj
 0001:000594b0       ?GetModelByIndex@CModelCache@@QEAAPEAUcache_model_t@@I@Z 000000014005a4b0 f   modelcache.obj
 0001:00059510       ?GetType@CModelCache@@QEAA?AW4cmodel_type_t@@I@Z 000000014005a510 f   modelcache.obj
 0001:00059580       ?GatherModelResources@CModelCache@@QEAAXPEBDAEAV?$CArray@Umaptexturematerial_t@@@@AEAV?$CArray@VCString@@@@2@Z 000000014005a580 f   modelcache.obj
 0001:00059b80       ?GatherMaterialResources@CModelCache@@CAXPEAUen_material_t@@AEAV?$CArray@VCString@@@@1@Z 000000014005ab80 f   modelcache.obj
 0001:00059db0       ?Cache_GetModelBounds@@YAXAEBUcache_model_t@@AEAVVector@@1@Z 000000014005adb0 f   modelcache.obj
 0001:00059e30       ?Cache_GetModelType@@YA?AW4cmodel_type_t@@AEBUcache_model_t@@@Z 000000014005ae30 f   modelcache.obj
 0001:00059e30       ?getFlags@CUIObject@@UEBAHXZ 000000014005ae30 f   uielements.obj
 0001:00059e40       ?Cache_GetModel@@YAPEBUcache_model_t@@H@Z 000000014005ae40 f   modelcache.obj
 0001:00059e50       ?Cache_GetModelFrameCount@@YA_KAEBUcache_model_t@@@Z 000000014005ae50 f   modelcache.obj
 0001:00059f30       ?Cache_GetNbModels@@YAIXZ  000000014005af30 f   modelcache.obj
 0001:00059f40       ?Cache_GetModelByName@@YAPEBUcache_model_t@@PEBD@Z 000000014005af40 f   modelcache.obj
 0001:0005a080       ?push_back@?$CArray@PEAUcache_model_t@@@@QEAAXAEBQEAUcache_model_t@@@Z 000000014005b080 f i modelcache.obj
 0001:0005a080       ?push_back@?$CArray@PEAUen_texture_t@@@@QEAAXAEBQEAUen_texture_t@@@Z 000000014005b080 f i r_main.obj
 0001:0005a080       ?push_back@?$CArray@PEAUfont_set_t@@@@QEAAXAEBQEAUfont_set_t@@@Z 000000014005b080 f i r_text.obj
 0001:0005a1b0       ??_Emspriteframedesc_t@@QEAAPEAXI@Z 000000014005b1b0 f i modelcache.obj
 0001:0005a1f0       ??0net_msgcache_t@@QEAA@II@Z 000000014005b1f0 f i networking.obj
 0001:0005a250       ??0net_client_t@@QEAA@XZ   000000014005b250 f i networking.obj
 0001:0005a2b0       ?CreateInstance@CNetworking@@SAPEAV1@_N@Z 000000014005b2b0 f   networking.obj
 0001:0005a3e0       ??_ECNetworking@@UEAAPEAXI@Z 000000014005b3e0 f i * CIL library *:* CIL module *
 0001:0005a3e0       ??_GCNetworking@@UEAAPEAXI@Z 000000014005b3e0 f i networking.obj
 0001:0005a420       ??1CNetworking@@UEAA@XZ    000000014005b420 f   networking.obj
 0001:0005a640       ?Init@CNetworking@@UEAA_NPEBD@Z 000000014005b640 f   networking.obj
 0001:0005a800       ?SVC_MessageBegin@CNetworking@@QEAAXW4msgdest_t@@IPEBUedict_t@@H@Z 000000014005b800 f   networking.obj
 0001:0005a9e0       ?SVC_MessageEnd_Local@CNetworking@@IEAA_NXZ 000000014005b9e0 f   networking.obj
 0001:0005aa70       ?SVC_ClearMessages@CNetworking@@QEAAXXZ 000000014005ba70 f   networking.obj
 0001:0005aaf0       ?CLS_MessageBegin@CNetworking@@QEAAXIH@Z 000000014005baf0 f   networking.obj
 0001:0005ac70       ?CLS_ClearMessages@CNetworking@@QEAAXI@Z 000000014005bc70 f   networking.obj
 0001:0005ad30       ?ClearCache@CNetworking@@UEAAXPEAUnet_msgcache_t@@@Z 000000014005bd30 f   networking.obj
 0001:0005ad40       ?ResetClient@CNetworking@@IEAAXAEAUnet_client_t@@@Z 000000014005bd40 f   networking.obj
 0001:0005add0       ?WriteByte@CNetworking@@QEAAXE@Z 000000014005bdd0 f   networking.obj
 0001:0005ae20       ?WriteUint16@CNetworking@@QEAAXG@Z 000000014005be20 f   networking.obj
 0001:0005ae70       ?WriteInt32@CNetworking@@QEAAXH@Z 000000014005be70 f   networking.obj
 0001:0005ae70       ?WriteUint32@CNetworking@@QEAAXI@Z 000000014005be70 f   networking.obj
 0001:0005aec0       ?WriteUint64@CNetworking@@QEAAX_K@Z 000000014005bec0 f   networking.obj
 0001:0005af10       ?WriteSmallFloat@CNetworking@@QEAAXM@Z 000000014005bf10 f   networking.obj
 0001:0005af80       ?WriteFloat@CNetworking@@QEAAXM@Z 000000014005bf80 f   networking.obj
 0001:0005afd0       ?WriteBuffer@CNetworking@@QEAAXPEBEI@Z 000000014005bfd0 f   networking.obj
 0001:0005b050       ?WriteString@CNetworking@@QEAAXPEBD@Z 000000014005c050 f   networking.obj
 0001:0005b1d0       ?CheckBuffer@CNetworking@@KAXAEAUnet_msg_t@@I@Z 000000014005c1d0 f   networking.obj
 0001:0005b2b0       ?GetIPAddress@CNetworking@@QEAA?AVCString@@I@Z 000000014005c2b0 f   networking.obj
 0001:0005b440       ?GetInfoString@CNetworking@@QEAAPEBDI@Z 000000014005c440 f   networking.obj
 0001:0005b4b0       ?GetClientState@CNetworking@@QEAA?AW4netcl_state_t@@I@Z 000000014005c4b0 f   networking.obj
 0001:0005b520       ?Poll@CNetworking@@UEAAXXZ 000000014005c520 f   networking.obj
 0001:0005b590       ?resize@?$CArray@Unet_msg_t@@@@QEAAXI@Z 000000014005c590 f i networking.obj
 0001:0005b700       ??1?$CArray@Unet_client_t@@@@QEAA@XZ 000000014005c700 f i networking.obj
 0001:0005b750       ?resize@?$CArray@Unet_client_t@@@@QEAAXI@Z 000000014005c750 f i networking.obj
 0001:0005b940       ??_Enet_client_t@@QEAAPEAXI@Z 000000014005c940 f i networking.obj
 0001:0005b980       ??1net_client_t@@QEAA@XZ   000000014005c980 f i networking.obj
 0001:0005b990       ??_ECMPNetworking@@UEAAPEAXI@Z 000000014005c990 f i * CIL library *:* CIL module *
 0001:0005b990       ??_GCMPNetworking@@UEAAPEAXI@Z 000000014005c990 f i net_mp.obj
 0001:0005ba50       ?Init@CMPNetworking@@UEAA_NPEBD@Z 000000014005ca50 f   net_mp.obj
 0001:0005bbb0       ?InitClientNetworking@CMPNetworking@@AEAA_NIPEBD@Z 000000014005cbb0 f   net_mp.obj
 0001:0005bd30       ?AttemptConnection@CMPNetworking@@UEAA_NXZ 000000014005cd30 f   net_mp.obj
 0001:0005bee0       ?Poll@CMPNetworking@@UEAAXXZ 000000014005cee0 f   net_mp.obj
 0001:0005bf60       ?Disconnect@CMPNetworking@@UEAAXI@Z 000000014005cf60 f   net_mp.obj
 0001:0005bfe0       ?ConnectionLost@CMPNetworking@@AEAAXI@Z 000000014005cfe0 f   net_mp.obj
 0001:0005c070       ?Poll_Host@CMPNetworking@@EEAAXXZ 000000014005d070 f   net_mp.obj
 0001:0005c2a0       ?Poll_Client@CMPNetworking@@EEAAXXZ 000000014005d2a0 f   net_mp.obj
 0001:0005c450       ?ClientConnect@CMPNetworking@@UEAAXPEAU_ENetEvent@@@Z 000000014005d450 f   net_mp.obj
 0001:0005c600       ?RejectClient@CMPNetworking@@EEAAXPEAU_ENetPeer@@PEBD@Z 000000014005d600 f   net_mp.obj
 0001:0005c720       ?SendUDPMessage@CMPNetworking@@AEAA_NW4msgdest_t@@PEAEIPEAU_ENetPeer@@@Z 000000014005d720 f   net_mp.obj
 0001:0005c7a0       ?ReadUDPMessage@CMPNetworking@@AEAAXPEAUnet_msgcache_t@@PEAU_ENetEvent@@@Z 000000014005d7a0 f   net_mp.obj
 0001:0005c8a0       ?CLS_GetWriteCache@CMPNetworking@@UEAAPEAUnet_msgcache_t@@XZ 000000014005d8a0 f   net_mp.obj
 0001:0005c8c0       ?SVC_MessageEnd@CMPNetworking@@UEAAXXZ 000000014005d8c0 f   net_mp.obj
 0001:0005ca90       ?SVC_GetWriteCache@CMPNetworking@@UEAAPEAUnet_msgcache_t@@I@Z 000000014005da90 f   net_mp.obj
 0001:0005cae0       ?CLS_MessageEnd@CMPNetworking@@UEAAXXZ 000000014005dae0 f   net_mp.obj
 0001:0005cbc0       ?Disconnect@CSPNetworking@@UEAAXI@Z 000000014005dbc0 f i net_sp.obj
 0001:0005cbc0       ?PerformAction@CUIBindsRowEvent@@UEAAXM@Z 000000014005dbc0 f i uisettingswindow.obj
 0001:0005cbc0       ?PerformAction@CUIConsoleKeyEventCallback@@UEAAXM@Z 000000014005dbc0 f i uiconsolewindow.obj
 0001:0005cbc0       ?PerformAction@CUIDropDownRowClickEvent@CUIDropDownList@@UEAAXM@Z 000000014005dbc0 f i uielements.obj
 0001:0005cbc0       ?PerformAction@CUISaveLoadWindowRowEvent@@UEAAXM@Z 000000014005dbc0 f i uisaveloadwindow.obj
 0001:0005cbc0       ?_Lock@?$basic_streambuf@DU?$char_traits@D@std@@@std@@UEAAXXZ 000000014005dbc0 f i shdrchk.obj
 0001:0005cbc0       ?_Unlock@?$basic_streambuf@DU?$char_traits@D@std@@@std@@UEAAXXZ 000000014005dbc0 f i shdrchk.obj
 0001:0005cbc0       ?imbue@?$basic_streambuf@DU?$char_traits@D@std@@@std@@MEAAXAEBVlocale@2@@Z 000000014005dbc0 f i shdrchk.obj
 0001:0005cbc0       ?onGLInitialization@CUIWindow@@UEAAXXZ 000000014005dbc0 f i uielements.obj
 0001:0005cbc0       ?setDisabled@CUIObject@@UEAAX_N@Z 000000014005dbc0 f i uielements.obj
 0001:0005cbc0       ?setOffsetValue@CUIObject@@UEAAXM@Z 000000014005dbc0 f i uielements.obj
 0001:0005cbc0       ?updateRangeSize@CUIObject@@UEAAXXZ 000000014005dbc0 f i uielements.obj
 0001:0005cbc0       _guard_check_icall_nop     000000014005dbc0 f i MSVCRT:guard_support.obj
 0001:0005cbc0       _initialize_denormal_control 000000014005dbc0 f i MSVCRT:denormal_control.obj
 0001:0005cbc0       _initialize_invalid_parameter_handler 000000014005dbc0 f i MSVCRT:invalid_parameter_handler.obj
 0001:0005cbd0       ?AttemptConnection@CSPNetworking@@UEAA_NXZ 000000014005dbd0 f i net_sp.obj
 0001:0005cbd0       ?considerElementOnResize@CUIObject@@UEAA_NPEAV1@@Z 000000014005dbd0 f i uielements.obj
 0001:0005cbd0       ?do_always_noconv@?$codecvt@DDU_Mbstatet@@@std@@MEBA_NXZ 000000014005dbd0 f i shdrchk.obj
 0001:0005cbd0       ?initBottomElements@CUITabLabel@@UEAA_NXZ 000000014005dbd0 f i uielements.obj
 0001:0005cbd0       ?isInteractive@CUIButton@@UEAA_NXZ 000000014005dbd0 f i uielements.obj
 0001:0005cbd0       ?isInteractive@CUIDragger@@UEAA_NXZ 000000014005dbd0 f i uielements.obj
 0001:0005cbd0       ?isInteractive@CUIDropDownList@@UEAA_NXZ 000000014005dbd0 f i uielements.obj
 0001:0005cbd0       ?isInteractive@CUIInteractiveObject@@UEAA_NXZ 000000014005dbd0 f i uielements.obj
 0001:0005cbd0       ?isInteractive@CUIListRow@@UEAA_NXZ 000000014005dbd0 f i uielements.obj
 0001:0005cbd0       ?isInteractive@CUIListSeparator@@UEAA_NXZ 000000014005dbd0 f i uielements.obj
 0001:0005cbd0       ?isInteractive@CUIScrollableSurface@@UEAA_NXZ 000000014005dbd0 f i uielements.obj
 0001:0005cbd0       ?isInteractive@CUIScroller@@UEAA_NXZ 000000014005dbd0 f i uielements.obj
 0001:0005cbd0       ?isInteractive@CUISlider@@UEAA_NXZ 000000014005dbd0 f i uielements.obj
 0001:0005cbd0       ?isInteractive@CUITabBody@@UEAA_NXZ 000000014005dbd0 f i uielements.obj
 0001:0005cbd0       ?isInteractive@CUITabList@@UEAA_NXZ 000000014005dbd0 f i uielements.obj
 0001:0005cbd0       ?isInteractive@CUITextTab@@UEAA_NXZ 000000014005dbd0 f i uielements.obj
 0001:0005cbd0       ?isResizable@CUIDragger@@UEAA_NXZ 000000014005dbd0 f i uielements.obj
 0001:0005cbd0       ?isResizable@CUIScrollableSurface@@UEAA_NXZ 000000014005dbd0 f i uielements.obj
 0001:0005cbd0       ?isResizable@CUIScroller@@UEAA_NXZ 000000014005dbd0 f i uielements.obj
 0001:0005cbd0       ?isResizable@CUISurface@@UEAA_NXZ 000000014005dbd0 f i uielements.obj
 0001:0005cbd0       ?isWindow@CUIWindow@@UEAA_NXZ 000000014005dbd0 f i uielements.obj
 0001:0005cbd0       __acrt_initialize          000000014005dbd0 f i MSVCRT:ucrt_stubs.obj
 0001:0005cbd0       __acrt_uninitialize        000000014005dbd0 f i MSVCRT:ucrt_stubs.obj
 0001:0005cbd0       __scrt_stub_for_acrt_initialize 000000014005dbd0 f i MSVCRT:ucrt_stubs.obj
 0001:0005cbd0       __scrt_stub_for_acrt_uninitialize 000000014005dbd0 f i MSVCRT:ucrt_stubs.obj
 0001:0005cbd0       __vcrt_initialize          000000014005dbd0 f i MSVCRT:ucrt_stubs.obj
 0001:0005cbd0       __vcrt_uninitialize        000000014005dbd0 f i MSVCRT:ucrt_stubs.obj
 0001:0005cbd0       _should_initialize_environment 000000014005dbd0 f i MSVCRT:env_mode.obj
 0001:0005cbe0       ??_ECSPNetworking@@UEAAPEAXI@Z 000000014005dbe0 f i * CIL library *:* CIL module *
 0001:0005cbe0       ??_GCSPNetworking@@UEAAPEAXI@Z 000000014005dbe0 f i net_sp.obj
 0001:0005cc20       ?Init@CSPNetworking@@UEAA_NPEBD@Z 000000014005dc20 f   net_sp.obj
 0001:0005cc40       ?CLS_GetWriteCache@CSPNetworking@@UEAAPEAUnet_msgcache_t@@XZ 000000014005dc40 f   net_sp.obj
 0001:0005cc50       ?SVC_MessageEnd@CSPNetworking@@UEAAXXZ 000000014005dc50 f   net_sp.obj
 0001:0005cc60       ?SVC_GetWriteCache@CSPNetworking@@UEAAPEAUnet_msgcache_t@@I@Z 000000014005dc60 f   net_sp.obj
 0001:0005ccb0       ?CLS_MessageEnd@CSPNetworking@@UEAAXXZ 000000014005dcb0 f   net_sp.obj
 0001:0005cd00       ?PBSPV1_Load@@YAPEAUbrushmodel_t@@PEBEPEBUdpbspv1header_t@@PEBD@Z 000000014005dd00 f   pbspv1.obj
 0001:0005d3f0       ?PBSPV1_LoadVertexes@@YA_NPEBEAEAUbrushmodel_t@@AEBUlump_t@@@Z 000000014005e3f0 f   pbspv1.obj
 0001:0005d5c0       ?PBSPV1_LoadTextures@@YA_NPEBEAEAUbrushmodel_t@@AEBUlump_t@@@Z 000000014005e5c0 f   pbspv1.obj
 0001:0005de20       ?PBSPV1_LoadPlanes@@YA_NPEBEAEAUbrushmodel_t@@AEBUlump_t@@@Z 000000014005ee20 f   pbspv1.obj
 0001:0005e180       ?PBSPV1_LoadFaces@@YA_NPEBEAEAUbrushmodel_t@@AEBUlump_t@@@Z 000000014005f180 f   pbspv1.obj
 0001:0005e470       ?PBSPV1_LoadLeafs@@YA_NPEBEAEAUbrushmodel_t@@AEBUlump_t@@@Z 000000014005f470 f   pbspv1.obj
 0001:0005e7b0       ?PBSPV1_LoadNodes@@YA_NPEBEAEAUbrushmodel_t@@AEBUlump_t@@@Z 000000014005f7b0 f   pbspv1.obj
 0001:0005eb70       ?PBSPV1_LoadClipnodes@@YA_NPEBEAEAUbrushmodel_t@@AEBUlump_t@@@Z 000000014005fb70 f   pbspv1.obj
 0001:0005eda0       ?PBSPV1_LoadSubmodels@@YA_NPEBEAEAUbrushmodel_t@@AEBUlump_t@@@Z 000000014005fda0 f   pbspv1.obj
 0001:0005ef40       ?PBSPV1_CalcSurfaceExtents@@YA_NPEAUmsurface_t@@AEAUbrushmodel_t@@@Z 000000014005ff40 f   pbspv1.obj
 0001:0005f350       ?PNG_Load@@YA_NPEBDAEAPEAEAEAI222P6AX0ZZ@Z 0000000140060350 f   png.obj
 0001:0005f5c0       ?Init@CBeamRenderer@@QEAA_NXZ 00000001400605c0 f   r_beams.obj
 0001:0005f780       ?Shutdown@CBeamRenderer@@QEAAXXZ 0000000140060780 f   r_beams.obj
 0001:0005f810       ??1beam_t@@QEAA@XZ         0000000140060810 f i r_beams.obj
 0001:0005f830       ?FreeActiveBeams@CBeamRenderer@@AEAAXXZ 0000000140060830 f   r_beams.obj
 0001:0005fa10       ?AllocateBeams@CBeamRenderer@@AEAAXXZ 0000000140060a10 f   r_beams.obj
 0001:0005fb20       ?FreeBeam@CBeamRenderer@@AEAAXPEAUbeam_t@@@Z 0000000140060b20 f   r_beams.obj
 0001:0005fcc0       ??4beam_t@@QEAAAEAU0@$$QEAU0@@Z 0000000140060cc0 f i r_beams.obj
 0001:0005ff50       ?AllocBeam@CBeamRenderer@@AEAAPEAUbeam_t@@XZ 0000000140060f50 f   r_beams.obj
 0001:00060070       ?AllocateBeamPositions@CBeamRenderer@@AEAAXXZ 0000000140061070 f   r_beams.obj
 0001:000600f0       ?AllocBeamPosition@CBeamRenderer@@AEAAPEAUbeam_position_t@@PEAUbeam_t@@@Z 00000001400610f0 f   r_beams.obj
 0001:00060170       ?CullBeam@CBeamRenderer@@AEAA_NAEBVVector@@0_N@Z 0000000140061170 f   r_beams.obj
 0001:000604a0       ?DrawBeams@CBeamRenderer@@QEAA_NXZ 00000001400614a0 f   r_beams.obj
 0001:00060ca0       ?DrawBeamSegments@CBeamRenderer@@AEAAXAEBVVector@@0MMMMMIHH@Z 0000000140061ca0 f   r_beams.obj
 0001:00061790       ?DrawBeamTesla@CBeamRenderer@@AEAAXAEBVVector@@0MMMMMMIHH@Z 0000000140062790 f   r_beams.obj
 0001:00062610       ?DrawBeamTorus@CBeamRenderer@@AEAAXAEBVVector@@0MMMMMIHH@Z 0000000140063610 f   r_beams.obj
 0001:00062df0       ?DrawBeamDisk@CBeamRenderer@@AEAAXAEBVVector@@0MMMMMI@Z 0000000140063df0 f   r_beams.obj
 0001:00063330       ?DrawBeamCylinder@CBeamRenderer@@AEAAXAEBVVector@@0MMMMMI@Z 0000000140064330 f   r_beams.obj
 0001:000638d0       ?DrawBeamRing@CBeamRenderer@@AEAAXAEBVVector@@0MMMMMIHH@Z 00000001400648d0 f   r_beams.obj
 0001:000642f0       ?BindSprite@CBeamRenderer@@AEAAXPEAUcache_model_t@@PEAUbeam_t@@@Z 00000001400652f0 f   r_beams.obj
 0001:00064390       ?DrawBeam@CBeamRenderer@@AEAAXPEAUbeam_t@@@Z 0000000140065390 f   r_beams.obj
 0001:00064af0       ?DrawBeamFollow@CBeamRenderer@@AEAAXPEAUbeam_t@@@Z 0000000140065af0 f   r_beams.obj
 0001:00065410       ?DrawBeamVaporTrail@CBeamRenderer@@AEAAXPEAUbeam_t@@M@Z 0000000140066410 f   r_beams.obj
 0001:00065d40       ?DrawVaporTrailSegments@CBeamRenderer@@AEAAXAEBV?$CArray@Ubeamsegment_t@@@@VVector@@M_NM@Z 0000000140066d40 f   r_beams.obj
 0001:00066540       ?KillEntityBeams@CBeamRenderer@@QEAAXH@Z 0000000140067540 f   r_beams.obj
 0001:00066760       ?BeamSetup@CBeamRenderer@@AEAA_NPEAUbeam_t@@AEBVVector@@1HMMMMMMH@Z 0000000140067760 f   r_beams.obj
 0001:000669d0       ?BeamLightning@CBeamRenderer@@QEAAPEAUbeam_t@@AEBVVector@@0HMMMMMMH@Z 00000001400679d0 f   r_beams.obj
 0001:00066ab0       ?BeamCirclePoints@CBeamRenderer@@QEAAPEAUbeam_t@@W4beam_types_t@@AEBVVector@@1HMMMMMMIMMMMH@Z 0000000140067ab0 f   r_beams.obj
 0001:00066bd0       ?BeamEntityPoint@CBeamRenderer@@QEAAPEAUbeam_t@@HHAEBVVector@@HMMMMMMIMMMMH@Z 0000000140067bd0 f   r_beams.obj
 0001:00066d50       ?BeamEntities@CBeamRenderer@@QEAAPEAUbeam_t@@HHHHHMMMMMMIMMMMH@Z 0000000140067d50 f   r_beams.obj
 0001:00066f30       ?BeamFollow@CBeamRenderer@@QEAAPEAUbeam_t@@HHHMMMMMM@Z 0000000140067f30 f   r_beams.obj
 0001:00067060       ?BeamVaporTrail@CBeamRenderer@@QEAAPEAUbeam_t@@AEBVVector@@0HHMMMMMMMMMMMH@Z 0000000140068060 f   r_beams.obj
 0001:00067550       ?BeamPoints@CBeamRenderer@@QEAAPEAUbeam_t@@AEBVVector@@0HMMMMMMIMMMMH@Z 0000000140068550 f   r_beams.obj
 0001:000676a0       ?BeamRing@CBeamRenderer@@QEAAPEAUbeam_t@@HHHHHMMMMMMIMMMMH@Z 00000001400686a0 f   r_beams.obj
 0001:00067880       ?ApplySegmentNoise@CBeamRenderer@@AEAAXAEAVVector@@IIMIAEBV2@1H@Z 0000000140068880 f   r_beams.obj
 0001:00067ac0       ?resize@?$CArray@Ubeamsegment_t@@@@QEAAXI@Z 0000000140068ac0 f i r_beams.obj
 0001:00067e40       ?Init@CBlackHoleRenderer@@QEAA_NXZ 0000000140068e40 f   r_blackhole.obj
 0001:00068160       ?InitGL@CBlackHoleRenderer@@QEAA_NXZ 0000000140069160 f   r_blackhole.obj
 0001:000684f0       ?ClearGL@CBlackHoleRenderer@@QEAAXXZ 00000001400694f0 f   r_blackhole.obj
 0001:00068570       ?AffectObject@CBlackHoleRenderer@@QEAA_NAEBVVector@@AEAV2@M@Z 0000000140069570 f   r_blackhole.obj
 0001:00068b10       ?GetBlackHoleScale@CBlackHoleRenderer@@QEBAMAEBUblackhole_t@1@@Z 0000000140069b10 f   r_blackhole.obj
 0001:00068bd0       ?DrawBlackHoles@CBlackHoleRenderer@@QEAA_NXZ 0000000140069bd0 f   r_blackhole.obj
 0001:0006a380       ?remove@?$CLinkedList@Ublackhole_t@CBlackHoleRenderer@@@@QEAAXPEAUlink_t@1@@Z 000000014006b380 f i r_blackhole.obj
 0001:0006a4e0       ?clear@?$CLinkedList@Ublackhole_t@CBlackHoleRenderer@@@@QEAAXXZ 000000014006b4e0 f i r_blackhole.obj
 0001:0006a6a0       ??0cable_object_t@@QEAA@XZ 000000014006b6a0 f i r_cables.obj
 0001:0006a6e0       ?InitGL@CCableRenderer@@QEAA_NXZ 000000014006b6e0 f   r_cables.obj
 0001:0006ab60       ?ClearGame@CCableRenderer@@QEAAXXZ 000000014006bb60 f   r_cables.obj
 0001:0006ac20       ?DrawCables@CCableRenderer@@QEAA_NXZ 000000014006bc20 f   r_cables.obj
 0001:0006b270       ?InitCableVBOData@CCableRenderer@@AEAAXAEAUcable_object_t@@@Z 000000014006c270 f   r_cables.obj
 0001:0006bb80       ?AddCable@CCableRenderer@@QEAAXAEBVVector@@0III@Z 000000014006cb80 f   r_cables.obj
 0001:0006c520       ??1cable_object_t@@QEAA@XZ 000000014006d520 f i r_cables.obj
 0001:0006c530       ??_Ecable_object_t@@QEAAPEAXI@Z 000000014006d530 f i r_cables.obj
 0001:0006c570       ?resize@?$CArray@Ucable_object_t@@@@QEAAXI@Z 000000014006d570 f i r_cables.obj
 0001:0006c780       ?addpointer@CBuffer@@QEAAXPEAPEAX@Z 000000014006d780 f i r_cubemaps.obj
 0001:0006c910       ?Cmd_BuildCubemaps@@YAXXZ  000000014006d910 f   r_cubemaps.obj
 0001:0006ca60       ?InitGame@CCubemapManager@@QEAA_NXZ 000000014006da60 f   r_cubemaps.obj
 0001:0006d440       ?Cleanup@CCubemapManager@@AEAAX_N@Z 000000014006e440 f   r_cubemaps.obj
 0001:0006d570       ?BuildCubemapList@CCubemapManager@@AEAAXPEBUentitydata_t@@I@Z 000000014006e570 f   r_cubemaps.obj
 0001:0006d960       ?BuildEntityList@CCubemapManager@@AEAAXPEAPEAUcl_entity_t@@PEAIPEBUentitydata_t@@I@Z 000000014006e960 f   r_cubemaps.obj
 0001:0006dee0       ?SaveCubemapFile@CCubemapManager@@AEAAXXZ 000000014006eee0 f   r_cubemaps.obj
 0001:0006e7f0       ?RenderCubemaps@CCubemapManager@@AEAA_NPEAUcl_entity_t@@I@Z 000000014006f7f0 f   r_cubemaps.obj
 0001:0006fb90       ?resize@?$CArray@Ucubemapinfo_t@@@@QEAAXI@Z 0000000140070b90 f i r_cubemaps.obj
 0001:0006fee0       ?Init@CDecalManager@@QEAAXXZ 0000000140070ee0 f   r_decals.obj
 0001:000700b0       ?InitGame@CDecalManager@@QEAA_NXZ 00000001400710b0 f   r_decals.obj
 0001:00070460       ?DrawBogusDecals@CDecalManager@@QEAA_NXZ 0000000140071460 f   r_decals.obj
 0001:00070a40       ?FindLeaf@CDecalManager@@CAXPEAUcached_decal_t@@@Z 0000000140071a40 f   r_decals.obj
 0001:00070cd0       ?AddCached@CDecalManager@@QEAAXPEAUdecalgroupentry_t@@PEBDAEBVVector@@2HHMMM@Z 0000000140071cd0 f   r_decals.obj
 0001:00071150       ?CreateCached@CDecalManager@@QEAAXXZ 0000000140072150 f   r_decals.obj
 0001:00071ad0       ?LoadTexture@CDecalManager@@SAXPEAUdecalgroupentry_t@@@Z 0000000140072ad0 f   r_decals.obj
 0001:00071cd0       ?SendDecalToServer@CDecalManager@@AEAAXAEAUcached_decal_t@@@Z 0000000140072cd0 f   r_decals.obj
 0001:00072210       ?FindIntersectionPoint@@YAXAEBVVector@@000AEAV1@@Z 0000000140073210 f   r_decals.obj
 0001:00072300       ?Decal_ClipPolygon@@YAIPEBVVector@@HAEBV1@1PEAV1@@Z 0000000140073300 f   r_decals.obj
 0001:00072a00       ??1?$CLinkedList@Ucached_decal_t@@@@QEAA@XZ 0000000140073a00 f i r_decals.obj
 0001:00072a30       ?remove@?$CLinkedList@Ucached_decal_t@@@@QEAAXPEAUlink_t@1@@Z 0000000140073a30 f i r_decals.obj
 0001:00072b90       ?clear@?$CLinkedList@Ucached_decal_t@@@@QEAAXXZ 0000000140073b90 f i r_decals.obj
 0001:00072d60       ??1?$CLinkedList@VVector@@@@QEAA@XZ 0000000140073d60 f i r_decals.obj
 0001:00072d90       ?add@?$CLinkedList@VVector@@@@QEAAPEAUlink_t@1@VVector@@@Z 0000000140073d90 f i r_decals.obj
 0001:00072e10       ?clear@?$CLinkedList@Uactive_load_shader_t@@@@QEAAXXZ 0000000140073e10 f i r_main.obj
 0001:00072e10       ?clear@?$CLinkedList@VVector@@@@QEAAXXZ 0000000140073e10 f i r_decals.obj
 0001:00072fd0       ??0lightstyle_t@CDynamicLightManager@@QEAA@XZ 0000000140073fd0 f i r_dlights.obj
 0001:00072ff0       ?Init@CDynamicLightManager@@QEAA_NXZ 0000000140073ff0 f   r_dlights.obj
 0001:00073570       ?InitGL@CDynamicLightManager@@QEAA_NXZ 0000000140074570 f   r_dlights.obj
 0001:00073b30       ?ClearGL@CDynamicLightManager@@QEAAXXZ 0000000140074b30 f   r_dlights.obj
 0001:00073ca0       ?AddLightStyle@CDynamicLightManager@@AEAAXIH_NPEBD@Z 0000000140074ca0 f   r_dlights.obj
 0001:00073e00       ?AnimateStyles@CDynamicLightManager@@AEAAXXZ 0000000140074e00 f   r_dlights.obj
 0001:00074000       ?ApplyLightStyle@CDynamicLightManager@@QEAAXPEAUcl_dlight_t@@AEAVVector@@@Z 0000000140075000 f   r_dlights.obj
 0001:00074080       ?CheckFBOs@CDynamicLightManager@@AEAA_NXZ 0000000140075080 f   r_dlights.obj
 0001:00074400       ?InitFBOs@CDynamicLightManager@@AEAA_NXZ 0000000140075400 f   r_dlights.obj
 0001:000749a0       ?AllocProjectiveShadowMap@CDynamicLightManager@@AEAAPEAUshadowmap_t@@_N@Z 00000001400759a0 f   r_dlights.obj
 0001:00074c20       ?CreateCubemapFBO@CDynamicLightManager@@AEAA_NAEAUshadowmap_t@@@Z 0000000140075c20 f   r_dlights.obj
 0001:00074e20       ?CreateShadowmapBlitFBOs@CDynamicLightManager@@AEAA_NAEAUshadowmap_t@@II@Z 0000000140075e20 f   r_dlights.obj
 0001:00075160       ?ReleaseShadowmapBlitFBOs@CDynamicLightManager@@AEAAXAEAUshadowmap_t@@@Z 0000000140076160 f   r_dlights.obj
 0001:00075230       ?DeleteFBOs@CDynamicLightManager@@AEAAXXZ 0000000140076230 f   r_dlights.obj
 0001:000752d0       ?ClearShadowMaps@CDynamicLightManager@@AEAAXXZ 00000001400762d0 f   r_dlights.obj
 0001:00075670       ?SetVIS@CDynamicLightManager@@QEAAXXZ 0000000140076670 f   r_dlights.obj
 0001:00075860       ?UpdateLights@CDynamicLightManager@@AEAAXXZ 0000000140076860 f   r_dlights.obj
 0001:00076060       ??_Gdlight_sceneinfo_t@@QEAAPEAXI@Z 0000000140077060 f i r_dlights.obj
 0001:00076090       ?DrawPasses@CDynamicLightManager@@QEAA_NXZ 0000000140077090 f   r_dlights.obj
 0001:000769d0       ?DrawShadowMapPasses@CDynamicLightManager@@AEAA_NPEAUcl_dlight_t@@PEAPEAUcl_entity_t@@H_N@Z 00000001400779d0 f   r_dlights.obj
 0001:00076bd0       ?DrawProjectivePass@CDynamicLightManager@@AEAA_NPEAUcl_dlight_t@@PEAPEAUcl_entity_t@@H_N@Z 0000000140077bd0 f   r_dlights.obj
 0001:00077910       ?DrawCubemapPass@CDynamicLightManager@@AEAA_NPEAUcl_dlight_t@@VVector@@HPEAPEAUcl_entity_t@@H_N@Z 0000000140078910 f   r_dlights.obj
 0001:000785d0       ?Update@CDynamicLightManager@@QEAA_NXZ 00000001400795d0 f   r_dlights.obj
 0001:00078970       ?ClearGame@CDynamicLightManager@@QEAAXXZ 0000000140079970 f   r_dlights.obj
 0001:00078ae0       ?SetupLight@CDynamicLightManager@@AEAAXPEAUcl_dlight_t@@_N11PEAUcl_entity_t@@@Z 0000000140079ae0 f   r_dlights.obj
 0001:00078d40       ?AllocDynamicSpotlight@CDynamicLightManager@@QEAAPEAUcl_dlight_t@@HH_N0PEAUcl_entity_t@@@Z 0000000140079d40 f   r_dlights.obj
 0001:000790c0       ?AllocDynamicPointLight@CDynamicLightManager@@QEAAPEAUcl_dlight_t@@HH_N0PEAUcl_entity_t@@@Z 000000014007a0c0 f   r_dlights.obj
 0001:00079450       ?ShouldRedrawShadowMap@CDynamicLightManager@@CA_NPEAUcl_dlight_t@@PEAUdlight_sceneinfo_t@@_N@Z 000000014007a450 f   r_dlights.obj
 0001:0007a010       ?ReleaseEntityDynamicLights@CDynamicLightManager@@QEAAXH@Z 000000014007b010 f   r_dlights.obj
 0001:0007a2e0       ?DL_CanShadow@@YA_NPEBUcl_dlight_t@@@Z 000000014007b2e0 f   r_dlights.obj
 0001:0007a350       ?R_CheckShadowmapSizeCvarCallBack@@YAXPEAVCCVar@@@Z 000000014007b350 f   r_dlights.obj
 0001:0007a3e0       ?resize@?$CArray@D@@QEAAXI@Z 000000014007b3e0 f i r_dlights.obj
 0001:0007a4e0       ?resize@?$CArray@Ulightstyle_t@CDynamicLightManager@@@@QEAAXI@Z 000000014007b4e0 f i r_dlights.obj
 0001:0007a700       ??A?$CArray@Uadv_choice_t@CUISettingsWindow@@@@QEBAAEAUadv_choice_t@CUISettingsWindow@@I@Z 000000014007b700 f i uisettingswindow.obj
 0001:0007a700       ??A?$CArray@Ulightstyle_t@CDynamicLightManager@@@@QEBAAEAUlightstyle_t@CDynamicLightManager@@I@Z 000000014007b700 f i r_dlights.obj
 0001:0007a750       ?Init@CGlowAura@@QEAA_NXZ  000000014007b750 f   r_glowaura.obj
 0001:0007a950       ?InitGL@CGlowAura@@QEAA_NXZ 000000014007b950 f   r_glowaura.obj
 0001:0007ae90       ?ClearGL@CGlowAura@@QEAAXXZ 000000014007be90 f   r_glowaura.obj
 0001:0007af20       ?DrawColors@CGlowAura@@AEAA_NXZ 000000014007bf20 f   r_glowaura.obj
 0001:0007b210       ?BlurTexture@CGlowAura@@AEAA_NXZ 000000014007c210 f   r_glowaura.obj
 0001:0007b550       ?DrawFinal@CGlowAura@@AEAA_NXZ 000000014007c550 f   r_glowaura.obj
 0001:0007b720       ?DrawAuras@CGlowAura@@QEAA_NXZ 000000014007c720 f   r_glowaura.obj
 0001:0007c0e0       ??0glowquery_t@@QEAA@XZ    000000014007d0e0 f i r_glqueries.obj
 0001:0007c100       ?R_AllocQueryObject@@YAPEAUglowquery_t@@HIIW4querytype_t@@@Z 000000014007d100 f   r_glqueries.obj
 0001:0007c360       ?R_CalcOcclusionFactor@@YAMAEBVVector@@HMMMIW4querytype_t@@AEAUglowstate_t@@_N333PEAY03MPEAXP6AX5@ZP6AX50@Z@Z 000000014007d360 f   r_glqueries.obj
 0001:0007cec0       ?R_ReleaseRenderPassQueryObjects@@YAXIW4querytype_t@@@Z 000000014007dec0 f   r_glqueries.obj
 0001:0007cff0       ?resize@?$CArray@Uglowquery_t@@@@QEAAXI@Z 000000014007dff0 f i r_glqueries.obj
 0001:0007d1a0       ?R_GetDummyTexture@@YAPEAUen_texture_t@@XZ 000000014007e1a0 f   r_interfacefuncs.obj
 0001:0007d1b0       ?R_GetDummyMaterial@@YAPEAUen_material_t@@XZ 000000014007e1b0 f   r_interfacefuncs.obj
 0001:0007d1c0       ?R_AllocTextureIndex@@YAPEAUen_texalloc_t@@W4rs_level_t@@@Z 000000014007e1c0 f   r_interfacefuncs.obj
 0001:0007d1d0       ?R_LoadTexture@@YAPEAUen_texture_t@@PEBDW4rs_level_t@@HPEBH@Z 000000014007e1d0 f   r_interfacefuncs.obj
 0001:0007d200       ?R_LoadTextureFromMemory@@YAPEAUen_texture_t@@PEBDW4rs_level_t@@HPEBEIII@Z 000000014007e200 f   r_interfacefuncs.obj
 0001:0007d250       ?R_LoadMaterialScript@@YAPEAUen_material_t@@PEBDW4rs_level_t@@@Z 000000014007e250 f   r_interfacefuncs.obj
 0001:0007d280       ?R_EnableBasicDraw@@YA_NXZ 000000014007e280 f   r_interfacefuncs.obj
 0001:0007d290       ?R_DisableBasicDraw@@YAXXZ 000000014007e290 f   r_interfacefuncs.obj
 0001:0007d2e0       ?R_BasicDrawEnableTextures@@YA_NXZ 000000014007e2e0 f   r_interfacefuncs.obj
 0001:0007d330       ?R_BasicDrawDisableTextures@@YA_NXZ 000000014007e330 f   r_interfacefuncs.obj
 0001:0007d380       ?R_BasicDrawBegin@@YAXH@Z  000000014007e380 f   r_interfacefuncs.obj
 0001:0007d3a0       ?R_BasicDrawEnd@@YAXXZ     000000014007e3a0 f   r_interfacefuncs.obj
 0001:0007d3b0       ?R_BasicDrawSetProjection@@YAXPEBM@Z 000000014007e3b0 f   r_interfacefuncs.obj
 0001:0007d3d0       ?R_BasicDrawSetModelView@@YAXPEBM@Z 000000014007e3d0 f   r_interfacefuncs.obj
 0001:0007d3f0       ?R_BasicDrawColor4f@@YAXMMMM@Z 000000014007e3f0 f   r_interfacefuncs.obj
 0001:0007d410       ?R_BasicDrawColor4fv@@YAXPEBM@Z 000000014007e410 f   r_interfacefuncs.obj
 0001:0007d430       ?R_BasicDrawTexCoord2f@@YAXMM@Z 000000014007e430 f   r_interfacefuncs.obj
 0001:0007d450       ?R_BasicDrawTexCoord2fv@@YAXPEBM@Z 000000014007e450 f   r_interfacefuncs.obj
 0001:0007d4c0       ?R_BasicDrawVertex3f@@YAXMMM@Z 000000014007e4c0 f   r_interfacefuncs.obj
 0001:0007d4f0       ?R_BasicDrawVertex3fv@@YAXPEBM@Z 000000014007e4f0 f   r_interfacefuncs.obj
 0001:0007d500       ?R_GetExportFunctionsClass@@YAAEBVCGLExtF@@XZ 000000014007e500 f   r_interfacefuncs.obj
 0001:0007d510       ?R_GetProjectionMatrix@@YAAEAVCMatrix@@XZ 000000014007e510 f   r_interfacefuncs.obj
 0001:0007d520       ?R_GetModelViewMatrix@@YAAEAVCMatrix@@XZ 000000014007e520 f   r_interfacefuncs.obj
 0001:0007d530       ?R_GetViewParams@@YAAEBUref_params_t@@XZ 000000014007e530 f   r_interfacefuncs.obj
 0001:0007d540       ?R_GetDefaultFontSet@@YAPEBUfont_set_t@@XZ 000000014007e540 f   r_interfacefuncs.obj
 0001:0007d550       ?R_LoadFontSet@@YAPEBUfont_set_t@@PEBDH@Z 000000014007e550 f   r_interfacefuncs.obj
 0001:0007d580       ?R_GetScreenSize@@YAXAEAI0@Z 000000014007e580 f   r_interfacefuncs.obj
 0001:0007d5b0       ?R_BasicDrawIsActive@@YA_NXZ 000000014007e5b0 f   r_interfacefuncs.obj
 0001:0007d5c0       ?R_GetStringSize@@YAXPEBUfont_set_t@@PEBDPEAI2PEAH@Z 000000014007e5c0 f   r_interfacefuncs.obj
 0001:0007d690       ?R_EstimateStringHeight@@YAHPEBUfont_set_t@@PEBDI@Z 000000014007e690 f   r_interfacefuncs.obj
 0001:0007d6a0       ?R_SetStringRectangle@@YAXFFFFHH@Z 000000014007e6a0 f   r_interfacefuncs.obj
 0001:0007d6e0       ?R_GetStringDrawError@@YAPEBDXZ 000000014007e6e0 f   r_interfacefuncs.obj
 0001:0007d700       ?R_VBMPrepareDraw@@YA_NXZ  000000014007e700 f   r_interfacefuncs.obj
 0001:0007d710       ?R_VBMEndDraw@@YAXXZ       000000014007e710 f   r_interfacefuncs.obj
 0001:0007d720       ?R_DrawVBMModel@@YA_NPEAUcl_entity_t@@H@Z 000000014007e720 f   r_interfacefuncs.obj
 0001:0007d730       ?R_VBMPrepareVSMDraw@@YA_NPEAUcl_dlight_t@@@Z 000000014007e730 f   r_interfacefuncs.obj
 0001:0007d740       ?R_VBMEndVSMDraw@@YAXXZ    000000014007e740 f   r_interfacefuncs.obj
 0001:0007d750       ?R_VBMGetShaderError@@YAPEBDXZ 000000014007e750 f   r_interfacefuncs.obj
 0001:0007d770       ?R_DrawVBMModelVSM@@YA_NPEAUcl_entity_t@@PEAUcl_dlight_t@@@Z 000000014007e770 f   r_interfacefuncs.obj
 0001:0007d780       ?R_GetNumRenderEntities@@YAIXZ 000000014007e780 f   r_interfacefuncs.obj
 0001:0007d790       ?R_GetRenderEntityByIndex@@YAPEAUcl_entity_t@@I@Z 000000014007e790 f   r_interfacefuncs.obj
 0001:0007d7b0       ?R_IF_ValidateShader@@YAXPEAVCGLSLShader@@@Z 000000014007e7b0 f   r_interfacefuncs.obj
 0001:0007d7c0       ?R_IF_ValidateBasicDraw@@YAXXZ 000000014007e7c0 f   r_interfacefuncs.obj
 0001:0007d7e0       ?Init@CLensFlareRenderer@@QEAA_NXZ 000000014007e7e0 f   r_lensflare.obj
 0001:0007db00       ?InitGame@CLensFlareRenderer@@QEAA_NXZ 000000014007eb00 f   r_lensflare.obj
 0001:0007dd10       ?DrawLensFlares@CLensFlareRenderer@@QEAA_NXZ 000000014007ed10 f   r_lensflare.obj
 0001:0007e380       ?DrawLensFlare@CLensFlareRenderer@@AEAA_NHAEBVVector@@0MMAEAUglowstate_t@@H_N2@Z 000000014007f380 f   r_lensflare.obj
 0001:0007ee60       ?DrawQuad@CLensFlareRenderer@@AEAAXAEBVVector@@0PEAUen_texture_t@@MM@Z 000000014007fe60 f   r_lensflare.obj
 0001:0007f420       ?PreDrawFunction@CLensFlareRenderer@@QEAAXXZ 0000000140080420 f   r_lensflare.obj
 0001:0007f690       ?SetSunFlare@CLensFlareRenderer@@QEAAXH_NMMMAEBVVector@@0@Z 0000000140080690 f   r_lensflare.obj
 0001:0007f880       ?LF_PreRender@@YAXPEAX@Z   0000000140080880 f   r_lensflare.obj
 0001:0007f890       ?LF_DrawFunction@@YAXPEAXAEBVVector@@@Z 0000000140080890 f   r_lensflare.obj
 0001:0007f940       ?resize@?$CArray@Usunflare_t@CLensFlareRenderer@@@@QEAAXI@Z 0000000140080940 f i r_lensflare.obj
 0001:0007fb30       ?erase@?$CArray@Usunflare_t@CLensFlareRenderer@@@@QEAAXI@Z 0000000140080b30 f i r_lensflare.obj
 0001:0007fd10       ??_Esunflare_t@CLensFlareRenderer@@QEAAPEAXI@Z 0000000140080d10 f i r_lensflare.obj
 0001:0007fd50       ??0sunflare_t@CLensFlareRenderer@@QEAA@XZ 0000000140080d50 f i r_lensflare.obj
 0001:0007fd70       ?InitGL@CMenuParticles@@QEAA_NXZ 0000000140080d70 f   r_menuparticles.obj
 0001:000800e0       ?Draw@CMenuParticles@@QEAA_NXZ 00000001400810e0 f   r_menuparticles.obj
 0001:00080cc0       ?Think@CMenuParticles@@QEAAXXZ 0000000140081cc0 f   r_menuparticles.obj
 0001:000813b0       ?SpawnParticle@CMenuParticles@@AEAA_NMM_N@Z 00000001400823b0 f   r_menuparticles.obj
 0001:00081740       ?CreateVertexNode@CNormalSmoothing@@AEAAPEAUvertexnode_t@1@AEBVVector@@0H@Z 0000000140082740 f   r_nsmoothing.obj
 0001:00081b90       ?RecursiveAddVertex@CNormalSmoothing@@AEAAPEAUvertexnode_t@1@PEAU21@AEBVVector@@1H@Z 0000000140082b90 f   r_nsmoothing.obj
 0001:00081dd0       ?resize@?$CArray@Uvertex_t@CNormalSmoothing@@@@QEAAXI@Z 0000000140082dd0 f i r_nsmoothing.obj
 0001:00082090       ?Init@CPortalManager@@QEAA_NXZ 0000000140083090 f   r_portals.obj
 0001:00082250       ?ClearGame@CPortalManager@@QEAAXXZ 0000000140083250 f   r_portals.obj
 0001:000823f0       ?InitGL@CPortalManager@@QEAA_NXZ 00000001400833f0 f   r_portals.obj
 0001:00082780       ?ClearGL@CPortalManager@@QEAAXXZ 0000000140083780 f   r_portals.obj
 0001:00082820       ?AllocNewPortal@CPortalManager@@QEAAXPEAUcl_entity_t@@@Z 0000000140083820 f   r_portals.obj
 0001:00083c20       ?DrawPortalPasses@CPortalManager@@QEAA_NXZ 0000000140084c20 f   r_portals.obj
 0001:00084210       ?GetMatchingPortal@CPortalManager@@QEAAPEAUcl_portal_t@@IAEAVCFrustum@@@Z 0000000140085210 f   r_portals.obj
 0001:000842d0       ?SetupPortalPass@CPortalManager@@AEAA_NXZ 00000001400852d0 f   r_portals.obj
 0001:00084930       ?DrawPortals@CPortalManager@@QEAA_NXZ 0000000140085930 f   r_portals.obj
 0001:00084f00       ?SetUniform4f@CGLSLShader@@QEAAXHMMMM@Z 0000000140085f00 f i r_sky.obj
 0001:000850a0       ??0skytextureset_t@CSkyRenderer@@QEAA@XZ 00000001400860a0 f i r_sky.obj
 0001:000850f0       ?Init@CSkyRenderer@@QEAA_NXZ 00000001400860f0 f   r_sky.obj
 0001:000852b0       ?InitGL@CSkyRenderer@@QEAA_NXZ 00000001400862b0 f   r_sky.obj
 0001:000855d0       ?ClearGame@CSkyRenderer@@QEAAXXZ 00000001400865d0 f   r_sky.obj
 0001:000856c0       ?CreateVBO@CSkyRenderer@@AEAAXXZ 00000001400866c0 f   r_sky.obj
 0001:00085fd0       ?DrawSky@CSkyRenderer@@QEAA_NXZ 0000000140086fd0 f   r_sky.obj
 0001:00087700       ?LoadSkyTextures@CSkyRenderer@@AEAAXPEBDPEAPEAUen_texture_t@@@Z 0000000140088700 f   r_sky.obj
 0001:00087e80       ?FindSkySet@CSkyRenderer@@AEAAHH@Z 0000000140088e80 f   r_sky.obj
 0001:00087ef0       ?AddSkyTextureSet@CSkyRenderer@@QEAAXPEBDH@Z 0000000140088ef0 f   r_sky.obj
 0001:00088330       ?SetCurrentSkySet@CSkyRenderer@@QEAAXH@Z 0000000140089330 f   r_sky.obj
 0001:00088380       ??A?$CArray@Uskytextureset_t@CSkyRenderer@@@@QEBAAEAUskytextureset_t@CSkyRenderer@@I@Z 0000000140089380 f i r_sky.obj
 0001:000883d0       ??_Eskytextureset_t@CSkyRenderer@@QEAAPEAXI@Z 00000001400893d0 f i r_sky.obj
 0001:00088410       ?resize@?$CArray@Uskytextureset_t@CSkyRenderer@@@@QEAAXI@Z 0000000140089410 f i r_sky.obj
 0001:000885e0       ??0CWADTextureResource@@QEAA@XZ 00000001400895e0 f   r_wadtextures.obj
 0001:00088640       ??1CWADTextureResource@@QEAA@XZ 0000000140089640 f   r_wadtextures.obj
 0001:000888c0       ?Init@CWADTextureResource@@QEAA_NPEBDAEBV?$CArray@VCString@@@@_N2@Z 00000001400898c0 f   r_wadtextures.obj
 0001:000895a0       ?LoadMaterialTypeCodeAssociations@CWADTextureResource@@AEAA_NXZ 000000014008a5a0 f   r_wadtextures.obj
 0001:00089b20       ?LoadMaterialTextureAssociations@CWADTextureResource@@AEAA_NXZ 000000014008ab20 f   r_wadtextures.obj
 0001:0008a0e0       ?CreateMaterialScript@CWADTextureResource@@AEAAXPEBUdmiptex_t@@PEBD@Z 000000014008b0e0 f   r_wadtextures.obj
 0001:0008b680       ?GetWADTexture@CWADTextureResource@@QEAAPEAUen_texture_t@@PEAUen_material_t@@PEBD1@Z 000000014008c680 f   r_wadtextures.obj
 0001:0008bc80       ?WAD_LoadDetailTextureAssociations@@YA_NAEAV?$CArray@PEAUdetailtexture_t@@@@AEAV?$CArray@PEAUdetail_association_t@@@@@Z 000000014008cc80 f   r_wadtextures.obj
 0001:0008c5e0       ?WAD_GetWADFolderPath@@YA?AVCString@@PEBD0@Z 000000014008d5e0 f   r_wadtextures.obj
 0001:0008c800       ?WAD_GetWADTexturePath@@YA?AVCString@@PEBD0@Z 000000014008d800 f   r_wadtextures.obj
 0001:0008c9d0       ?resize@?$CArray@Uwad3file_t@CWADTextureResource@@@@QEAAXI@Z 000000014008d9d0 f i r_wadtextures.obj
 0001:0008cb90       ?InitGL@CMirrorManager@@QEAA_NXZ 000000014008db90 f   r_mirror.obj
 0001:0008d040       ?ClearGL@CMirrorManager@@QEAAXXZ 000000014008e040 f   r_mirror.obj
 0001:0008d180       ?ClearGame@CMirrorManager@@QEAAXXZ 000000014008e180 f   r_mirror.obj
 0001:0008d320       ?CreateDepthTexture@CMirrorManager@@AEAAXXZ 000000014008e320 f   r_mirror.obj
 0001:0008d3f0       ?AllocTextures@CMirrorManager@@AEAA_NPEAUcl_mirror_t@@@Z 000000014008e3f0 f   r_mirror.obj
 0001:0008d6a0       ?AllocNewMirror@CMirrorManager@@QEAAXPEAUcl_entity_t@@@Z 000000014008e6a0 f   r_mirror.obj
 0001:0008e710       ?DrawMirrorPasses@CMirrorManager@@QEAA_NXZ 000000014008f710 f   r_mirror.obj
 0001:0008ecc0       ?SetupClipping@CMirrorManager@@AEAAXXZ 000000014008fcc0 f   r_mirror.obj
 0001:0008f330       ?SetupMirrorPass@CMirrorManager@@AEAAXXZ 0000000140090330 f   r_mirror.obj
 0001:0008f640       ?DrawMirrors@CMirrorManager@@QEAA_NXZ 0000000140090640 f   r_mirror.obj
 0001:0008fd70       ?Init@CMonitorManager@@QEAA_NXZ 0000000140090d70 f   r_monitor.obj
 0001:0008ff30       ?ClearGame@CMonitorManager@@QEAAXXZ 0000000140090f30 f   r_monitor.obj
 0001:000901d0       ?InitGL@CMonitorManager@@QEAA_NXZ 00000001400911d0 f   r_monitor.obj
 0001:000906e0       ?ClearGL@CMonitorManager@@QEAAXXZ 00000001400916e0 f   r_monitor.obj
 0001:000908c0       ?CreateMonitorTextures@CMonitorManager@@CA_NPEAUcl_monitor_t@@@Z 00000001400918c0 f   r_monitor.obj
 0001:00090be0       ?AllocNewMonitor@CMonitorManager@@QEAAXPEAUcl_entity_t@@@Z 0000000140091be0 f   r_monitor.obj
 0001:000921b0       ?DrawMonitorPasses@CMonitorManager@@QEAA_NXZ 00000001400931b0 f   r_monitor.obj
 0001:00092770       ?GetMatchingMonitor@CMonitorManager@@QEAAPEAUcl_monitor_t@@I@Z 0000000140093770 f   r_monitor.obj
 0001:00092850       ?SetupMonitorPass@CMonitorManager@@AEAA_NXZ 0000000140093850 f   r_monitor.obj
 0001:00092e60       ?DrawMonitors@CMonitorManager@@QEAA_NXZ 0000000140093e60 f   r_monitor.obj
 0001:00093480       ??0script_definition_t@@QEAA@XZ 0000000140094480 f i r_particles.obj
 0001:000935e0       ?Init@CParticleEngine@@QEAA_NXZ 00000001400945e0 f   r_particles.obj
 0001:00093c40       ?InitGL@CParticleEngine@@QEAA_NXZ 0000000140094c40 f   r_particles.obj
 0001:00095340       ?ClearGL@CParticleEngine@@QEAAXXZ 0000000140096340 f   r_particles.obj
 0001:000953d0       ?ClearGame@CParticleEngine@@QEAAXXZ 00000001400963d0 f   r_particles.obj
 0001:00095700       ??_Gscript_cache_t@@QEAAPEAXI@Z 0000000140096700 f i r_particles.obj
 0001:000957c0       ??4cl_particle_t@@QEAAAEAU0@$$QEAU0@@Z 00000001400967c0 f i r_particles.obj
 0001:00095b30       ?CreateSystem@CParticleEngine@@AEAAPEAUparticle_system_t@@PEBDAEBVVector@@1IPEAU2@PEAUcl_entity_t@@HIHH@Z 0000000140096b30 f   r_particles.obj
 0001:00096610       ?ReadField@CParticleEngine@@QEAA_NPEAUscript_definition_t@@PEBD1@Z 0000000140097610 f   r_particles.obj
 0001:00099a20       ?LoadSystemScript@CParticleEngine@@QEAA_NPEAUscript_cache_t@@PEBD@Z 000000014009aa20 f   r_particles.obj
 0001:0009a090       ?LoadClusterScript@CParticleEngine@@QEAA_NPEAUscript_cache_t@@PEBD@Z 000000014009b090 f   r_particles.obj
 0001:0009a9c0       ?PrecacheScript@CParticleEngine@@QEAAPEBUscript_cache_t@@HPEBDPEAV?$CArray@VCString@@@@@Z 000000014009b9c0 f   r_particles.obj
 0001:0009b160       ?EnvironmentCreateFirst@CParticleEngine@@AEAAXPEAUparticle_system_t@@@Z 000000014009c160 f   r_particles.obj
 0001:0009b4e0       ?CreateParticle@CParticleEngine@@AEAAPEAUcl_particle_t@@PEAUparticle_system_t@@PEAM1@Z 000000014009c4e0 f   r_particles.obj
 0001:0009d600       ?Update@CParticleEngine@@QEAAXXZ 000000014009e600 f   r_particles.obj
 0001:0009da10       ?UpdateSystems@CParticleEngine@@AEAAXXZ 000000014009ea10 f   r_particles.obj
 0001:0009e2c0       ?TransformRelativeVector@CParticleEngine@@AEAAXAEBVVector@@PEAUparticle_system_t@@AEAV2@_N3@Z 000000014009f2c0 f   r_particles.obj
 0001:0009e590       ?CheckCollision@CParticleEngine@@AEAA_NAEAVVector@@0PEAUparticle_system_t@@PEAUcl_particle_t@@@Z 000000014009f590 f   r_particles.obj
 0001:0009ece0       ?GetBoneTransformedPosition@CParticleEngine@@AEAAXAEBVVector@@PEAUcl_entity_t@@HAEAV2@_N@Z 000000014009fce0 f   r_particles.obj
 0001:0009ed40       ?GetBoneRotatedVector@CParticleEngine@@AEAAXAEBVVector@@PEAUcl_entity_t@@HAEAV2@_N@Z 000000014009fd40 f   r_particles.obj
 0001:0009ed90       ?UpdateParticle@CParticleEngine@@AEAA_NPEAUcl_particle_t@@@Z 000000014009fd90 f   r_particles.obj
 0001:0009fc10       ?GetLights@CParticleEngine@@CAXPEAUparticle_system_t@@PEAPEAUcl_dlight_t@@PEAI_NI@Z 00000001400a0c10 f   r_particles.obj
 0001:000a11c0       ?BatchParticle@CParticleEngine@@AEAAXPEAUcl_particle_t@@MMPEBM@Z 00000001400a21c0 f   r_particles.obj
 0001:000a3330       ?DrawParticles@CParticleEngine@@QEAA_NW4prt_render_pass_e@@@Z 00000001400a4330 f   r_particles.obj
 0001:000a5470       ?ReleaseSystem@CParticleEngine@@AEAAXPEAUparticle_system_t@@@Z 00000001400a6470 f   r_particles.obj
 0001:000a5550       ?RemoveSystem@CParticleEngine@@AEAAXHH_N@Z 00000001400a6550 f   r_particles.obj
 0001:000a5780       ?CacheCreateSystem@CParticleEngine@@QEAAXAEBVVector@@0W4part_script_type_t@@PEBDIHHHH@Z 00000001400a6780 f   r_particles.obj
 0001:000a5ab0       ?KillEntityParticleSystems@CParticleEngine@@QEAAXH@Z 00000001400a6ab0 f   r_particles.obj
 0001:000a5d10       ?radd@?$CLinkedList@Upart_msg_cache_t@@@@QEAAPEAUlink_t@1@Upart_msg_cache_t@@@Z 00000001400a6d10 f i r_particles.obj
 0001:000a5e30       ?remove@?$CLinkedList@Upart_msg_cache_t@@@@QEAAXPEAUlink_t@1@@Z 00000001400a6e30 f i r_particles.obj
 0001:000a5f90       ?clear@?$CLinkedList@Upart_msg_cache_t@@@@QEAAXXZ 00000001400a6f90 f i r_particles.obj
 0001:000a6160       ?resize@?$CArray@Uiterator_t@?$CLinkedList@PEAUbsp_decal_t@@@@@@QEAAXI@Z 00000001400a7160 f i r_bsp.obj
 0001:000a6160       ?resize@?$CArray@Uiterator_t@?$CLinkedList@Upart_msg_cache_t@@@@@@QEAAXI@Z 00000001400a7160 f i r_particles.obj
 0001:000a6280       ?Init@CPostProcess@@QEAA_NXZ 00000001400a7280 f   r_postprocess.obj
 0001:000a7290       ?InitGL@CPostProcess@@QEAA_NXZ 00000001400a8290 f   r_postprocess.obj
 0001:000a7bc0       ?ClearGL@CPostProcess@@QEAAXXZ 00000001400a8bc0 f   r_postprocess.obj
 0001:000a7c50       ?ClearGame@CPostProcess@@QEAAXXZ 00000001400a8c50 f   r_postprocess.obj
 0001:000a7ea0       ?DrawFade@CPostProcess@@AEAA_NAEAUscreenfade_t@@@Z 00000001400a8ea0 f   r_postprocess.obj
 0001:000a8090       ?Draw@CPostProcess@@QEAA_NXZ 00000001400a9090 f   r_postprocess.obj
 0001:000a9b20       ?Legacy_SortParticles@@YAHPEBX0@Z 00000001400aab20 f   r_legacyparticles.obj
 0001:000a9c20       ?ReleaseAllParticles@CLegacyParticles@@AEAAXXZ 00000001400aac20 f   r_legacyparticles.obj
 0001:000a9cf0       ?AllocateParticles@CLegacyParticles@@AEAAXXZ 00000001400aacf0 f   r_legacyparticles.obj
 0001:000a9ec0       ?CreateParticleExplosion1@CLegacyParticles@@QEAAXAEBVVector@@@Z 00000001400aaec0 f   r_legacyparticles.obj
 0001:000aa570       ?CreateParticleExplosion2@CLegacyParticles@@QEAAXAEBVVector@@II@Z 00000001400ab570 f   r_legacyparticles.obj
 0001:000aac40       ?CreateBlobExplosion@CLegacyParticles@@QEAAXAEBVVector@@@Z 00000001400abc40 f   r_legacyparticles.obj
 0001:000ab3b0       ?CreateRocketExplosion@CLegacyParticles@@QEAAXAEBVVector@@I@Z 00000001400ac3b0 f   r_legacyparticles.obj
 0001:000abab0       ?CreateParticleEffect@CLegacyParticles@@QEAAXAEBVVector@@0II@Z 00000001400acab0 f   r_legacyparticles.obj
 0001:000ac240       ?CreateLavaSplash@CLegacyParticles@@QEAAXAEBVVector@@@Z 00000001400ad240 f   r_legacyparticles.obj
 0001:000ac650       ?CreateTeleportSplash@CLegacyParticles@@QEAAXAEBVVector@@@Z 00000001400ad650 f   r_legacyparticles.obj
 0001:000acb10       ?CreateRocketTrail@CLegacyParticles@@QEAAXAEBVVector@@0I@Z 00000001400adb10 f   r_legacyparticles.obj
 0001:000ad7c0       ?UpdateParticles@CLegacyParticles@@QEAAXXZ 00000001400ae7c0 f   r_legacyparticles.obj
 0001:000addd0       ?DrawParticles@CLegacyParticles@@QEAA_NXZ 00000001400aedd0 f   r_legacyparticles.obj
 0001:000aec10       ?Clear@CRenderToTextureCache@@QEAAXW4rs_level_t@@@Z 00000001400afc10 f   r_rttcache.obj
 0001:000aee10       ?Alloc@CRenderToTextureCache@@QEAAPEAUrtt_texture_t@@II_NIW4rs_level_t@@@Z 00000001400afe10 f   r_rttcache.obj
 0001:000aefe0       ?CreateTexture@CRenderToTextureCache@@CAXPEAUrtt_texture_t@@W4rs_level_t@@@Z 00000001400affe0 f   r_rttcache.obj
 0001:000af0c0       ?Free@CRenderToTextureCache@@QEAAXPEAUrtt_texture_t@@@Z 00000001400b00c0 f   r_rttcache.obj
 0001:000af140       ?Delete@CRenderToTextureCache@@QEAAXPEAUrtt_texture_t@@@Z 00000001400b0140 f   r_rttcache.obj
 0001:000af1a0       ??0temp_sprite_t@@QEAA@XZ  00000001400b01a0 f i r_sprites.obj
 0001:000af1d0       ??1temp_sprite_t@@QEAA@XZ  00000001400b01d0 f i r_sprites.obj
 0001:000af1f0       ?Init@CSpriteRenderer@@QEAA_NXZ 00000001400b01f0 f   r_sprites.obj
 0001:000af3b0       ?InitGL@CSpriteRenderer@@QEAA_NXZ 00000001400b03b0 f   r_sprites.obj
 0001:000af860       ?ClearGL@CSpriteRenderer@@QEAAXXZ 00000001400b0860 f   r_sprites.obj
 0001:000af8f0       ?InitGame@CSpriteRenderer@@QEAA_NXZ 00000001400b08f0 f   r_sprites.obj
 0001:000af980       ?ClearGame@CSpriteRenderer@@QEAAXXZ 00000001400b0980 f   r_sprites.obj
 0001:000afa90       ?AllocTempSprite@CSpriteRenderer@@QEAAPEAUcl_entity_t@@HM@Z 00000001400b0a90 f   r_sprites.obj
 0001:000afb80       ?BatchSprites@CSpriteRenderer@@AEAAXPEAUcl_entity_t@@I@Z 00000001400b0b80 f   r_sprites.obj
 0001:000afed0       ?DrawSpriteArrays@CSpriteRenderer@@AEAA_NPEAUcl_entity_t@@I@Z 00000001400b0ed0 f   r_sprites.obj
 0001:000b0170       ?DrawSprites@CSpriteRenderer@@QEAA_NXZ 00000001400b1170 f   r_sprites.obj
 0001:000b0a60       ?BatchSprite@CSpriteRenderer@@AEAA_NPEAUcl_entity_t@@@Z 00000001400b1a60 f   r_sprites.obj
 0001:000b1aa0       ?BatchVertex@CSpriteRenderer@@AEAAXAEBVVector@@AEAY03$$CBMMM@Z 00000001400b2aa0 f   r_sprites.obj
 0001:000b1c10       ?Animate@CSpriteRenderer@@QEAAXXZ 00000001400b2c10 f   r_sprites.obj
 0001:000b1e40       ?SPR_DrawFunction@@YAXPEAXAEBVVector@@@Z 00000001400b2e40 f   r_sprites.obj
 0001:000b1ee0       ?getBones@vbmmesh_t@@QEBAPEBEPEBUvbmheader_t@@@Z 00000001400b2ee0 f i r_vbm.obj
 0001:000b1f30       ?getVertexes@vbmheader_t@@QEBAPEBUvbmvertex_t@@XZ 00000001400b2f30 f i r_vbm.obj
 0001:000b1f70       ?getIndexes@vbmheader_t@@QEBAPEBIXZ 00000001400b2f70 f i r_vbm.obj
 0001:000b1fb0       ?getSkinFamilies@vbmheader_t@@QEBAPEBFXZ 00000001400b2fb0 f i r_vbm.obj
 0001:000b1ff0       ?getHitBox@studiohdr_t@@QEBAPEBUmstudiobbox_t@@H@Z 00000001400b2ff0 f i r_vbm.obj
 0001:000b2050       ?SetUniform4fv@CGLSLShader@@QEAAXHPEBMI@Z 00000001400b3050 f i r_vbm.obj
 0001:000b21a0       ?EnableSync@CGLSLShader@@QEAAXH@Z 00000001400b31a0 f i r_vbm.obj
 0001:000b2210       ?DisableSync@CGLSLShader@@QEAAXH@Z 00000001400b3210 f i r_vbm.obj
 0001:000b22c0       ??0vbmdecal_t@@QEAA@XZ     00000001400b32c0 f i r_vbm.obj
 0001:000b22f0       ??1vbmdecal_t@@QEAA@XZ     00000001400b32f0 f i r_vbm.obj
 0001:000b2390       ??0vbm_attribs@@QEAA@XZ    00000001400b3390 f i r_vbm.obj
 0001:000b25d0       ??0CVBMRenderer@@QEAA@XZ   00000001400b35d0 f   r_vbm.obj
 0001:000b3780       ?Init@CVBMRenderer@@QEAA_NXZ 00000001400b4780 f   r_vbm.obj
 0001:000b4480       ?InitGL@CVBMRenderer@@QEAA_NXZ 00000001400b5480 f   r_vbm.obj
 0001:000b6650       ?ClearGL@CVBMRenderer@@QEAAXXZ 00000001400b7650 f   r_vbm.obj
 0001:000b66e0       ?ClearGame@CVBMRenderer@@QEAAXXZ 00000001400b76e0 f   r_vbm.obj
 0001:000b6770       ?CreateVertexTexture@CVBMRenderer@@AEAAXXZ 00000001400b7770 f   r_vbm.obj
 0001:000b6860       ?DeleteDecals@CVBMRenderer@@AEAAXXZ 00000001400b7860 f   r_vbm.obj
 0001:000b6a80       ?SetOrientation@CVBMRenderer@@AEAAXXZ 00000001400b7a80 f   r_vbm.obj
 0001:000b73a0       ?SetupTransformationMatrix@CVBMRenderer@@AEAAXXZ 00000001400b83a0 f   r_vbm.obj
 0001:000b75e0       ?ApplyRenderFX@CVBMRenderer@@AEAAXPEAY03M@Z 00000001400b85e0 f   r_vbm.obj
 0001:000b77c0       ?SetupBones@CVBMRenderer@@AEAA_NH@Z 00000001400b87c0 f   r_vbm.obj
 0001:000b85a0       ?SetExtraInfo@CVBMRenderer@@AEAAXXZ 00000001400b95a0 f   r_vbm.obj
 0001:000b8630       ?ShouldAnimate@CVBMRenderer@@AEAA_NXZ 00000001400b9630 f   r_vbm.obj
 0001:000b88e0       ?SetModel@CVBMRenderer@@AEAA_NXZ 00000001400b98e0 f   r_vbm.obj
 0001:000b8970       ?DrawModel@CVBMRenderer@@QEAA_NHPEAUcl_entity_t@@@Z 00000001400b9970 f   r_vbm.obj
 0001:000b8da0       ?CalculateAttachments@CVBMRenderer@@AEAAXXZ 00000001400b9da0 f   r_vbm.obj
 0001:000b8f00       ?AddVBM@CVBMRenderer@@AEAAXPEAUstudiohdr_t@@PEAUvbmheader_t@@@Z 00000001400b9f00 f   r_vbm.obj
 0001:000b9d60       ?BuildVBO@CVBMRenderer@@AEAAXXZ 00000001400bad60 f   r_vbm.obj
 0001:000ba1e0       ?BlendLightValues@CVBMRenderer@@AEAAXXZ 00000001400bb1e0 f   r_vbm.obj
 0001:000ba3d0       ?SetupLighting@CVBMRenderer@@AEAAXXZ 00000001400bb3d0 f   r_vbm.obj
 0001:000bb940       ??4entity_lightinfo_t@@QEAAAEAU0@AEBU0@@Z 00000001400bc940 f i r_vbm.obj
 0001:000bbfa0       ?GetModelLights@CVBMRenderer@@AEAAXXZ 00000001400bcfa0 f   r_vbm.obj
 0001:000bc9b0       ?GetDynamicLights@CVBMRenderer@@AEAAXXZ 00000001400bd9b0 f   r_vbm.obj
 0001:000bd400       ?CheckBBox@CVBMRenderer@@AEAA_NXZ 00000001400be400 f   r_vbm.obj
 0001:000bdec0       ?Render@CVBMRenderer@@AEAA_NXZ 00000001400beec0 f   r_vbm.obj
 0001:000be1b0       ?SetupRenderer@CVBMRenderer@@AEAA_NXZ 00000001400bf1b0 f   r_vbm.obj
 0001:000bf0b0       ?RestoreRenderer@CVBMRenderer@@AEAA_NXZ 00000001400c00b0 f   r_vbm.obj
 0001:000bf1b0       ?CalculateFlexesHW@CVBMRenderer@@AEAAXPEBUvbmsubmodel_t@@@Z 00000001400c01b0 f   r_vbm.obj
 0001:000bf7a0       ?CalculateFlexesSW@CVBMRenderer@@AEAAXPEBUvbmsubmodel_t@@@Z 00000001400c07a0 f   r_vbm.obj
 0001:000c0700       ?DrawFirst@CVBMRenderer@@AEAA_NXZ 00000001400c1700 f   r_vbm.obj
 0001:000c0e70       ?DrawMesh@CVBMRenderer@@AEAA_NPEAUen_material_t@@PEBUvbmmesh_t@@_N@Z 00000001400c1e70 f   r_vbm.obj
 0001:000c1640       ?DrawLights@CVBMRenderer@@AEAA_N_N@Z 00000001400c2640 f   r_vbm.obj
 0001:000c2ff0       ??1lightbatch_t@@QEAA@XZ   00000001400c3ff0 f i r_vbm.obj
 0001:000c3020       ?DrawFinal@CVBMRenderer@@AEAA_NXZ 00000001400c4020 f   r_vbm.obj
 0001:000c5760       ?DrawWireframe@CVBMRenderer@@AEAA_NXZ 00000001400c6760 f   r_vbm.obj
 0001:000c61c0       ?AllocDecalSlot@CVBMRenderer@@AEAAPEAUvbmdecal_t@@XZ 00000001400c71c0 f   r_vbm.obj
 0001:000c6360       ??4vbmdecal_t@@QEAAAEAU0@AEBU0@@Z 00000001400c7360 f i r_vbm.obj
 0001:000c6430       ?CreateDecal@CVBMRenderer@@QEAAXAEBVVector@@0PEAUdecalgroupentry_t@@PEAUcl_entity_t@@E@Z 00000001400c7430 f   r_vbm.obj
 0001:000c6c70       ?FinalizeDecalMesh@CVBMRenderer@@AEAAXPEAUvbmdecal_t@@PEAUvbm_decal_mesh_t@@AEAI@Z 00000001400c7c70 f   r_vbm.obj
 0001:000c6ef0       ?DecalTriangle@CVBMRenderer@@AEAAXPEAUvbmdecal_t@@AEAPEAUvbm_decal_mesh_t@@PEAPEBUvbmvertex_t@@PEBEAEBVVector@@4044AEAIEPEAUen_material_t@@@Z 00000001400c7ef0 f   r_vbm.obj
 0001:000c8460       ?DeleteDecal@CVBMRenderer@@CAXPEAUvbmdecal_t@@@Z 00000001400c9460 f   r_vbm.obj
 0001:000c8640       ?DrawDecals@CVBMRenderer@@AEAA_NXZ 00000001400c9640 f   r_vbm.obj
 0001:000c8ee0       ?GetDecalOffsets@CVBMRenderer@@AEAAXIIAEAI0@Z 00000001400c9ee0 f   r_vbm.obj
 0001:000c9070       ?DrawFlexedSubmodels@CVBMRenderer@@AEAA_NXZ 00000001400ca070 f   r_vbm.obj
 0001:000c92e0       ?UpdateAttachments@CVBMRenderer@@QEAAXPEAUcl_entity_t@@@Z 00000001400ca2e0 f   r_vbm.obj
 0001:000c9420       ?GetBonePosition@CVBMRenderer@@QEAA_NPEAUcl_entity_t@@PEBDAEAVVector@@@Z 00000001400ca420 f   r_vbm.obj
 0001:000c9760       ?TransformVectorByBoneMatrix@CVBMRenderer@@QEAAXPEAUcl_entity_t@@HAEAVVector@@_N@Z 00000001400ca760 f   r_vbm.obj
 0001:000c9be0       ?RotateVectorByBoneMatrix@CVBMRenderer@@QEAAXPEAUcl_entity_t@@HAEAVVector@@_N@Z 00000001400cabe0 f   r_vbm.obj
 0001:000c9e40       ?PrepareDraw@CVBMRenderer@@QEAA_NXZ 00000001400cae40 f   r_vbm.obj
 0001:000ca1f0       ?EndDraw@CVBMRenderer@@QEAAXXZ 00000001400cb1f0 f   r_vbm.obj
 0001:000ca270       ?PrepareVSM@CVBMRenderer@@QEAA_NPEAUcl_dlight_t@@@Z 00000001400cb270 f   r_vbm.obj
 0001:000ca910       ?EndVSM@CVBMRenderer@@QEAAXXZ 00000001400cb910 f   r_vbm.obj
 0001:000ca9a0       ?DrawVSM@CVBMRenderer@@QEAA_NPEAUcl_dlight_t@@PEAPEAUcl_entity_t@@I@Z 00000001400cb9a0 f   r_vbm.obj
 0001:000caae0       ?DrawModelVSM@CVBMRenderer@@QEAA_NPEAUcl_entity_t@@PEAUcl_dlight_t@@@Z 00000001400cbae0 f   r_vbm.obj
 0001:000cafd0       ?PrepAuraPass@CVBMRenderer@@QEAA_NXZ 00000001400cbfd0 f   r_vbm.obj
 0001:000cb630       ?FinishAuraPass@CVBMRenderer@@QEAAXXZ 00000001400cc630 f   r_vbm.obj
 0001:000cb6b0       ?DrawAura@CVBMRenderer@@QEAA_NPEAUcl_entity_t@@AEBVVector@@M@Z 00000001400cc6b0 f   r_vbm.obj
 0001:000cbbb0       ?DispatchClientEvents@CVBMRenderer@@AEAAXXZ 00000001400ccbb0 f   r_vbm.obj
 0001:000cbe20       ?FreeEntityData@CVBMRenderer@@QEAAXPEBUcl_entity_t@@@Z 00000001400cce20 f   r_vbm.obj
 0001:000cc030       ?SetupModel@CVBMRenderer@@AEAAXIW4vbmlod_type_t@@@Z 00000001400cd030 f   r_vbm.obj
 0001:000cc2a0       ?DrawBones@CVBMRenderer@@AEAA_NXZ 00000001400cd2a0 f   r_vbm.obj
 0001:000cc780       ?DrawHitBoxes@CVBMRenderer@@AEAA_NXZ 00000001400cd780 f   r_vbm.obj
 0001:000ccaf0       ?DrawBoundingBox@CVBMRenderer@@AEAA_NXZ 00000001400cdaf0 f   r_vbm.obj
 0001:000ccdd0       ?DrawLightVectors@CVBMRenderer@@AEAA_NXZ 00000001400cddd0 f   r_vbm.obj
 0001:000cda90       ?DrawAttachments@CVBMRenderer@@AEAA_NXZ 00000001400cea90 f   r_vbm.obj
 0001:000ce150       ?DrawHullBoundingBox@CVBMRenderer@@AEAA_NXZ 00000001400cf150 f   r_vbm.obj
 0001:000ce490       ?DrawBox@CVBMRenderer@@AEAAXAEBVVector@@0@Z 00000001400cf490 f   r_vbm.obj
 0001:000ce6f0       ?BatchVertex@CVBMRenderer@@AEAAXAEBVVector@@@Z 00000001400cf6f0 f   r_vbm.obj
 0001:000ce7b0       ??1?$CLinkedList@Ulightbatch_t@@@@QEAA@XZ 00000001400cf7b0 f i r_vbm.obj
 0001:000ce7e0       ?add@?$CLinkedList@Ulightbatch_t@@@@QEAAPEAUlink_t@1@Ulightbatch_t@@@Z 00000001400cf7e0 f i r_vbm.obj
 0001:000ceac0       ?clear@?$CLinkedList@Ulightbatch_t@@@@QEAAXXZ 00000001400cfac0 f i r_vbm.obj
 0001:000cec90       ?R_WaterQualityCvarCallBack@@YAXPEAVCCVar@@@Z 00000001400cfc90 f   r_water.obj
 0001:000cece0       ?Init@CWaterShader@@QEAA_NXZ 00000001400cfce0 f   r_water.obj
 0001:000cf200       ?InitGL@CWaterShader@@QEAA_NXZ 00000001400d0200 f   r_water.obj
 0001:000cfd00       ?ClearGL@CWaterShader@@QEAAXXZ 00000001400d0d00 f   r_water.obj
 0001:000cff30       ?ClearGame@CWaterShader@@QEAAXXZ 00000001400d0f30 f   r_water.obj
 0001:000d0210       ?CreateLightmapTexture@CWaterShader@@AEAAXPEAUcl_water_t@@@Z 00000001400d1210 f   r_water.obj
 0001:000d06b0       ?CreateDepthTexture@CWaterShader@@AEAAXXZ 00000001400d16b0 f   r_water.obj
 0001:000d0780       ?ParseScript@CWaterShader@@SAXPEBDPEAUwater_settings_t@@0@Z 00000001400d1780 f   r_water.obj
 0001:000d12b0       ?LoadScripts@CWaterShader@@QEAAXXZ 00000001400d22b0 f   r_water.obj
 0001:000d1aa0       ?AddEntity@CWaterShader@@QEAAXPEAUcl_entity_t@@@Z 00000001400d2aa0 f   r_water.obj
 0001:000d3440       ?CreateRenderToTexture@CWaterShader@@AEAA_NPEAUcl_water_t@@@Z 00000001400d4440 f   r_water.obj
 0001:000d39a0       ?SetupClipping@CWaterShader@@AEBAXPEBUref_params_t@@_N@Z 00000001400d49a0 f   r_water.obj
 0001:000d4070       ?DrawWaterPasses@CWaterShader@@QEAA_NXZ 00000001400d5070 f   r_water.obj
 0001:000d4de0       ?GetViewOrigin@CWaterShader@@AEBA?AVVector@@XZ 00000001400d5de0 f   r_water.obj
 0001:000d4ee0       ?SetupRefract@CWaterShader@@AEAAXXZ 00000001400d5ee0 f   r_water.obj
 0001:000d5250       ?SetupReflect@CWaterShader@@AEAAXXZ 00000001400d6250 f   r_water.obj
 0001:000d5640       ?DrawWater@CWaterShader@@QEAA_N_N@Z 00000001400d6640 f   r_water.obj
 0001:000d65e0       ?resize@?$CArray@Uwater_settings_t@@@@QEAAXI@Z 00000001400d75e0 f i r_water.obj
 0001:000d8e20       ?SV_SetModel@@YA_NPEAUedict_t@@PEBD_N@Z 00000001400d9e20 f   sv_entities.obj
 0001:000d9210       ?SV_SetMinsMaxs@@YAXPEAUedict_t@@AEBVVector@@1@Z 00000001400da210 f   sv_entities.obj
 0001:000d9650       ?SV_SetSize@@YAXPEAUedict_t@@AEBVVector@@@Z 00000001400da650 f   sv_entities.obj
 0001:000d9b40       ?SV_SetOrigin@@YAXPEAUedict_t@@AEBVVector@@@Z 00000001400dab40 f   sv_entities.obj
 0001:000d9bc0       ?SV_AddToTouched@@YAXHAEAUtrace_t@@AEBVVector@@@Z 00000001400dabc0 f   sv_entities.obj
 0001:000d9cd0       ?SV_GetNumEdicts@@YAHXZ    00000001400dacd0 f   sv_entities.obj
 0001:000d9ce0       ?SV_GetEdictByIndex@@YAPEAUedict_t@@H@Z 00000001400dace0 f   sv_entities.obj
 0001:000d9d70       ?SV_InitPrivateData@@YA_NPEAUedict_t@@PEBD@Z 00000001400dad70 f   sv_entities.obj
 0001:000d9db0       ?SV_CreateEntity@@YAPEAUedict_t@@PEBD@Z 00000001400dadb0 f   sv_entities.obj
 0001:000d9ec0       ?SV_RemoveEntity@@YAXPEAUedict_t@@@Z 00000001400daec0 f   sv_entities.obj
 0001:000d9ee0       ?SV_DropToFloor@@YA_NPEAUedict_t@@@Z 00000001400daee0 f   sv_entities.obj
 0001:000da070       ?SV_NPC_WalkMove@@YA_NPEAUedict_t@@MMW4walkmove_t@@@Z 00000001400db070 f   sv_entities.obj
 0001:000da170       ??0areanode_t@@QEAA@XZ     00000001400db170 f i sv_main.obj
 0001:000da1c0       ??0sv_client_t@@QEAA@XZ    00000001400db1c0 f i sv_main.obj
 0001:000da3b0       ??0sv_model_t@@QEAA@XZ     00000001400db3b0 f i sv_main.obj
 0001:000da3e0       ??0serverstate_t@@QEAA@XZ  00000001400db3e0 f i sv_main.obj
 0001:000daed0       ??1serverstate_t@@QEAA@XZ  00000001400dbed0 f i sv_main.obj
 0001:000db200       ??1sv_client_t@@QEAA@XZ    00000001400dc200 f i sv_main.obj
 0001:000db2b0       ??1gamevars_t@@QEAA@XZ     00000001400dc2b0 f i sv_main.obj
 0001:000db2c0       ??1sv_netinfo_t@@QEAA@XZ   00000001400dc2c0 f i sv_main.obj
 0001:000db390       ??1sv_levelchangeinfo_t@@QEAA@XZ 00000001400dc390 f i sv_main.obj
 0001:000db400       ??0vbmhull_t@@QEAA@XZ      00000001400dc400 f i sv_main.obj
 0001:000db420       ??0entity_vbmhulldata_t@@QEAA@XZ 00000001400dc420 f i sv_main.obj
 0001:000db4d0       ?SV_Init@@YA_NXZ           00000001400dc4d0 f   sv_main.obj
 0001:000dc640       ?SV_LinkMapTextureMaterials@@YAXAEAV?$CArray@VCString@@@@@Z 00000001400dd640 f   sv_main.obj
 0001:000dd040       ?SV_ClearNetworking@@YAXXZ 00000001400de040 f   sv_main.obj
 0001:000dd080       ?SV_RestoreTransitionSave@@YA_NPEBUsave_header_t@@@Z 00000001400de080 f   sv_main.obj
 0001:000dd3c0       ?SV_MaxPlayersCvarCallBack@@YAXPEAVCCVar@@@Z 00000001400de3c0 f   sv_main.obj
 0001:000dd450       ?SV_SpawnGame@@YA_NPEBD00_N@Z 00000001400de450 f   sv_main.obj
 0001:000de2c0       ?SV_ClearClient@@YAXAEAUsv_client_t@@@Z 00000001400df2c0 f   sv_main.obj
 0001:000de620       ??_Gusermsgdata_t@@QEAAPEAXI@Z 00000001400df620 f i sv_main.obj
 0001:000de650       ?SV_ClearGame@@YAX_N0@Z    00000001400df650 f   sv_main.obj
 0001:000debe0       ?SV_DropClient@@YAXAEAUsv_client_t@@PEBD@Z 00000001400dfbe0 f   sv_main.obj
 0001:000ded60       ?SV_CheckMoveVars@@YAXAEAUsv_client_t@@@Z 00000001400dfd60 f   sv_main.obj
 0001:000df0f0       ?SV_RunCmd@@YAXAEAUusercmd_t@@AEAUsv_client_t@@@Z 00000001400e00f0 f   sv_main.obj
 0001:000df910       ?SV_UpdateClients@@YAXXZ   00000001400e0910 f   sv_main.obj
 0001:000e0240       ?SV_Frame@@YAXXZ           00000001400e1240 f   sv_main.obj
 0001:000e04e0       ?SV_PrecacheModel@@YAHPEBD@Z 00000001400e14e0 f   sv_main.obj
 0001:000e08f0       ?SV_SetPAS@@YAPEAEAEBVVector@@@Z 00000001400e18f0 f   sv_main.obj
 0001:000e0930       ?SV_SetPVS@@YAPEAEAEBVVector@@@Z 00000001400e1930 f   sv_main.obj
 0001:000e0970       ?SV_SpawnClient@@YA_NAEAUsv_client_t@@@Z 00000001400e1970 f   sv_main.obj
 0001:000e0ec0       ?SV_TraceTexture@@YAPEBDHAEBVVector@@0@Z 00000001400e1ec0 f   sv_main.obj
 0001:000e0f90       ?SV_SetGroupMask@@YAXHH@Z  00000001400e1f90 f   sv_main.obj
 0001:000e0fa0       ?SV_NameForFunction@@YAPEBDPEBX@Z 00000001400e1fa0 f   sv_main.obj
 0001:000e1050       ?SV_FunctionFromName@@YAPEAXPEBD@Z 00000001400e2050 f   sv_main.obj
 0001:000e1170       ?SV_AddEnforcedConsistencyFile@@YAXPEBD@Z 00000001400e2170 f   sv_main.obj
 0001:000e13c0       ?SV_AllocString@@YAIPEBD@Z 00000001400e23c0 f   sv_main.obj
 0001:000e1660       ?SV_GetString@@YAPEBDI@Z   00000001400e2660 f   sv_main.obj
 0001:000e16f0       ?SV_ServerCommand@@YAXPEBD@Z 00000001400e26f0 f   sv_main.obj
 0001:000e17e0       ?SV_ClientCommand@@YAXPEAUedict_t@@PEBD@Z 00000001400e27e0 f   sv_main.obj
 0001:000e18d0       ?SV_GetBonePositionByName@@YA_NPEAUedict_t@@PEBDAEAVVector@@@Z 00000001400e28d0 f   sv_main.obj
 0001:000e1b70       ?SV_GetBonePositionByIndex@@YA_NPEAUedict_t@@IAEAVVector@@@Z 00000001400e2b70 f   sv_main.obj
 0001:000e1d90       ?SV_GetAttachment@@YA_NPEAUedict_t@@IAEAVVector@@@Z 00000001400e2d90 f   sv_main.obj
 0001:000e1fe0       ?SV_GetMapTextureMaterial@@YAPEBUen_material_t@@PEBD@Z 00000001400e2fe0 f   sv_main.obj
 0001:000e2120       ?SV_PrecacheGeneric@@YAXPEBD@Z 00000001400e3120 f   sv_main.obj
 0001:000e23a0       ?SV_GetSoundDuration@@YAMPEBDI@Z 00000001400e33a0 f   sv_main.obj
 0001:000e2750       ?SV_GetOGGFileDuration@@YAMPEBD@Z 00000001400e3750 f   sv_main.obj
 0001:000e2b70       ?SV_GetWAVFileDuration@@YAMPEBD@Z 00000001400e3b70 f   sv_main.obj
 0001:000e2df0       ?SV_GetModelFrameCount@@YA_KH@Z 00000001400e3df0 f   sv_main.obj
 0001:000e2e60       ?SV_SetLevelSavefile@@YAXPEBD0@Z 00000001400e3e60 f   sv_main.obj
 0001:000e30a0       ?SV_AddLevelConnection@@YAXPEBD000@Z 00000001400e40a0 f   sv_main.obj
 0001:000e3b00       ??0sv_levelinfo_t@@QEAA@XZ 00000001400e4b00 f i sv_main.obj
 0001:000e3b70       ??1sv_levelinfo_t@@QEAA@XZ 00000001400e4b70 f i sv_main.obj
 0001:000e3bc0       ?SV_BeginLevelChange@@YAXPEBD0AEBVVector@@@Z 00000001400e4bc0 f   sv_main.obj
 0001:000e40a0       ?SV_PerformLevelChange@@YAXPEBD0@Z 00000001400e50a0 f   sv_main.obj
 0001:000e4d80       ??1saveddecal_t@@QEAA@XZ   00000001400e5d80 f i sv_main.obj
 0001:000e4d90       ?SV_GetTransitionList@@YAXPEAPEBHAEAI@Z 00000001400e5d90 f   sv_main.obj
 0001:000e4db0       ?SV_ClearLevelChange@@YAXXZ 00000001400e5db0 f   sv_main.obj
 0001:000e4f00       ?SV_EndGame@@YAXPEBD@Z     00000001400e5f00 f   sv_main.obj
 0001:000e4f90       ?SV_RestoreSavedDecals@@YAXXZ 00000001400e5f90 f   sv_main.obj
 0001:000e5350       ?SV_AddSavedDecal@@YAXAEBVVector@@0HPEBDH@Z 00000001400e6350 f   sv_main.obj
 0001:000e57a0       ?SV_FindClientInPVS@@YAPEAUedict_t@@PEBU1@@Z 00000001400e67a0 f   sv_main.obj
 0001:000e5ac0       ?add@?$CLinkedList@Usaveddecal_t@@@@QEAAPEAUlink_t@1@Usaveddecal_t@@@Z 00000001400e6ac0 f i sv_main.obj
 0001:000e5bb0       ?clear@?$CLinkedList@Usaveddecal_t@@@@QEAAXXZ 00000001400e6bb0 f i sv_main.obj
 0001:000e5d80       ??1?$CArray@Uareanode_t@@@@QEAA@XZ 00000001400e6d80 f i sv_main.obj
 0001:000e5dd0       ?resize@?$CArray@Uareanode_t@@@@QEAAXI@Z 00000001400e6dd0 f i sv_main.obj
 0001:000e5f50       ??1?$CLinkedList@Usv_levelinfo_t@@@@QEAA@XZ 00000001400e6f50 f i sv_main.obj
 0001:000e5f80       ?radd@?$CLinkedList@Usv_levelinfo_t@@@@QEAAPEAUlink_t@1@Usv_levelinfo_t@@@Z 00000001400e6f80 f i sv_main.obj
 0001:000e6180       ?clear@?$CLinkedList@Usv_levelinfo_t@@@@QEAAXXZ 00000001400e7180 f i sv_main.obj
 0001:000e6370       ??1areanode_t@@QEAA@XZ     00000001400e7370 f i sv_main.obj
 0001:000e63c0       ??0link_t@?$CLinkedList@Usv_level_connection_t@@@@QEAA@XZ 00000001400e73c0 f i sv_main.obj
 0001:000e6430       ??4?$CLinkedList@PEAUedict_t@@@@QEAAAEAV0@AEBV0@@Z 00000001400e7430 f i sv_main.obj
 0001:000e64e0       ?clear@?$CLinkedList@Usv_level_connection_t@@@@QEAAXXZ 00000001400e74e0 f i sv_main.obj
 0001:000e66c0       ?resize@?$CArray@Usv_model_t@@@@QEAAXI@Z 00000001400e76c0 f i sv_main.obj
 0001:000e6850       ?SV_LinkEdict@@YAXPEAUedict_t@@_N@Z 00000001400e7850 f   sv_world.obj
 0001:000e6b60       ?SV_HullForBSP@@YAPEBUhull_t@@PEBUedict_t@@AEBVVector@@1PEAV3@W4hull_types_t@@@Z 00000001400e7b60 f   sv_world.obj
 0001:000e6ce0       ?SV_HullForBSP@@YAPEBUhull_t@@HW4hull_types_t@@PEAVVector@@@Z 00000001400e7ce0 f   sv_world.obj
 0001:000e6e20       ?SV_TouchLinks@@YAXPEAUedict_t@@PEAUareanode_t@@@Z 00000001400e7e20 f   sv_world.obj
 0001:000e7230       ?SV_CreateAreaNode@@YAPEAUareanode_t@@HAEBVVector@@0@Z 00000001400e8230 f   sv_world.obj
 0001:000e7470       ?SV_LinkContents@@YAHAEAUareanode_t@@AEBVVector@@@Z 00000001400e8470 f   sv_world.obj
 0001:000e7790       ?SV_HullForEntity@@YAPEBUhull_t@@PEBUedict_t@@AEBVVector@@1PEAV3@W4hull_types_t@@@Z 00000001400e8790 f   sv_world.obj
 0001:000e78e0       ?SV_SingleClipMoveToEntity@@YAXPEAUedict_t@@AEBVVector@@111AEAUtrace_t@@HW4hull_types_t@@@Z 00000001400e88e0 f   sv_world.obj
 0001:000e7c80       ?SV_SingleClipMoveToEntityPoint@@YAXPEAUedict_t@@AEBVVector@@1HAEAUtrace_t@@@Z 00000001400e8c80 f   sv_world.obj
 0001:000e8000       ?SV_PointContents@@YAHAEBVVector@@PEAH@Z 00000001400e9000 f   sv_world.obj
 0001:000e80a0       ?SV_TruePointContents@@YAHAEBVVector@@@Z 00000001400e90a0 f   sv_world.obj
 0001:000e80c0       ?SV_ClipToLinks@@YAXAEAUareanode_t@@AEAUmoveclip_t@@HW4hull_types_t@@@Z 00000001400e90c0 f   sv_world.obj
 0001:000e84c0       ?SV_ClipToWorldBrush@@YAXAEAUareanode_t@@AEAUmoveclip_t@@HW4hull_types_t@@@Z 00000001400e94c0 f   sv_world.obj
 0001:000e8760       ?SV_ClipToLinksPoint@@YAXAEAUareanode_t@@AEAUmoveclip_t@@H@Z 00000001400e9760 f   sv_world.obj
 0001:000e8b80       ?SV_Move@@YAXAEAUtrace_t@@AEBVVector@@111HPEAUedict_t@@W4hull_types_t@@@Z 00000001400e9b80 f   sv_world.obj
 0001:000e8fc0       ?SV_MoveNoEntities@@YAXAEAUtrace_t@@AEBVVector@@111HPEAUedict_t@@W4hull_types_t@@@Z 00000001400e9fc0 f   sv_world.obj
 0001:000e9310       ?SV_Move_Point@@YAXAEAUtrace_t@@AEBVVector@@1HPEAUedict_t@@@Z 00000001400ea310 f   sv_world.obj
 0001:000e9670       ?SV_TestEntityPosition@@YAPEAUedict_t@@PEAU1@W4hull_types_t@@@Z 00000001400ea670 f   sv_world.obj
 0001:000e9850       ?SV_TestPlayerPosition@@YAHW4hull_types_t@@HAEBVVector@@@Z 00000001400ea850 f   sv_world.obj
 0001:000e98e0       ?SV_PlayerTrace@@YAXAEBVVector@@0HW4hull_types_t@@HAEAUtrace_t@@@Z 00000001400ea8e0 f   sv_world.obj
 0001:000e9de0       ?SV_TraceLine@@YAXAEBVVector@@0HW4hull_types_t@@HAEAUtrace_t@@@Z 00000001400eade0 f   sv_world.obj
 0001:000e9f10       ?SV_TraceModel@@YAMHAEBVVector@@0W4hull_types_t@@HAEAUtrace_t@@@Z 00000001400eaf10 f   sv_world.obj
 0001:000ea0a0       ??0sv_sound_t@@QEAA@XZ     00000001400eb0a0 f i sv_msg.obj
 0001:000ea0e0       ?SV_SendClientData@@YA_NPEAUsv_client_t@@@Z 00000001400eb0e0 f   sv_msg.obj
 0001:000ea800       ?SV_WriteEntitiesToClient@@YA_NPEAUsv_client_t@@@Z 00000001400eb800 f   sv_msg.obj
 0001:000edb90       ?SV_WriteMoveVars@@YAXAEBUsv_client_t@@@Z 00000001400eeb90 f   sv_msg.obj
 0001:000ee060       ?SV_SendResourceLists@@YA_NAEAUsv_client_t@@@Z 00000001400ef060 f   sv_msg.obj
 0001:000ef190       ?SV_PrecacheSound@@YAHPEBD@Z 00000001400f0190 f   sv_msg.obj
 0001:000ef7e0       ?SV_PrecacheParticleScript@@YA_NPEBDW4part_script_type_t@@@Z 00000001400f07e0 f   sv_msg.obj
 0001:000efcd0       ?SV_PrecacheDecal@@YAXPEBD@Z 00000001400f0cd0 f   sv_msg.obj
 0001:000f00d0       ?SV_PrecacheDecalGroup@@YAXPEBD@Z 00000001400f10d0 f   sv_msg.obj
 0001:000f04d0       ?SV_PlayEntitySound@@YAXHPEBDHHMMHMH@Z 00000001400f14d0 f   sv_msg.obj
 0001:000f09c0       ?SV_PlayAmbientSound@@YAXHPEBDAEBVVector@@HMMHMH@Z 00000001400f19c0 f   sv_msg.obj
 0001:000f0f40       ?SV_ApplySoundEffect@@YAXHPEBDHW4snd_effects_t@@MMH@Z 00000001400f1f40 f   sv_msg.obj
 0001:000f12d0       ?SV_StopEntitySounds@@YAXHHH@Z 00000001400f22d0 f   sv_msg.obj
 0001:000f1440       ?SV_SetRoomType@@YAXH@Z    00000001400f2440 f   sv_msg.obj
 0001:000f14f0       ?SV_MuteAllSounds@@YAX_N@Z 00000001400f24f0 f   sv_msg.obj
 0001:000f15a0       ?SV_PlayMusic@@YAXPEBDHHMMH@Z 00000001400f25a0 f   sv_msg.obj
 0001:000f1740       ?SV_StopMusic@@YAXHPEBDHM@Z 00000001400f2740 f   sv_msg.obj
 0001:000f18d0       ?SV_CheckFileConsistency@@YA_NAEAUsv_client_t@@PEBD1@Z 00000001400f28d0 f   sv_msg.obj
 0001:000f1af0       ?SV_AddClientConsistencyCheck@@YAXAEAUsv_client_t@@W4rs_type_t@@PEBD@Z 00000001400f2af0 f   sv_msg.obj
 0001:000f1fc0       ?SV_ReadUserCmd@@YAXAEAUsv_client_t@@@Z 00000001400f2fc0 f   sv_msg.obj
 0001:000f22f0       ?SV_ReadClientInfo@@YA_NAEAUsv_client_t@@@Z 00000001400f32f0 f   sv_msg.obj
 0001:000f2790       ?SV_ValidateClientCommand@@YA_NPEBD@Z 00000001400f3790 f   sv_msg.obj
 0001:000f29b0       ?SV_ChunkSizeCvarCallBack@@YAXPEAVCCVar@@@Z 00000001400f39b0 f   sv_msg.obj
 0001:000f2a50       ?SV_ClearUpload@@YAXAEAUsv_client_t@@@Z 00000001400f3a50 f   sv_msg.obj
 0001:000f2b30       ?SV_UploadNextChunk@@YA_NAEAUsv_client_t@@@Z 00000001400f3b30 f   sv_msg.obj
 0001:000f2ce0       ?SV_PrepareUpload@@YA_NAEAUsv_client_t@@@Z 00000001400f3ce0 f   sv_msg.obj
 0001:000f30c0       ?SV_ReadClientMessages@@YA?AW4sv_clstate_t@@AEAUsv_client_t@@@Z 00000001400f40c0 f   sv_msg.obj
 0001:000f3800       ?SV_ClientPrintf@@YAXPEBUedict_t@@PEBDZZ 00000001400f4800 f   sv_msg.obj
 0001:000f3920       ?SV_RegisterClientUserMessage@@YAXXZ 00000001400f4920 f   sv_msg.obj
 0001:000f3d80       ?SV_RegisterUserMessage@@YAHPEBDH@Z 00000001400f4d80 f   sv_msg.obj
 0001:000f3da0       ?SV_UserMessageBegin@@YAXW4msgdest_t@@HPEBVVector@@PEBUedict_t@@@Z 00000001400f4da0 f   sv_msg.obj
 0001:000f3ec0       ?SV_UserMessageEnd@@YAXXZ  00000001400f4ec0 f   sv_msg.obj
 0001:000f4140       ?SV_SendUserMessages@@YA_NAEAUsv_client_t@@@Z 00000001400f5140 f   sv_msg.obj
 0001:000f4310       ?SV_ClientRegisterUserMessages@@YAXAEBUsv_client_t@@@Z 00000001400f5310 f   sv_msg.obj
 0001:000f4430       ?SV_Msg_WriteByte@@YAXE@Z  00000001400f5430 f   sv_msg.obj
 0001:000f44a0       ?SV_Msg_WriteChar@@YAXD@Z  00000001400f54a0 f   sv_msg.obj
 0001:000f4520       ?SV_Msg_WriteInt16@@YAXF@Z 00000001400f5520 f   sv_msg.obj
 0001:000f45b0       ?SV_Msg_WriteUint16@@YAXG@Z 00000001400f55b0 f   sv_msg.obj
 0001:000f4640       ?SV_Msg_WriteInt32@@YAXH@Z 00000001400f5640 f   sv_msg.obj
 0001:000f46c0       ?SV_Msg_WriteUint32@@YAXI@Z 00000001400f56c0 f   sv_msg.obj
 0001:000f4740       ?SV_Msg_WriteInt64@@YAX_J@Z 00000001400f5740 f   sv_msg.obj
 0001:000f47d0       ?SV_Msg_WriteUint64@@YAX_K@Z 00000001400f57d0 f   sv_msg.obj
 0001:000f4860       ?SV_Msg_WriteSmallFloat@@YAXM@Z 00000001400f5860 f   sv_msg.obj
 0001:000f4890       ?SV_Msg_WriteFloat@@YAXM@Z 00000001400f5890 f   sv_msg.obj
 0001:000f4910       ?SV_Msg_WriteDouble@@YAXN@Z 00000001400f5910 f   sv_msg.obj
 0001:000f4990       ?SV_Msg_WriteBuffer@@YAXPEBEI@Z 00000001400f5990 f   sv_msg.obj
 0001:000f49c0       ?SV_Msg_WriteString@@YAXPEBD@Z 00000001400f59c0 f   sv_msg.obj
 0001:000f49f0       ?SV_Msg_WriteEntindex@@YAXH@Z 00000001400f59f0 f   sv_msg.obj
 0001:000f4a70       ?SV_FindUserMessageByName@@YAIPEBD@Z 00000001400f5a70 f   sv_msg.obj
 0001:000f4b60       ?remove@?$CLinkedList@VCString@@@@QEAA_NVCString@@@Z 00000001400f5b60 f i sv_msg.obj
 0001:000f4c60       ?resize@?$CArray@Usv_sound_t@@@@QEAAXI@Z 00000001400f5c60 f i sv_msg.obj
 0001:000f4e10       ?SV_Physics_Init@@YAXXZ    00000001400f5e10 f   sv_physics.obj
 0001:000f5790       ?SV_CheckVelocity@@YAXPEAUedict_t@@@Z 00000001400f6790 f   sv_physics.obj
 0001:000f5a20       ?SV_ClipVelocity@@YAXAEBVVector@@0AEAV1@M@Z 00000001400f6a20 f   sv_physics.obj
 0001:000f5fb0       ?SV_FlyMove@@YAXPEAUedict_t@@NM@Z 00000001400f6fb0 f   sv_physics.obj
 0001:000f68b0       ?SV_CheckWater@@YA_NPEAUedict_t@@@Z 00000001400f78b0 f   sv_physics.obj
 0001:000f6df0       ?SV_RecursiveWaterLevel@@YAMAEBVVector@@MMH@Z 00000001400f7df0 f   sv_physics.obj
 0001:000f6fd0       ?SV_Submerged@@YAMPEAUedict_t@@@Z 00000001400f7fd0 f   sv_physics.obj
 0001:000f7210       ?SV_CheckWaterTransition@@YAXPEAUedict_t@@@Z 00000001400f8210 f   sv_physics.obj
 0001:000f7790       ?SV_CheckGround@@YA_NPEAUedict_t@@@Z 00000001400f8790 f   sv_physics.obj
 0001:000f79d0       ?SV_CheckBottomPrecise@@YA_NPEAUedict_t@@AEBVVector@@1@Z 00000001400f89d0 f   sv_physics.obj
 0001:000f7e20       ?SV_CheckBottom@@YA_NPEAUedict_t@@@Z 00000001400f8e20 f   sv_physics.obj
 0001:000f8070       ?SV_AddGravity@@YAXPEAUedict_t@@@Z 00000001400f9070 f   sv_physics.obj
 0001:000f8120       ?SV_Impact@@YAXPEAUedict_t@@0AEBUtrace_t@@@Z 00000001400f9120 f   sv_physics.obj
 0001:000f8390       ?SV_PushRotate@@YA_NPEAUedict_t@@M@Z 00000001400f9390 f   sv_physics.obj
 0001:000f8d30       ?SV_PushMove_UnstickGroundEntity@@YA_NPEAUedict_t@@0AEBVVector@@1@Z 00000001400f9d30 f   sv_physics.obj
 0001:000f9110       ?SV_PushMove@@YAXPEAUedict_t@@M@Z 00000001400fa110 f   sv_physics.obj
 0001:000f9720       ?SV_RunThink@@YA_NPEAUedict_t@@@Z 00000001400fa720 f   sv_physics.obj
 0001:000f97c0       ?SV_Physics_Pusher@@YAXPEAUedict_t@@@Z 00000001400fa7c0 f   sv_physics.obj
 0001:000f9a30       ?SV_Physics_Step@@YAXPEAUedict_t@@@Z 00000001400faa30 f   sv_physics.obj
 0001:000f9f10       ?SV_Physics_Toss@@YAXPEAUedict_t@@@Z 00000001400faf10 f   sv_physics.obj
 0001:000fa120       ?SV_Physics_Bounce@@YAXPEAUedict_t@@@Z 00000001400fb120 f   sv_physics.obj
 0001:000fa7c0       ?SV_Physics@@YAXXZ         00000001400fb7c0 f   sv_physics.obj
 0001:000faf00       ?resize@?$CArray@Usaved_move_t@@@@QEAAXI@Z 00000001400fbf00 f i sv_physics.obj
 0001:000fb180       ??0mspriteframedesc_t@@QEAA@XZ 00000001400fc180 f i sprite.obj
 0001:000fb190       ?Sprite_LoadFrame@@YAPEAUmspriteframe_t@@PEBUdspriteframe_t@@PEBE@Z 00000001400fc190 f   sprite.obj
 0001:000fb250       ?Sprite_Load@@YAPEAUmsprite_t@@PEBEI@Z 00000001400fc250 f   sprite.obj
 0001:000fb6a0       ?Sprite_GetFrame@@YAPEBUmspriteframe_t@@PEBUmsprite_t@@IM@Z 00000001400fc6a0 f   sprite.obj
 0001:000fb830       ?resize@?$CArray@Umspriteframedesc_t@@@@QEAAXI@Z 00000001400fc830 f i sprite.obj
 0001:000fb9c0       ??0bad_cast@std@@QEAA@XZ   00000001400fc9c0 f i shdrchk.obj
 0001:000fb9f0       ?_Throw_bad_cast@std@@YAXXZ 00000001400fc9f0 f i shdrchk.obj
 0001:000fba10       ??0bad_cast@std@@QEAA@AEBV01@@Z 00000001400fca10 f i shdrchk.obj
 0001:000fba50       ??_E_Facet_base@std@@UEAAPEAXI@Z 00000001400fca50 f i * CIL library *:* CIL module *
 0001:000fba50       ??_G_Facet_base@std@@UEAAPEAXI@Z 00000001400fca50 f i shdrchk.obj
 0001:000fba80       ?_Incref@facet@locale@std@@UEAAXXZ 00000001400fca80 f i shdrchk.obj
 0001:000fba90       ?_Decref@facet@locale@std@@UEAAPEAV_Facet_base@3@XZ 00000001400fca90 f i shdrchk.obj
 0001:000fbaa0       ??1locale@std@@QEAA@XZ     00000001400fcaa0 f i shdrchk.obj
 0001:000fbad0       ?do_encoding@codecvt_base@std@@MEBAHXZ 00000001400fcad0 f i shdrchk.obj
 0001:000fbad0       ?do_max_length@codecvt_base@std@@MEBAHXZ 00000001400fcad0 f i shdrchk.obj
 0001:000fbad0       _get_startup_argv_mode     00000001400fcad0 f i MSVCRT:argv_mode.obj
 0001:000fbae0       ?_Getcat@?$ctype@D@std@@SA_KPEAPEBVfacet@locale@2@PEBV42@@Z 00000001400fcae0 f i shdrchk.obj
 0001:000fbc70       ?do_tolower@?$ctype@D@std@@MEBADD@Z 00000001400fcc70 f i shdrchk.obj
 0001:000fbc80       ?do_tolower@?$ctype@D@std@@MEBAPEBDPEADPEBD@Z 00000001400fcc80 f i shdrchk.obj
 0001:000fbcd0       ?do_toupper@?$ctype@D@std@@MEBADD@Z 00000001400fccd0 f i shdrchk.obj
 0001:000fbce0       ?do_toupper@?$ctype@D@std@@MEBAPEBDPEADPEBD@Z 00000001400fcce0 f i shdrchk.obj
 0001:000fbd30       ?do_narrow@?$ctype@D@std@@MEBADDD@Z 00000001400fcd30 f i shdrchk.obj
 0001:000fbd30       ?do_widen@?$ctype@D@std@@MEBADD@Z 00000001400fcd30 f i shdrchk.obj
 0001:000fbd40       ?do_widen@?$ctype@D@std@@MEBAPEBDPEBD0PEAD@Z 00000001400fcd40 f i shdrchk.obj
 0001:000fbd60       ?do_narrow@?$ctype@D@std@@MEBAPEBDPEBD0DPEAD@Z 00000001400fcd60 f i shdrchk.obj
 0001:000fbd80       ??_E?$ctype@D@std@@MEAAPEAXI@Z 00000001400fcd80 f i * CIL library *:* CIL module *
 0001:000fbd80       ??_G?$ctype@D@std@@MEAAPEAXI@Z 00000001400fcd80 f i shdrchk.obj
 0001:000fbdf0       ??_Eios_base@std@@UEAAPEAXI@Z 00000001400fcdf0 f i * CIL library *:* CIL module *
 0001:000fbdf0       ??_Gios_base@std@@UEAAPEAXI@Z 00000001400fcdf0 f i shdrchk.obj
 0001:000fbe30       ??_D?$basic_ifstream@DU?$char_traits@D@std@@@std@@QEAAXXZ 00000001400fce30 f i shdrchk.obj
 0001:000fbed0       ?imbue@?$basic_filebuf@DU?$char_traits@D@std@@@std@@MEAAXAEBVlocale@2@@Z 00000001400fced0 f i shdrchk.obj
 0001:000fbf00       ?sync@?$basic_filebuf@DU?$char_traits@D@std@@@std@@MEAAHXZ 00000001400fcf00 f i shdrchk.obj
 0001:000fbf50       ?setbuf@?$basic_filebuf@DU?$char_traits@D@std@@@std@@MEAAPEAV?$basic_streambuf@DU?$char_traits@D@std@@@2@PEAD_J@Z 00000001400fcf50 f i shdrchk.obj
 0001:000fbfb0       ?seekpos@?$basic_filebuf@DU?$char_traits@D@std@@@std@@MEAA?AV?$fpos@U_Mbstatet@@@2@V32@H@Z 00000001400fcfb0 f i shdrchk.obj
 0001:000fc070       ?seekoff@?$basic_filebuf@DU?$char_traits@D@std@@@std@@MEAA?AV?$fpos@U_Mbstatet@@@2@_JHH@Z 00000001400fd070 f i shdrchk.obj
 0001:000fc140       ?xsputn@?$basic_filebuf@DU?$char_traits@D@std@@@std@@MEAA_JPEBD_J@Z 00000001400fd140 f i shdrchk.obj
 0001:000fc270       ?xsgetn@?$basic_filebuf@DU?$char_traits@D@std@@@std@@MEAA_JPEAD_J@Z 00000001400fd270 f i shdrchk.obj
 0001:000fc420       ?uflow@?$basic_filebuf@DU?$char_traits@D@std@@@std@@MEAAHXZ 00000001400fd420 f i shdrchk.obj
 0001:000fc700       ?underflow@?$basic_filebuf@DU?$char_traits@D@std@@@std@@MEAAHXZ 00000001400fd700 f i shdrchk.obj
 0001:000fc770       ?pbackfail@?$basic_filebuf@DU?$char_traits@D@std@@@std@@MEAAHH@Z 00000001400fd770 f i shdrchk.obj
 0001:000fc860       ?overflow@?$basic_filebuf@DU?$char_traits@D@std@@@std@@MEAAHH@Z 00000001400fd860 f i shdrchk.obj
 0001:000fca20       ?_Unlock@?$basic_filebuf@DU?$char_traits@D@std@@@std@@UEAAXXZ 00000001400fda20 f i shdrchk.obj
 0001:000fca40       ?_Lock@?$basic_filebuf@DU?$char_traits@D@std@@@std@@UEAAXXZ 00000001400fda40 f i shdrchk.obj
 0001:000fca60       ??1?$basic_filebuf@DU?$char_traits@D@std@@@std@@UEAA@XZ 00000001400fda60 f i shdrchk.obj
 0001:000fcbc0       ?setbuf@?$basic_streambuf@DU?$char_traits@D@std@@@std@@MEAAPEAV12@PEAD_J@Z 00000001400fdbc0 f i shdrchk.obj
 0001:000fcbd0       ?seekoff@?$basic_streambuf@DU?$char_traits@D@std@@@std@@MEAA?AV?$fpos@U_Mbstatet@@@2@_JHH@Z 00000001400fdbd0 f i shdrchk.obj
 0001:000fcbd0       ?seekpos@?$basic_streambuf@DU?$char_traits@D@std@@@std@@MEAA?AV?$fpos@U_Mbstatet@@@2@V32@H@Z 00000001400fdbd0 f i shdrchk.obj
 0001:000fcbf0       ?xsputn@?$basic_streambuf@DU?$char_traits@D@std@@@std@@MEAA_JPEBD_J@Z 00000001400fdbf0 f i shdrchk.obj
 0001:000fccb0       ?xsgetn@?$basic_streambuf@DU?$char_traits@D@std@@@std@@MEAA_JPEAD_J@Z 00000001400fdcb0 f i shdrchk.obj
 0001:000fcd60       ?uflow@?$basic_streambuf@DU?$char_traits@D@std@@@std@@MEAAHXZ 00000001400fdd60 f i shdrchk.obj
 0001:000fcda0       ?overflow@?$basic_streambuf@DU?$char_traits@D@std@@@std@@MEAAHH@Z 00000001400fdda0 f i shdrchk.obj
 0001:000fcda0       ?pbackfail@?$basic_streambuf@DU?$char_traits@D@std@@@std@@MEAAHH@Z 00000001400fdda0 f i shdrchk.obj
 0001:000fcda0       ?underflow@?$basic_streambuf@DU?$char_traits@D@std@@@std@@MEAAHXZ 00000001400fdda0 f i shdrchk.obj
 0001:000fcdb0       ?tellg@?$basic_istream@DU?$char_traits@D@std@@@std@@QEAA?AV?$fpos@U_Mbstatet@@@2@XZ 00000001400fddb0 f i shdrchk.obj
 0001:000fce90       ?seekg@?$basic_istream@DU?$char_traits@D@std@@@std@@QEAAAEAV12@_JH@Z 00000001400fde90 f i shdrchk.obj
 0001:000fd080       ?read@?$basic_istream@DU?$char_traits@D@std@@@std@@QEAAAEAV12@PEAD_J@Z 00000001400fe080 f i shdrchk.obj
 0001:000fd1d0       ??1?$basic_istream@DU?$char_traits@D@std@@@std@@UEAA@XZ 00000001400fe1d0 f i shdrchk.obj
 0001:000fd200       ??1?$basic_ios@DU?$char_traits@D@std@@@std@@UEAA@XZ 00000001400fe200 f i shdrchk.obj
 0001:000fd220       ??1?$_Yarn@D@std@@QEAA@XZ  00000001400fe220 f i shdrchk.obj
 0001:000fd220       ??1?$_Yarn@_W@std@@QEAA@XZ 00000001400fe220 f i shdrchk.obj
 0001:000fd250       ??_E?$basic_filebuf@DU?$char_traits@D@std@@@std@@UEAAPEAXI@Z 00000001400fe250 f i * CIL library *:* CIL module *
 0001:000fd250       ??_G?$basic_filebuf@DU?$char_traits@D@std@@@std@@UEAAPEAXI@Z 00000001400fe250 f i shdrchk.obj
 0001:000fd290       ??_E?$basic_streambuf@DU?$char_traits@D@std@@@std@@UEAAPEAXI@Z 00000001400fe290 f i * CIL library *:* CIL module *
 0001:000fd290       ??_G?$basic_streambuf@DU?$char_traits@D@std@@@std@@UEAAPEAXI@Z 00000001400fe290 f i shdrchk.obj
 0001:000fd310       ??_E?$basic_ifstream@DU?$char_traits@D@std@@@std@@UEAAPEAXI@Z 00000001400fe310 f i * CIL library *:* CIL module *
 0001:000fd310       ??_G?$basic_ifstream@DU?$char_traits@D@std@@@std@@UEAAPEAXI@Z 00000001400fe310 f i shdrchk.obj
 0001:000fd350       ??1sentry@?$basic_istream@DU?$char_traits@D@std@@@std@@QEAA@XZ 00000001400fe350 f i shdrchk.obj
 0001:000fd380       ??_E?$basic_istream@DU?$char_traits@D@std@@@std@@UEAAPEAXI@Z 00000001400fe380 f i * CIL library *:* CIL module *
 0001:000fd380       ??_G?$basic_istream@DU?$char_traits@D@std@@@std@@UEAAPEAXI@Z 00000001400fe380 f i shdrchk.obj
 0001:000fd3f0       ??_E?$basic_ios@DU?$char_traits@D@std@@@std@@UEAAPEAXI@Z 00000001400fe3f0 f i * CIL library *:* CIL module *
 0001:000fd3f0       ??_G?$basic_ios@DU?$char_traits@D@std@@@std@@UEAAPEAXI@Z 00000001400fe3f0 f i shdrchk.obj
 0001:000fd430       ?do_length@?$codecvt@DDU_Mbstatet@@@std@@MEBAHAEAU_Mbstatet@@PEBD1_K@Z 00000001400fe430 f i shdrchk.obj
 0001:000fd450       ?do_unshift@?$codecvt@DDU_Mbstatet@@@std@@MEBAHAEAU_Mbstatet@@PEAD1AEAPEAD@Z 00000001400fe450 f i shdrchk.obj
 0001:000fd460       ?do_in@?$codecvt@DDU_Mbstatet@@@std@@MEBAHAEAU_Mbstatet@@PEBD1AEAPEBDPEAD3AEAPEAD@Z 00000001400fe460 f i shdrchk.obj
 0001:000fd460       ?do_out@?$codecvt@DDU_Mbstatet@@@std@@MEBAHAEAU_Mbstatet@@PEBD1AEAPEBDPEAD3AEAPEAD@Z 00000001400fe460 f i shdrchk.obj
 0001:000fd480       ?_Reset_back@?$basic_filebuf@DU?$char_traits@D@std@@@std@@AEAAXXZ 00000001400fe480 f i shdrchk.obj
 0001:000fd4b0       ?_Initcvt@?$basic_filebuf@DU?$char_traits@D@std@@@std@@IEAAXAEBV?$codecvt@DDU_Mbstatet@@@2@@Z 00000001400fe4b0 f i shdrchk.obj
 0001:000fd530       ?_Endwrite@?$basic_filebuf@DU?$char_traits@D@std@@@std@@IEAA_NXZ 00000001400fe530 f i shdrchk.obj
 0001:000fd620       ?_Init@?$basic_filebuf@DU?$char_traits@D@std@@@std@@IEAAXPEAU_iobuf@@W4_Initfl@12@@Z 00000001400fe620 f i shdrchk.obj
 0001:000fd6f0       ?_Gnavail@?$basic_streambuf@DU?$char_traits@D@std@@@std@@IEBA_JXZ 00000001400fe6f0 f i shdrchk.obj
 0001:000fd710       ??0?$basic_ifstream@DU?$char_traits@D@std@@@std@@QEAA@PEBDHH@Z 00000001400fe710 f i shdrchk.obj
 0001:000fd9c0       ??_E?$codecvt@DDU_Mbstatet@@@std@@MEAAPEAXI@Z 00000001400fe9c0 f i * CIL library *:* CIL module *
 0001:000fd9c0       ??_G?$codecvt@DDU_Mbstatet@@@std@@MEAAPEAXI@Z 00000001400fe9c0 f i shdrchk.obj
 0001:000fd9f0       ?_Ipfx@?$basic_istream@DU?$char_traits@D@std@@@std@@QEAA_N_N@Z 00000001400fe9f0 f i shdrchk.obj
 0001:000fdab0       ??0?$basic_istream@DU?$char_traits@D@std@@@std@@QEAA@PEAV?$basic_streambuf@DU?$char_traits@D@std@@@1@_N@Z 00000001400feab0 f i shdrchk.obj
 0001:000fdc20       ??0?$basic_streambuf@DU?$char_traits@D@std@@@std@@IEAA@XZ 00000001400fec20 f i shdrchk.obj
 0001:000fdd00       ?init@?$basic_ios@DU?$char_traits@D@std@@@std@@IEAAXPEAV?$basic_streambuf@DU?$char_traits@D@std@@@2@_N@Z 00000001400fed00 f i shdrchk.obj
 0001:000fde60       ??$use_facet@V?$ctype@D@std@@@std@@YAAEBV?$ctype@D@0@AEBVlocale@0@@Z 00000001400fee60 f i shdrchk.obj
 0001:000fdf70       ??$use_facet@V?$codecvt@DDU_Mbstatet@@@std@@@std@@YAAEBV?$codecvt@DDU_Mbstatet@@@0@AEBVlocale@0@@Z 00000001400fef70 f i shdrchk.obj
 0001:000fe080       ??$_Reallocate_grow_by@V<lambda_319d5e083f45f90dcdce5dce53cbb275>@@D@?$basic_string@DU?$char_traits@D@std@@V?$allocator@D@2@@std@@AEAAAEAV01@_KV<lambda_319d5e083f45f90dcdce5dce53cbb275>@@D@Z 00000001400ff080 f i shdrchk.obj
 0001:000fe1f0       ??1?$unique_ptr@V_Facet_base@std@@U?$default_delete@V_Facet_base@std@@@2@@std@@QEAA@XZ 00000001400ff1f0 f i shdrchk.obj
 0001:000fe210       ?_Getcat@?$codecvt@DDU_Mbstatet@@@std@@SA_KPEAPEBVfacet@locale@2@PEBV42@@Z 00000001400ff210 f i shdrchk.obj
 0001:000fe388       ??_E?$basic_ifstream@DU?$char_traits@D@std@@@std@@$4PPPPPPPM@A@EAAPEAXI@Z 00000001400ff388 f i shdrchk.obj
 0001:000fe394       ??_E?$basic_istream@DU?$char_traits@D@std@@@std@@$4PPPPPPPM@A@EAAPEAXI@Z 00000001400ff394 f i shdrchk.obj
 0001:000fe3a0       ?SV_NPC_MoveTest@@YA_NPEAUedict_t@@AEBVVector@@_N@Z 00000001400ff3a0 f   sv_move.obj
 0001:000fe610       ?SV_NPC_MoveStep@@YA_NPEAUedict_t@@AEBVVector@@_N2@Z 00000001400ff610 f   sv_move.obj
 0001:000ff340       ?SV_NPC_StepDirection@@YA_NPEAUedict_t@@MM@Z 0000000140100340 f   sv_move.obj
 0001:000ff3f0       ?SV_NPC_NewChaseDir@@YAXPEAUedict_t@@AEBVVector@@M@Z 00000001401003f0 f   sv_move.obj
 0001:000ff760       ?SV_NPC_MoveToOrigin@@YAXPEAUedict_t@@AEBVVector@@MMW4npc_movetype_t@@@Z 0000000140100760 f   sv_move.obj
 0001:000ff850       ??0textschema_t@CTextSchemas@@QEAA@XZ 0000000140100850 f i textschemas.obj
 0001:000ff8d0       ?GetSchemaFontSet@CTextSchemas@@QEAAPEBUfont_set_t@@PEBD@Z 00000001401008d0 f   textschemas.obj
 0001:000ffa20       ?GetResolutionSchemaFontSet@CTextSchemas@@QEAAPEBUfont_set_t@@PEBDI@Z 0000000140100a20 f   textschemas.obj
 0001:000ffbf0       ?LoadSchema@CTextSchemas@@AEAAPEBUtextschema_t@1@PEBD@Z 0000000140100bf0 f   textschemas.obj
 0001:00101b00       ??1textschema_t@CTextSchemas@@QEAA@XZ 0000000140102b00 f i textschemas.obj
 0001:00101b50       ?add@?$CLinkedList@Utextschema_t@CTextSchemas@@@@QEAAPEAUlink_t@1@Utextschema_t@CTextSchemas@@@Z 0000000140102b50 f i textschemas.obj
 0001:00101cc0       ?clear@?$CLinkedList@Utextschema_t@CTextSchemas@@@@QEAAXXZ 0000000140102cc0 f i textschemas.obj
 0001:00101ec0       ?resize@?$CArray@Utext_reschema_t@CTextSchemas@@@@QEAAXI@Z 0000000140102ec0 f i textschemas.obj
 0001:00101ff0       ??0usermsg_t@@QEAA@XZ      0000000140102ff0 f i usermsg.obj
 0001:00102030       ?UserMSG_RegisterUserMessage@@YAHAEAV?$CArray@Uusermsg_t@@@@PEBDH@Z 0000000140103030 f   usermsg.obj
 0001:001023d0       ?UserMSG_UserMessageBegin@@YAXAEAV?$CArray@Uusermsg_t@@@@AEAUusermsgdata_t@@W4msgdest_t@@HPEBVVector@@PEBUedict_t@@@Z 00000001401033d0 f   usermsg.obj
 0001:001024c0       ?UserMSG_Msg_CheckBuffer@@YAXAEAUusermsgdata_t@@I@Z 00000001401034c0 f   usermsg.obj
 0001:00102590       ?UserMSG_Msg_WriteUint16@@YAXAEAUusermsgdata_t@@G@Z 0000000140103590 f   usermsg.obj
 0001:001025f0       ?UserMSG_Msg_WriteSmallFloat@@YAXAEAUusermsgdata_t@@M@Z 00000001401035f0 f   usermsg.obj
 0001:00102670       ?UserMSG_Msg_WriteBuffer@@YAXAEAUusermsgdata_t@@PEBEI@Z 0000000140103670 f   usermsg.obj
 0001:00102700       ?UserMSG_Msg_WriteString@@YAXAEAUusermsgdata_t@@PEBD@Z 0000000140103700 f   usermsg.obj
 0001:001027e0       ?resize@?$CArray@Uusermsg_t@@@@QEAAXI@Z 00000001401037e0 f i usermsg.obj
 0001:00102980       ?TR_VBMInitHulls@@YAXPEBUstudiohdr_t@@W4hull_types_t@@AEAUentity_vbmhulldata_t@@@Z 0000000140103980 f   vbmtrace.obj
 0001:00102b80       ?TR_VBMCheckHullInfo@@YA_NPEAUentity_vbmhulldata_t@@PEBUcache_model_t@@MAEBUentity_state_t@@@Z 0000000140103b80 f   vbmtrace.obj
 0001:00102ca0       ?TR_VBMSetupBones@@YAXPEAUentity_vbmhulldata_t@@PEBUstudiohdr_t@@MMPEBUmstudioseqdesc_t@@PEBUcache_model_t@@AEBUentity_state_t@@@Z 0000000140103ca0 f   vbmtrace.obj
 0001:00103b40       ?TR_VBMSetStateInfo@@YAXPEAUentity_vbmhulldata_t@@PEBUcache_model_t@@MAEBUentity_state_t@@@Z 0000000140104b40 f   vbmtrace.obj
 0001:00103bc0       ?TR_VBMSetHullInfo@@YAXAEAPEAUentity_vbmhulldata_t@@PEBUcache_model_t@@AEBVVector@@2AEBUentity_state_t@@MW4hull_types_t@@@Z 0000000140104bc0 f   vbmtrace.obj
 0001:00104430       ?TR_VBMGetHulls@@YAPEBV?$CArray@Uvbmhitboxhull_t@@@@PEAUentity_vbmhulldata_t@@AEBVVector@@1W4hull_types_t@@HPEAV3@@Z 0000000140105430 f   vbmtrace.obj
 0001:001044f0       ?TR_VBMHullCheck@@YAXPEBV?$CArray@Uvbmhitboxhull_t@@@@AEBVVector@@1AEAUtrace_t@@@Z 00000001401054f0 f   vbmtrace.obj
 0001:00104690       ?resize@?$CArray@Uvbmhitboxhull_t@@@@QEAAXI@Z 0000000140105690 f i vbmtrace.obj
 0001:00104a90       ?LoadSaveFile@CSaveRestore@@QEAAPEBEPEBDPEAI@Z 0000000140105a90 f   saverestore.obj
 0001:00104b50       ?CleanSaveFiles@CSaveRestore@@AEAAXPEBD@Z 0000000140105b50 f   saverestore.obj
 0001:00105490       ?GetMostRecentSave@CSaveRestore@@QEAA_NPEAVCString@@@Z 0000000140106490 f   saverestore.obj
 0001:00105b00       ?LoadGlobalsFromSaveFile@CSaveRestore@@QEAAXPEBUsave_header_t@@@Z 0000000140106b00 f   saverestore.obj
 0001:00105b80       ?LoadConnectionsFromSaveFile@CSaveRestore@@QEAAXPEBUsave_header_t@@@Z 0000000140106b80 f   saverestore.obj
 0001:00105c50       ?LoadSaveData@CSaveRestore@@QEAA_NPEBUsave_header_t@@PEBVVector@@@Z 0000000140106c50 f   saverestore.obj
 0001:00107260       ?CreateSaveFile@CSaveRestore@@QEAA_NPEBDW4savefile_type_t@@PEBVVector@@PEAVCString@@_N@Z 0000000140108260 f   saverestore.obj
 0001:00109590       ?SaveEntity@CSaveRestore@@AEAAXPEAUedict_t@@AEAUsave_edict_info_t@@@Z 000000014010a590 f   saverestore.obj
 0001:00109790       ?SaveToStringBuffer@CSaveRestore@@AEAAAEAUsave_block_t@@PEBD@Z 000000014010a790 f   saverestore.obj
 0001:00109a70       ?SaveToDataBuffer@CSaveRestore@@AEAAAEAUsave_block_t@@PEBEH@Z 000000014010aa70 f   saverestore.obj
 0001:00109bd0       ?SaveField@CSaveRestore@@AEAAPEAUsave_field_t@@PEBDW4entfieldtype_t@@AEBI@Z 000000014010abd0 f   saverestore.obj
 0001:00109c90       ?Save_WriteBool@@YAXPEBDPEBEIW4entfieldtype_t@@@Z 000000014010ac90 f   saverestore.obj
 0001:00109d10       ?Save_WriteByte@@YAXPEBDPEBEIW4entfieldtype_t@@@Z 000000014010ad10 f   saverestore.obj
 0001:00109d10       ?Save_WriteChar@@YAXPEBDPEBEIW4entfieldtype_t@@@Z 000000014010ad10 f   saverestore.obj
 0001:00109d70       ?Save_WriteInt16@@YAXPEBDPEBEIW4entfieldtype_t@@@Z 000000014010ad70 f   saverestore.obj
 0001:00109d70       ?Save_WriteUint16@@YAXPEBDPEBEIW4entfieldtype_t@@@Z 000000014010ad70 f   saverestore.obj
 0001:00109df0       ?Save_WriteInt32@@YAXPEBDPEBEIW4entfieldtype_t@@@Z 000000014010adf0 f   saverestore.obj
 0001:00109df0       ?Save_WriteUint32@@YAXPEBDPEBEIW4entfieldtype_t@@@Z 000000014010adf0 f   saverestore.obj
 0001:00109e70       ?Save_WriteInt64@@YAXPEBDPEBEIW4entfieldtype_t@@@Z 000000014010ae70 f   saverestore.obj
 0001:00109e70       ?Save_WriteUint64@@YAXPEBDPEBEIW4entfieldtype_t@@@Z 000000014010ae70 f   saverestore.obj
 0001:00109ef0       ?Save_WriteFloat@@YAXPEBDPEBEIW4entfieldtype_t@@@Z 000000014010aef0 f   saverestore.obj
 0001:00109f70       ?Save_WriteDouble@@YAXPEBDPEBEIW4entfieldtype_t@@@Z 000000014010af70 f   saverestore.obj
 0001:00109ff0       ?Save_WriteTime@@YAXPEBDPEBEIW4entfieldtype_t@@@Z 000000014010aff0 f   saverestore.obj
 0001:0010a0a0       ?Save_WriteString@@YAXPEBDPEBEIW4entfieldtype_t@@@Z 000000014010b0a0 f   saverestore.obj
 0001:0010a120       ?Save_WriteRawString@@YAXPEBDPEBEW4entfieldtype_t@@@Z 000000014010b120 f   saverestore.obj
 0001:0010a180       ?Save_WriteVector@@YAXPEBDPEBEIW4entfieldtype_t@@@Z 000000014010b180 f   saverestore.obj
 0001:0010a220       ?Save_WriteCoord@@YAXPEBDPEBEIW4entfieldtype_t@@@Z 000000014010b220 f   saverestore.obj
 0001:0010a2e0       ?Save_WriteEntindex@@YAXPEBDPEBEIW4entfieldtype_t@@@Z 000000014010b2e0 f   saverestore.obj
 0001:0010a3f0       ?Save_WriteGlobalState@@YAXIPEBD0W4globalstate_state_t@@@Z 000000014010b3f0 f   saverestore.obj
 0001:0010a520       ?resize@?$CArray@Usave_edict_info_t@@@@QEAAXI@Z 000000014010b520 f i saverestore.obj
 0001:0010a7f0       ?resize@?$CArray@Usave_field_t@@@@QEAAXI@Z 000000014010b7f0 f i saverestore.obj
 0001:0010a910       ?resize@?$CArray@Usave_block_t@@@@QEAAXI@Z 000000014010b910 f i saverestore.obj
 0001:0010aa40       ?resize@?$CArray@Usaved_string_t@CSaveRestore@@@@QEAAXI@Z 000000014010ba40 f i saverestore.obj
 0001:0010ab70       ??1?$CLinkedList@Usave_decalinfo_t@@@@QEAA@XZ 000000014010bb70 f i saverestore.obj
 0001:0010aba0       ?clear@?$CLinkedList@Usave_decalinfo_t@@@@QEAAXXZ 000000014010bba0 f i saverestore.obj
 0001:0010ad70       ?TR_InitBoxHull@@YAXXZ     000000014010bd70 f   trace_shared.obj
 0001:0010b160       ?TR_MoveBounds@@YAXAEBVVector@@000AEAV1@1@Z 000000014010c160 f   trace_shared.obj
 0001:0010b300       ?TR_MoveBoundsPoint@@YAXAEBVVector@@0AEAV1@1@Z 000000014010c300 f   trace_shared.obj
 0001:0010b420       ?TR_TraceTexture@@YAPEBDAEBUentity_state_t@@AEBVVector@@1@Z 000000014010c420 f   trace_shared.obj
 0001:0010b600       ?TR_HullPointContents@@YAHPEBUhull_t@@HAEBVVector@@@Z 000000014010c600 f   trace_shared.obj
 0001:0010b6e0       ?TR_RecursiveHullCheck@@YA_NPEBUhull_t@@HNNAEBVVector@@1AEAUtrace_t@@@Z 000000014010c6e0 f   trace_shared.obj
 0001:0010bbc0       ?TR_PlayerTraceSingleEntity@@YAXAEBUentity_state_t@@PEAUentity_vbmhulldata_t@@AEBVVector@@2W4hull_types_t@@H22AEAUtrace_t@@@Z 000000014010cbc0 f   trace_shared.obj
 0001:0010bfd0       ??0bsp_texture_t@@QEAA@XZ  000000014010cfd0 f i r_bsp.obj
 0001:0010c010       ??0CBSPRenderer@@QEAA@XZ   000000014010d010 f   r_bsp.obj
 0001:0010c1d0       ?Init@CBSPRenderer@@QEAA_NXZ 000000014010d1d0 f   r_bsp.obj
 0001:0010ca50       ?InitGL@CBSPRenderer@@QEAA_NXZ 000000014010da50 f   r_bsp.obj
 0001:0010e580       ?LoadTextures@CBSPRenderer@@AEAAXXZ 000000014010f580 f   r_bsp.obj
 0001:0010e770       ?ClearGame@CBSPRenderer@@QEAAXXZ 000000014010f770 f   r_bsp.obj
 0001:0010eb90       ??_Gbsp_decal_t@@QEAAPEAXI@Z 000000014010fb90 f i r_bsp.obj
 0001:0010ec20       ?InitLightmaps@CBSPRenderer@@QEAAX_N@Z 000000014010fc20 f   r_bsp.obj
 0001:0010f400       ?InitVBO@CBSPRenderer@@QEAAXXZ 0000000140110400 f   r_bsp.obj
 0001:00110f30       ?LoadMapTexture@CBSPRenderer@@AEAAPEAUen_material_t@@AEAVCWADTextureResource@@AEBV?$CArray@VCString@@@@PEBD@Z 0000000140111f30 f   r_bsp.obj
 0001:00111510       ?InitTextures@CBSPRenderer@@AEAAXAEAVCWADTextureResource@@AEBV?$CArray@VCString@@@@@Z 0000000140112510 f   r_bsp.obj
 0001:001119b0       ?DrawNormal@CBSPRenderer@@QEAA_NXZ 00000001401129b0 f   r_bsp.obj
 0001:00111c80       ?DrawTransparent@CBSPRenderer@@QEAA_NXZ 0000000140112c80 f   r_bsp.obj
 0001:00112020       ?DrawSkyBox@CBSPRenderer@@QEAA_N_N@Z 0000000140113020 f   r_bsp.obj
 0001:00112490       ?DrawWorld@CBSPRenderer@@AEAA_NXZ 0000000140113490 f   r_bsp.obj
 0001:00112930       ?Prepare@CBSPRenderer@@AEAA_NXZ 0000000140113930 f   r_bsp.obj
 0001:001131e0       ?RecursiveWorldNode@CBSPRenderer@@AEAAXPEAUmnode_t@@@Z 00000001401141e0 f   r_bsp.obj
 0001:00113590       ?FlagIfDynamicLighted@CBSPRenderer@@AEAAXAEBVVector@@0@Z 0000000140114590 f   r_bsp.obj
 0001:00113860       ?DrawFirst@CBSPRenderer@@AEAA_NXZ 0000000140114860 f   r_bsp.obj
 0001:00115710       ?TextureAnimation@CBSPRenderer@@AEAAPEAUmtexture_t@@PEAU2@I@Z 0000000140116710 f   r_bsp.obj
 0001:001157b0       ?BindTextures@CBSPRenderer@@AEAA_NPEAUbsp_texture_t@@PEAUcubemapinfo_t@@1AEAI@Z 00000001401167b0 f   r_bsp.obj
 0001:00116120       ?DrawBrushModel@CBSPRenderer@@AEAA_NAEAUcl_entity_t@@_N@Z 0000000140117120 f   r_bsp.obj
 0001:00116c10       ?SetupLight@CBSPRenderer@@AEAA_NPEAUcl_dlight_t@@IAEAIW4lightbatchtype_t@@@Z 0000000140117c10 f   r_bsp.obj
 0001:00117880       ?DrawLights@CBSPRenderer@@AEAA_N_N@Z 0000000140118880 f   r_bsp.obj
 0001:00119fc0       ?DrawFinal@CBSPRenderer@@AEAA_NXZ 000000014011afc0 f   r_bsp.obj
 0001:0011bc20       ?PrepareVSM@CBSPRenderer@@AEAAXXZ 000000014011cc20 f   r_bsp.obj
 0001:0011be20       ?DrawVSMFaces@CBSPRenderer@@AEAA_NXZ 000000014011ce20 f   r_bsp.obj
 0001:0011c170       ?DrawVSM@CBSPRenderer@@QEAA_NPEAUcl_dlight_t@@PEAPEAUcl_entity_t@@I_N@Z 000000014011d170 f   r_bsp.obj
 0001:0011c700       ?BatchBrushModelForVSM@CBSPRenderer@@AEAA_NAEAUcl_entity_t@@_N@Z 000000014011d700 f   r_bsp.obj
 0001:0011cff0       ?CreateDecal@CBSPRenderer@@QEAAXAEBVVector@@0PEAUdecalgroupentry_t@@EMMM@Z 000000014011dff0 f   r_bsp.obj
 0001:0011e730       ?RemoveDecalFromVBO@CBSPRenderer@@AEAAXPEAUbsp_decal_t@@@Z 000000014011f730 f   r_bsp.obj
 0001:0011ea00       ?RecursivePasteDecal@CBSPRenderer@@AEAAXPEAUmnode_t@@PEAUbsp_decal_t@@EAEBVVector@@2@Z 000000014011fa00 f   r_bsp.obj
 0001:0011ed90       ?DecalSurface@CBSPRenderer@@AEAAXPEBUmsurface_t@@PEAUbsp_decal_t@@AEBVVector@@2_NPEAUen_texture_t@@@Z 000000014011fd90 f   r_bsp.obj
 0001:00120710       ?DrawDecal@CBSPRenderer@@AEAA_NPEAUbsp_decal_t@@_NAEAW4decal_rendermode_t@@@Z 0000000140121710 f   r_bsp.obj
 0001:001216e0       ?DrawDecals@CBSPRenderer@@AEAA_N_N@Z 00000001401226e0 f   r_bsp.obj
 0001:00121cc0       ?DrawNormalDecals@CBSPRenderer@@QEAA_NXZ 0000000140122cc0 f   r_bsp.obj
 0001:00121f50       ?resize@?$CArray@Udrawbatch_t@@@@QEAAXI@Z 0000000140122f50 f i r_bsp.obj
 0001:001220a0       ?resize@?$CArray@Ubsp_surface_t@@@@QEAAXI@Z 00000001401230a0 f i r_bsp.obj
 0001:001224a0       ??1?$CArray@Ubsp_texture_t@@@@QEAA@XZ 00000001401234a0 f i r_bsp.obj
 0001:001224e0       ?resize@?$CArray@Ubsp_texture_t@@@@QEAAXI@Z 00000001401234e0 f i r_bsp.obj
 0001:001226e0       ?resize@?$CArray@Ubsp_vertex_t@@@@QEAAXI@Z 00000001401236e0 f i r_bsp.obj
 0001:00122960       ??1bsp_texture_t@@QEAA@XZ  0000000140123960 f i r_bsp.obj
 0001:001229a0       ??4?$CArray@Udrawbatch_t@@@@QEAAXAEBV0@@Z 00000001401239a0 f i r_bsp.obj
 0001:00122a20       ??0CMenu@@QEAA@XZ          0000000140123a20 f   r_menu.obj
 0001:001230b0       ??1CMenu@@QEAA@XZ          00000001401240b0 f   r_menu.obj
 0001:00123370       ?Init@CMenu@@QEAA_NXZ      0000000140124370 f   r_menu.obj
 0001:001237a0       ?PlayMenuSound@CMenu@@SAXPEBD@Z 00000001401247a0 f   r_menu.obj
 0001:00123800       ?SetButtons@CMenu@@AEAAXXZ 0000000140124800 f   r_menu.obj
 0001:00123c60       ?DrawMenuBackground@CMenu@@AEAA_NPEAVCBasicDraw@@@Z 0000000140124c60 f   r_menu.obj
 0001:001248e0       ?DrawMenuElements@CMenu@@AEAA?AW4rendercode_t@1@PEAVCBasicDraw@@@Z 00000001401258e0 f   r_menu.obj
 0001:00125330       ?DrawMenuFade@CMenu@@QEAA_NXZ 0000000140126330 f   r_menu.obj
 0001:00125a30       ?ButtonAction@CMenu@@QEAAXW4mbutton_t@1@@Z 0000000140126a30 f   r_menu.obj
 0001:00125ca0       ?ShowMenu@CMenu@@QEAAXXZ   0000000140126ca0 f   r_menu.obj
 0001:00125e90       ?HideMenu@CMenu@@QEAAXXZ   0000000140126e90 f   r_menu.obj
 0001:00125fb0       ?FreeSaveBackgroundTextures@CMenu@@QEAAXXZ 0000000140126fb0 f   r_menu.obj
 0001:00126050       ?PauseMenuMusic@CMenu@@QEAAXXZ 0000000140127050 f   r_menu.obj
 0001:00126100       ?ResumeMenuMusic@CMenu@@QEAAXXZ 0000000140127100 f   r_menu.obj
 0001:00126470       ?UpdateContineButton@CMenu@@QEAAXXZ 0000000140127470 f   r_menu.obj
 0001:001265c0       ?ClearLatestSaveFile@CMenu@@QEAAXXZ 00000001401275c0 f   r_menu.obj
 0001:001266a0       ?Think@CMenuButton@@QEAAXXZ 00000001401276a0 f   r_menu.obj
 0001:001269b0       ?IsCursorOver@CMenuButton@@QEBA_NHH@Z 00000001401279b0 f   r_menu.obj
 0001:00126a90       ?Cmd_Sys_Quit@@YAXXZ       0000000140127a90 f   sys_cmd.obj
 0001:00126aa0       ?Cmd_LoadMap@@YAXXZ        0000000140127aa0 f   sys_cmd.obj
 0001:00126cf0       ?Cmd_ListMaps@@YAXXZ       0000000140127cf0 f   sys_cmd.obj
 0001:001271e0       ?Cmd_Pause@@YAXXZ          00000001401281e0 f   sys_cmd.obj
 0001:00127200       ?Cmd_Save@@YAXXZ           0000000140128200 f   sys_cmd.obj
 0001:001272b0       ?Cmd_QuickSave@@YAXXZ      00000001401282b0 f   sys_cmd.obj
 0001:00127370       ?Cmd_AutoSave@@YAXXZ       0000000140128370 f   sys_cmd.obj
 0001:00127430       ?Cmd_Load@@YAXXZ           0000000140128430 f   sys_cmd.obj
 0001:00127790       ?Cmd_God@@YAXXZ            0000000140128790 f   sys_cmd.obj
 0001:00127850       ?Cmd_Notarget@@YAXXZ       0000000140128850 f   sys_cmd.obj
 0001:00127910       ?Cmd_Noclip@@YAXXZ         0000000140128910 f   sys_cmd.obj
 0001:001279c0       ?Cmd_Restart@@YAXXZ        00000001401289c0 f   sys_cmd.obj
 0001:00127ac0       ?Cmd_Reload@@YAXXZ         0000000140128ac0 f   sys_cmd.obj
 0001:00127b70       ?Cmd_Snapshot@@YAXXZ       0000000140128b70 f   sys_cmd.obj
 0001:00128430       ?Cmd_ChangeLevel@@YAXXZ    0000000140129430 f   sys_cmd.obj
 0001:001284b0       ?Sys_InitCVars@@YAXXZ      00000001401294b0 f   sys_cmd.obj
 0001:00128660       ??1?$vector@V?$basic_string@DU?$char_traits@D@std@@V?$allocator@D@2@@std@@V?$allocator@V?$basic_string@DU?$char_traits@D@std@@V?$allocator@D@2@@std@@@2@@std@@QEAA@XZ 0000000140129660 f i sys_cmd.obj
 0001:001286f0       ?deallocate@?$allocator@V?$basic_string@DU?$char_traits@D@std@@V?$allocator@D@2@@std@@@std@@QEAAXQEAV?$basic_string@DU?$char_traits@D@std@@V?$allocator@D@2@@2@_K@Z 00000001401296f0 f i sys_cmd.obj
 0001:00128740       ??$_Destroy_range@V?$allocator@V?$basic_string@DU?$char_traits@D@std@@V?$allocator@D@2@@std@@@std@@@std@@YAXPEAV?$basic_string@DU?$char_traits@D@std@@V?$allocator@D@2@@0@QEAV10@AEAV?$allocator@V?$basic_string@DU?$char_traits@D@std@@V?$allocator@D@2@@std@@@0@@Z 0000000140129740 f i sys_cmd.obj
 0001:00128780       ??$_Emplace_reallocate@AEBV?$basic_string@DU?$char_traits@D@std@@V?$allocator@D@2@@std@@@?$vector@V?$basic_string@DU?$char_traits@D@std@@V?$allocator@D@2@@std@@V?$allocator@V?$basic_string@DU?$char_traits@D@std@@V?$allocator@D@2@@std@@@2@@std@@AEAAPEAV?$basic_string@DU?$char_traits@D@std@@V?$allocator@D@2@@1@QEAV21@AEBV21@@Z 0000000140129780 f i sys_cmd.obj
 0001:00128960       ?_Xlength@?$vector@V?$basic_string@DU?$char_traits@D@std@@V?$allocator@D@2@@std@@V?$allocator@V?$basic_string@DU?$char_traits@D@std@@V?$allocator@D@2@@std@@@2@@std@@CAXXZ 0000000140129960 f i sys_cmd.obj
 0001:00128980       ??$_Uninitialized_move@PEAV?$basic_string@DU?$char_traits@D@std@@V?$allocator@D@2@@std@@V?$allocator@V?$basic_string@DU?$char_traits@D@std@@V?$allocator@D@2@@std@@@2@@std@@YAPEAV?$basic_string@DU?$char_traits@D@std@@V?$allocator@D@2@@0@QEAV10@0PEAV10@AEAV?$allocator@V?$basic_string@DU?$char_traits@D@std@@V?$allocator@D@2@@std@@@0@@Z 0000000140129980 f i sys_cmd.obj
 0001:001289f0       ?Sys_LoadGameInfo@@YA_NPEAV?$CArray@VCString@@@@@Z 00000001401299f0 f   sys_misc.obj
 0001:00129ac0       ?Sys_CheckLaunchArgs@@YAHPEBD@Z 000000014012aac0 f   sys_misc.obj
 0001:00129bc0       ??0cmd_definition_t@CCommandManager@@QEAA@XZ 000000014012abc0 f i commands.obj
 0001:00129c20       ?CreateCommand@CCommandManager@@QEAAXPEBDP6AXXZ0H@Z 000000014012ac20 f   commands.obj
 0001:0012a030       ?IncreaseBufferSize@CCommandManager@@AEAAXXZ 000000014012b030 f   commands.obj
 0001:0012a0d0       ?AddCommand@CCommandManager@@QEAAXPEBD@Z 000000014012b0d0 f   commands.obj
 0001:0012a180       ?ExecuteCommands@CCommandManager@@QEAAXXZ 000000014012b180 f   commands.obj
 0001:0012a360       ?CacheCommand@CCommandManager@@QEAAXPEBD@Z 000000014012b360 f   commands.obj
 0001:0012a8e0       ?ExecuteCommand@CCommandManager@@QEAA_NPEBD_N@Z 000000014012b8e0 f   commands.obj
 0001:0012ab60       ?ForwardToServer@CCommandManager@@QEBA_NXZ 000000014012bb60 f   commands.obj
 0001:0012ad90       ??1?$CArray@Ucmd_definition_t@CCommandManager@@@@QEAA@XZ 000000014012bd90 f i commands.obj
 0001:0012ad90       ??1?$CArray@Uglsl_determinator_t@CGLSLShader@@@@QEAA@XZ 000000014012bd90 f i r_glsl.obj
 0001:0012ade0       ??_Ecmd_definition_t@CCommandManager@@QEAAPEAXI@Z 000000014012bde0 f i commands.obj
 0001:0012ade0       ??_Eglsl_determinator_t@CGLSLShader@@QEAAPEAXI@Z 000000014012bde0 f i r_glsl.obj
 0001:0012ae20       ?resize@?$CArray@Ucmd_definition_t@CCommandManager@@@@QEAAXI@Z 000000014012be20 f i commands.obj
 0001:0012afe0       ??0conf_field_t@@QEAA@XZ   000000014012bfe0 f i config.obj
 0001:0012b040       ?Cmd_ExecScript@@YAXXZ     000000014012c040 f   config.obj
 0001:0012b080       ?SetValue@CConfig@@QEAA_NPEAUconf_group_t@@PEBDH_N@Z 000000014012c080 f   config.obj
 0001:0012b240       ?SetValue@CConfig@@QEAA_NPEAUconf_group_t@@PEBDM_N@Z 000000014012c240 f   config.obj
 0001:0012b400       ?SetValue@CConfig@@QEAA_NPEBD0M_N@Z 000000014012c400 f   config.obj
 0001:0012b460       ?SetValue@CConfig@@QEAA_NPEAUconf_group_t@@PEBD1_NW4field_type_t@@@Z 000000014012c460 f   config.obj
 0001:0012b7d0       ?DeleteField@CConfig@@QEAA_NPEBD0@Z 000000014012c7d0 f   config.obj
 0001:0012b930       ?GetInt@CConfig@@QEAA?BHPEAUconf_group_t@@PEBD@Z 000000014012c930 f   config.obj
 0001:0012ba90       ?FindGroup@CConfig@@QEAAPEAUconf_group_t@@PEBD@Z 000000014012ca90 f   config.obj
 0001:0012bbb0       ?CreateGroup@CConfig@@QEAAPEAUconf_group_t@@PEBD0W4group_type_t@@@Z 000000014012cbb0 f   config.obj
 0001:0012c000       ?CreateField@CConfig@@QEAAPEAUconf_field_t@@PEAUconf_group_t@@PEBDW4field_type_t@@@Z 000000014012d000 f   config.obj
 0001:0012c360       ??1conf_field_t@@QEAA@XZ   000000014012d360 f i config.obj
 0001:0012c390       ?WriteConfigFile@CConfig@@AEBAXPEAUconf_group_t@@PEBD@Z 000000014012d390 f   config.obj
 0001:0012d9e0       ?ReadSystemConfigFile@CConfig@@AEAAXXZ 000000014012e9e0 f   config.obj
 0001:0012e5a0       ?ReadUserConfigFile@CConfig@@CAXPEBD@Z 000000014012f5a0 f   config.obj
 0001:0012eb40       ?erase@?$CArray@Uconf_field_t@@@@QEAAXI@Z 000000014012fb40 f i config.obj
 0001:0012ece0       ??_Econf_field_t@@QEAAPEAXI@Z 000000014012fce0 f i config.obj
 0001:0012ed20       ?resize@?$CArray@Uconf_field_t@@@@QEAAXI@Z 000000014012fd20 f i config.obj
 0001:0012eee0       ??0keyinfo_t@CInput@@QEAA@XZ 000000014012fee0 f i input.obj
 0001:0012ef40       ?Cmd_BindKey@@YAXXZ        000000014012ff40 f   input.obj
 0001:0012ef50       ?Cmd_UnbindKey@@YAXXZ      000000014012ff50 f   input.obj
 0001:0012ef60       ?Cmd_UnbindAll@@YAXXZ      000000014012ff60 f   input.obj
 0001:0012f070       ?Init@CInput@@QEAA_NXZ     0000000140130070 f   input.obj
 0001:0012f360       ?LoadKeyNames@CInput@@QEAA_NXZ 0000000140130360 f   input.obj
 0001:00130c10       ?KeyEvent@CInput@@QEAAXHF_N@Z 0000000140131c10 f   input.obj
 0001:00131210       ?MouseButtonEvent@CInput@@QEAAXH_N@Z 0000000140132210 f   input.obj
 0001:00131850       ?MouseWheelEvent@CInput@@QEAAXH_NH@Z 0000000140132850 f   input.obj
 0001:00131de0       ?UpdateMousePositions@CInput@@QEAAX_N@Z 0000000140132de0 f   input.obj
 0001:00131f60       ?ResetMouse@CInput@@QEAAXXZ 0000000140132f60 f   input.obj
 0001:00131fc0       ?CmdBindKey@CInput@@QEAAXXZ 0000000140132fc0 f   input.obj
 0001:00132480       ?CmdUnbindKey@CInput@@QEAAXXZ 0000000140133480 f   input.obj
 0001:00132660       ??A?$CArray@Ukeyinfo_t@CInput@@@@QEBAAEAUkeyinfo_t@CInput@@I@Z 0000000140133660 f i input.obj
 0001:001326a0       ??1flexcontroller_t@@QEAA@XZ 00000001401336a0 f i flexmanager.obj
 0001:001326a0       ??1keyinfo_t@CInput@@QEAA@XZ 00000001401336a0 f i input.obj
 0001:001326d0       SDL_main                   00000001401336d0 f   main.obj
 0001:001328a0       fprintf                    00000001401338a0 f i r_main.obj
 0001:001328f0       printf                     00000001401338f0 f i r_main.obj
 0001:00132950       ??0view_info_t@@QEAA@XZ    0000000140133950 f i r_main.obj
 0001:00132b30       ??0renderer_state_t@@QEAA@XZ 0000000140133b30 f i r_main.obj
 0001:00132de0       ??1render_objects_t@@QEAA@XZ 0000000140133de0 f i r_main.obj
 0001:00132e60       ?R_Init@@YA_NXZ            0000000140133e60 f   r_main.obj
 0001:00134590       ?R_Shutdown@@YAXXZ         0000000140135590 f   r_main.obj
 0001:001348c0       ?R_LoadTextureListFile@@YA_NPEBDAEAV?$CArray@PEAUen_texture_t@@@@W4rs_level_t@@PEBH_N@Z 00000001401358c0 f   r_main.obj
 0001:00134e40       ?R_InitGL@@YA_NXZ          0000000140135e40 f   r_main.obj
 0001:001354a0       ?R_ShutdownGL@@YAXXZ       00000001401364a0 f   r_main.obj
 0001:001357f0       ?R_LoadResources@@YA_NXZ   00000001401367f0 f   r_main.obj
 0001:00135d80       ?R_ResetGame@@YAXXZ        0000000140136d80 f   r_main.obj
 0001:00136120       ?R_PopulateExtensionsArray@@YAXXZ 0000000140137120 f   r_main.obj
 0001:00136950       ?R_Bind2DTexture@@YAXHI_N@Z 0000000140137950 f   r_main.obj
 0001:001369e0       ?R_BindCubemapTexture@@YAXHI_N@Z 00000001401379e0 f   r_main.obj
 0001:00136a60       ?R_BindRectangleTexture@@YAXHI_N@Z 0000000140137a60 f   r_main.obj
 0001:00136ae0       ?R_ClearBinds@@YAXXZ       0000000140137ae0 f   r_main.obj
 0001:00136ba0       ?R_SetupView@@YAXAEBUref_params_t@@@Z 0000000140137ba0 f   r_main.obj
 0001:00137000       ?R_SetProjectionMatrix@@YAXMM@Z 0000000140138000 f   r_main.obj
 0001:00137300       ?R_SetModelViewMatrix@@YAXAEBVVector@@0@Z 0000000140138300 f   r_main.obj
 0001:00137550       ?R_MarkLeaves@@YAXAEBVVector@@@Z 0000000140138550 f   r_main.obj
 0001:00137610       ?R_Ent_ModelLight@@YAXPEAUcl_entity_t@@@Z 0000000140138610 f   r_main.obj
 0001:00137b90       ?R_Ent_RotLight@@YAXPEAUcl_entity_t@@@Z 0000000140138b90 f   r_main.obj
 0001:001388c0       ?R_AddSpecialEntity@@YA_NPEAUcl_entity_t@@@Z 00000001401398c0 f   r_main.obj
 0001:00138f30       ?R_AddEntity@@YAXPEAUcl_entity_t@@@Z 0000000140139f30 f   r_main.obj
 0001:00138fe0       ?R_AddEntityLights@@YAXXZ  0000000140139fe0 f   r_main.obj
 0001:00139490       ?R_DrawLogo@@YA_NPEAUen_texture_t@@HH@Z 000000014013a490 f   r_main.obj
 0001:00139db0       ?R_DrawLoadingBackground@@YA_NXZ 000000014013adb0 f   r_main.obj
 0001:0013a570       ?R_DrawNormal@@YA_NXZ      000000014013b570 f   r_main.obj
 0001:0013a830       ?R_DrawViewModelParticles@@YA_NXZ 000000014013b830 f   r_main.obj
 0001:0013a850       ?R_DrawTransparent@@YA_NXZ 000000014013b850 f   r_main.obj
 0001:0013ab10       ?R_Draw@@YA_NAEBUref_params_t@@@Z 000000014013bb10 f   r_main.obj
 0001:0013ad90       ?R_DrawScene@@YA_NXZ       000000014013bd90 f   r_main.obj
 0001:0013b130       ?R_DrawTimeGraph@@YA_NAEAN0@Z 000000014013c130 f   r_main.obj
 0001:0013bb20       ?R_DrawInterface@@YA_NXZ   000000014013cb20 f   r_main.obj
 0001:0013bd30       ?R_DrawLoadingScreen@@YA_NPEBD@Z 000000014013cd30 f   r_main.obj
 0001:0013bfe0       ?R_SetFrustum@@YAXAEAVCFrustum@@AEBVVector@@1MMM_N@Z 000000014013cfe0 f   r_main.obj
 0001:0013c0b0       ?R_Update@@YA_NXZ          000000014013d0b0 f   r_main.obj
 0001:0013cb80       ?R_DrawString@@YA_NUcolor32_t@@HHPEBDPEBUfont_set_t@@@Z 000000014013db80 f   r_main.obj
 0001:0013cc30       ?R_DrawStringBox@@YA_NFFFFFF_NUcolor32_t@@HHPEBDPEBUfont_set_t@@III@Z 000000014013dc30 f   r_main.obj
 0001:0013cda0       ?R_BeginTextRendering@@YA_NPEBUfont_set_t@@@Z 000000014013dda0 f   r_main.obj
 0001:0013cde0       ?R_FinishTextRendering@@YAXPEBUfont_set_t@@@Z 000000014013dde0 f   r_main.obj
 0001:0013ce20       ?R_DrawCharacter@@YA_NPEBUfont_set_t@@HHDIIII@Z 000000014013de20 f   r_main.obj
 0001:0013ce80       ?R_PrintCounters@@YA_NXZ   000000014013de80 f   r_main.obj
 0001:0013d3d0       ?R_AddTempEntity@@YA_NPEAUcl_entity_t@@@Z 000000014013e3d0 f   r_main.obj
 0001:0013d640       ?R_DrawOrigins@@YA_NXZ     000000014013e640 f   r_main.obj
 0001:0013dd40       ?R_AnisotropyCvarCallBack@@YAXPEAVCCVar@@@Z 000000014013ed40 f   r_main.obj
 0001:0013dec0       ?R_ActiveLoadMaxShadersCvarCallBack@@YAXPEAVCCVar@@@Z 000000014013eec0 f   r_main.obj
 0001:0013df40       ?R_LoadSprite@@YAXPEAUcache_model_t@@@Z 000000014013ef40 f   r_main.obj
 0001:0013e450       ?R_RenderFxBlend@@YAMPEAUcl_entity_t@@@Z 000000014013f450 f   r_main.obj
 0001:0013e8b0       ?R_SortEntities@@YAHPEBX0@Z 000000014013f8b0 f   r_main.obj
 0001:0013ea50       ?R_AddShaderForLoading@@YAXPEAVCGLSLShader@@@Z 000000014013fa50 f   r_main.obj
 0001:0013eb40       ?Cmd_PasteDecal@@YAXXZ     000000014013fb40 f   r_main.obj
 0001:0013eea0       ?Cmd_CreateSprite@@YAXXZ   000000014013fea0 f   r_main.obj
 0001:0013f290       ?Cmd_CreateDynamicLight@@YAXXZ 0000000140140290 f   r_main.obj
 0001:0013f520       ?Cmd_CreateSpotLight@@YAXXZ 0000000140140520 f   r_main.obj
 0001:0013f800       ?Cmd_LoadModel@@YAXXZ      0000000140140800 f   r_main.obj
 0001:0013fa00       ?Cmd_EFX_Bubbles@@YAXXZ    0000000140140a00 f   r_main.obj
 0001:0013fc30       ?Cmd_EFX_BubbleTrail@@YAXXZ 0000000140140c30 f   r_main.obj
 0001:0013fe30       ?Cmd_EFX_BreakModel@@YAXXZ 0000000140140e30 f   r_main.obj
 0001:00140140       ?Cmd_EFX_SphereModel@@YAXXZ 0000000140141140 f   r_main.obj
 0001:001403d0       ?Cmd_EFX_FunnelSprite@@YAXXZ 00000001401413d0 f   r_main.obj
 0001:00140600       ?Cmd_EFX_TempModel@@YAXXZ  0000000140141600 f   r_main.obj
 0001:00140930       ?Cmd_EFX_TempSprite@@YAXXZ 0000000140141930 f   r_main.obj
 0001:00140c60       ?Cmd_EFX_ParticleExplosion1@@YAXXZ 0000000140141c60 f   r_main.obj
 0001:00140e40       ?Cmd_EFX_ParticleExplosion2@@YAXXZ 0000000140141e40 f   r_main.obj
 0001:00141020       ?Cmd_EFX_BlobExplosion@@YAXXZ 0000000140142020 f   r_main.obj
 0001:00141200       ?Cmd_EFX_CreateRocketExplosion@@YAXXZ 0000000140142200 f   r_main.obj
 0001:001413e0       ?Cmd_EFX_CreateParticleEffect@@YAXXZ 00000001401423e0 f   r_main.obj
 0001:00141630       ?Cmd_EFX_CreateLavaSplash@@YAXXZ 0000000140142630 f   r_main.obj
 0001:00141810       ?Cmd_EFX_CreateTeleportSplash@@YAXXZ 0000000140142810 f   r_main.obj
 0001:001419f0       ?Cmd_EFX_CreateRocketTrail@@YAXXZ 00000001401429f0 f   r_main.obj
 0001:00141c40       ?Cmd_EFX_BeamSetStart@@YAXXZ 0000000140142c40 f   r_main.obj
 0001:00141e00       ?Cmd_EFX_BeamSetEnd@@YAXXZ 0000000140142e00 f   r_main.obj
 0001:00141fc0       ?Cmd_EFX_BeamLightning@@YAXXZ 0000000140142fc0 f   r_main.obj
 0001:001424e0       ?Cmd_EFX_BeamCirclePoints@@YAXXZ 00000001401434e0 f   r_main.obj
 0001:00142b40       ?Cmd_EFX_BeamEntityPoint@@YAXXZ 0000000140143b40 f   r_main.obj
 0001:001430a0       ?Cmd_EFX_BeamEntities@@YAXXZ 00000001401440a0 f   r_main.obj
 0001:00143470       ?Cmd_EFX_BeamFollow@@YAXXZ 0000000140144470 f   r_main.obj
 0001:001436e0       ?Cmd_EFX_BeamVaporTrail@@YAXXZ 00000001401446e0 f   r_main.obj
 0001:00143c50       ?Cmd_EFX_BeamPoints@@YAXXZ 0000000140144c50 f   r_main.obj
 0001:00144220       ?Cmd_EFX_BeamRing@@YAXXZ   0000000140145220 f   r_main.obj
 0001:001445f0       ?Cmd_EFX_CreateParticle@@YAXXZ 00000001401455f0 f   r_main.obj
 0001:001448e0       ?Cmd_BSPToSMD_Textures@@YAXXZ 00000001401458e0 f   r_main.obj
 0001:00145740       ?Cmd_BSPToSMD_Lightmap@@YAXXZ 0000000140146740 f   r_main.obj
 0001:00147360       ?Cmd_TimeRefresh@@YAXXZ    0000000140148360 f   r_main.obj
 0001:00147480       ?Cmd_DetailAuto@@YAXXZ     0000000140148480 f   r_main.obj
 0001:00147e40       ?Cmd_ListDefaultMaterials@@YAXXZ 0000000140148e40 f   r_main.obj
 0001:00148520       ?Cmd_SetTextureMaterialType@@YAXXZ 0000000140149520 f   r_main.obj
 0001:00148f30       ?Cmd_ShowListMaterial@@YAXXZ 0000000140149f30 f   r_main.obj
 0001:00149060       ?Cmd_LoadAllParticleScripts@@YAXXZ 000000014014a060 f   r_main.obj
 0001:00149700       ?remove@?$CLinkedList@Uactive_load_shader_t@@@@QEAAXPEAUlink_t@1@@Z 000000014014a700 f i r_main.obj
 0001:00149860       ??0font_set_t@@QEAA@XZ     000000014014a860 f i r_text.obj
 0001:00149920       ?Shutdown@CText@@QEAAXXZ   000000014014a920 f   r_text.obj
 0001:001499e0       ?InitGL@CText@@QEAA_NXZ    000000014014a9e0 f   r_text.obj
 0001:00149e40       ?ClearGL@CText@@QEAAXXZ    000000014014ae40 f   r_text.obj
 0001:00149fc0       ??_Gfontsetglinfo_t@@QEAAPEAXI@Z 000000014014afc0 f i r_text.obj
 0001:0014a030       ?LoadFont@CText@@QEAAPEBUfont_set_t@@PEBDH_NPEBUcolor32_t@@I@Z 000000014014b030 f   r_text.obj
 0001:0014abe0       ?RenderGlyphs@CText@@AEAA_NPEAUfont_set_t@@PEAUfontsetglinfo_t@@PEAUfont_glyph_t@@PEAUFT_FaceRec_@@IIIIIII_NPEAEI@Z 000000014014bbe0 f   r_text.obj
 0001:0014b390       ?ShouldNewline@CText@@AEAA_NHHPEBUfont_set_t@@PEBD@Z 000000014014c390 f   r_text.obj
 0001:0014b4d0       ?EstimateHeight@CText@@QEAAHPEBUfont_set_t@@PEBDI@Z 000000014014c4d0 f   r_text.obj
 0001:0014b780       ??1line_t@@QEAA@XZ         000000014014c780 f i r_text.obj
 0001:0014b7b0       ?DrawSimpleString@CText@@QEAA_NPEBUfont_set_t@@PEBDHHH@Z 000000014014c7b0 f   r_text.obj
 0001:0014b9a0       ?DrawSimpleStringChars@CText@@AEAAXPEBDPEBUfont_glyph_t@@HHHHHHH_NPEAH3@Z 000000014014c9a0 f   r_text.obj
 0001:0014bc60       ?DrawString@CText@@QEAA_NPEBUfont_set_t@@PEBDHH_NIII@Z 000000014014cc60 f   r_text.obj
 0001:0014c920       ?DrawChar@CText@@QEAA_NPEBUfont_set_t@@DHHIIII@Z 000000014014d920 f   r_text.obj
 0001:0014cc00       ?Prepare@CText@@QEAA_NXZ   000000014014dc00 f   r_text.obj
 0001:0014ced0       ?Reset@CText@@SAXXZ        000000014014ded0 f   r_text.obj
 0001:0014cf80       ?BindSet@CText@@QEAA_NPEBUfont_set_t@@@Z 000000014014df80 f   r_text.obj
 0001:0014d2a0       ?UnBind@CText@@QEAAXPEBUfont_set_t@@@Z 000000014014e2a0 f   r_text.obj
 0001:0014d370       ?clear@?$CLinkedList@Uline_chunk_t@@@@QEAAXXZ 000000014014e370 f i r_text.obj
 0001:0014d530       ?add@?$CLinkedList@Uline_t@@@@QEAAPEAUlink_t@1@Uline_t@@@Z 000000014014e530 f i r_text.obj
 0001:0014d670       ?clear@?$CLinkedList@Uline_t@@@@QEAAXXZ 000000014014e670 f i r_text.obj
 0001:0014d840       ??0dll_export_t@@QEAA@XZ   000000014014e840 f i system.obj
 0001:0014d880       ??0engine_state_t@@QEAA@XZ 000000014014e880 f i system.obj
 0001:0014da50       ?Sys_Init@@YA_NPEAV?$CArray@VCString@@@@@Z 000000014014ea50 f   system.obj
 0001:0014eed0       ?Sys_Shutdown@@YAXXZ       000000014014fed0 f   system.obj
 0001:0014f290       ?Sys_Exit@@YAXXZ           0000000140150290 f   system.obj
 0001:0014f2b0       ?Sys_ErrorPopup@@YAXPEBDZZ 00000001401502b0 f   system.obj
 0001:0014f370       ?Sys_FloatTime@@YANXZ      0000000140150370 f   system.obj
 0001:0014f470       ?Sys_CheckGameDir@@YA_NPEBV?$CArray@VCString@@@@@Z 0000000140150470 f   system.obj
 0001:0014f7d0       ?Sys_ParseLaunchParams@@YA_NPEBV?$CArray@VCString@@@@@Z 00000001401507d0 f   system.obj
 0001:001514a0       ?Sys_PostThink@@YAXXZ      00000001401524a0 f   system.obj
 0001:00151730       ?Sys_SetPaused@@YAX_N0@Z   0000000140152730 f   system.obj
 0001:00151b00       ?Sys_Frame@@YAXN@Z         0000000140152b00 f   system.obj
 0001:00151fd0       ?Sys_Main@@YAHPEAV?$CArray@VCString@@@@@Z 0000000140152fd0 f   system.obj
 0001:001523b0       ?Con_Printf@@YAXPEBDZZ     00000001401533b0 f   system.obj
 0001:001524c0       ?Con_DPrintf@@YAXPEBDZZ    00000001401534c0 f   system.obj
 0001:00152690       ?Con_VPrintf@@YAXPEBDZZ    0000000140153690 f   system.obj
 0001:00152840       ?Con_EPrintf@@YAXPEBDZZ    0000000140153840 f   system.obj
 0001:001529d0       ?resize@?$CArray@Udll_export_t@@@@QEAAXI@Z 00000001401539d0 f i system.obj
 0001:00152b70       ??0ui_schemeobject_t@@QEAA@XZ 0000000140153b70 f i uimanager.obj
 0001:00152bc0       ??0ui_objectinfo_t@@QEAA@XZ 0000000140153bc0 f i uimanager.obj
 0001:00152c70       ?Shutdown@CUIManager@@QEAAXXZ 0000000140153c70 f   uimanager.obj
 0001:00152e60       ??_Gui_schemeinfo_t@@QEAAPEAXI@Z 0000000140153e60 f i uimanager.obj
 0001:00152ed0       ??_Gui_windowdescription_t@@QEAAPEAXI@Z 0000000140153ed0 f i uimanager.obj
 0001:00152f40       ?Draw@CUIManager@@QEAA_NXZ 0000000140153f40 f   uimanager.obj
 0001:001532e0       ?SetFocusWindow@CUIManager@@QEAAXPEAVCUIWindow@@@Z 00000001401542e0 f   uimanager.obj
 0001:00153370       ?HideWindows@CUIManager@@QEAAXH@Z 0000000140154370 f   uimanager.obj
 0001:00153440       ?ShowWindows@CUIManager@@QEAAXH@Z 0000000140154440 f   uimanager.obj
 0001:00153510       ?ReorderWindows@CUIManager@@AEAAXXZ 0000000140154510 f   uimanager.obj
 0001:00153760       ?AddWindow@CUIManager@@QEAAXPEAVCUIWindow@@@Z 0000000140154760 f   uimanager.obj
 0001:00153850       ?LoadSchemaFile@CUIManager@@QEAAPEAUui_schemeinfo_t@@PEBD@Z 0000000140154850 f   uimanager.obj
 0001:001550d0       ?LoadWindowDescriptionFile@CUIManager@@QEAAPEAUui_windowdescription_t@@PEBD0@Z 00000001401560d0 f   uimanager.obj
 0001:001577d0       ??1ui_objectinfo_t@@QEAA@XZ 00000001401587d0 f i uimanager.obj
 0001:00157820       ??_Eui_objectinfo_t@@QEAAPEAXI@Z 0000000140158820 f i uimanager.obj
 0001:00157860       ??4ui_objectinfo_t@@QEAAAEAU0@AEBU0@@Z 0000000140158860 f i uimanager.obj
 0001:00157940       ?resize@?$CArray@Uui_schemeobject_t@@@@QEAAXI@Z 0000000140158940 f i uimanager.obj
 0001:00157b20       ?resize@?$CArray@Uui_objectinfo_t@@@@QEAAXI@Z 0000000140158b20 f i uimanager.obj
 0001:00157d70       ?Cmd_VID_Restart@@YAXXZ    0000000140158d70 f   vid.obj
 0001:00157d80       ?Cmd_VID_SetFullscreen@@YAXXZ 0000000140158d80 f   vid.obj
 0001:00157d90       ?Cmd_VID_SetWindowed@@YAXXZ 0000000140158d90 f   vid.obj
 0001:00157da0       ?Cmd_VID_SetDisplayDevice@@YAXXZ 0000000140158da0 f   vid.obj
 0001:00157e70       ?Cmd_VID_SetWidth@@YAXXZ   0000000140158e70 f   vid.obj
 0001:00157f40       ?Cmd_VID_SetHeight@@YAXXZ  0000000140158f40 f   vid.obj
 0001:00158010       ?Cmd_VID_SetMSAA@@YAXXZ    0000000140159010 f   vid.obj
 0001:001580e0       ?Cmd_VID_SetVSync@@YAXXZ   00000001401590e0 f   vid.obj
 0001:001581b0       ?VID_GLMessageCallback@@YAXIIIIHPEBDPEBX@Z 00000001401591b0 f   vid.obj
 0001:00159670       ?VID_Init@@YA_NXZ          000000014015a670 f   vid.obj
 0001:00159f70       ?VID_Restart@@YAXXZ        000000014015af70 f   vid.obj
 0001:0015a1f0       ?VID_Shutdown@@YAXXZ       000000014015b1f0 f   vid.obj
 0001:0015a270       ?VID_BeginLoading@@YAX_N@Z 000000014015b270 f   vid.obj
 0001:0015a3d0       ?VID_EndLoading@@YAXXZ     000000014015b3d0 f   vid.obj
 0001:0015a460       ?VID_Draw@@YAXXZ           000000014015b460 f   vid.obj
 0001:0015a8e0       ?VID_DrawLoadingScreen@@YAXPEBD@Z 000000014015b8e0 f   vid.obj
 0001:0015a9e0       ?VID_DrawSceneOnly@@YAXXZ  000000014015b9e0 f   vid.obj
 0001:0015aab0       ?VID_ShaderCompileCallback@@YAXPEBDII_N@Z 000000014015bab0 f   vid.obj
 0001:0015af20       ?Init@CWindow@@QEAA_NXZ    000000014015bf20 f   window.obj
 0001:0015b400       ?BuildDeviceList@CWindow@@AEAA_NXZ 000000014015c400 f   window.obj
 0001:0015b950       ?FetchResolutions@CWindow@@CA_NPEAUddevice_t@1@@Z 000000014015c950 f   window.obj
 0001:0015bc30       ?FindResolution@CWindow@@AEAAPEAUresolution_t@1@PEAUddevice_t@1@II@Z 000000014015cc30 f   window.obj
 0001:0015bcb0       ?SetDisplayProperties@CWindow@@AEAA_NXZ 000000014015ccb0 f   window.obj
 0001:0015c750       ?GetConfigGroup@CWindow@@AEAAPEAUconf_group_t@@XZ 000000014015d750 f   window.obj
 0001:0015c810       ?GetResolutionInfo@CWindow@@QEBAXHHAEAI0@Z 000000014015d810 f   window.obj
 0001:0015c990       ?GetCurrentMSAASetting@CWindow@@QEAAHXZ 000000014015d990 f   window.obj
 0001:0015cb40       ?resize@?$CArray@Uresolution_t@CWindow@@@@QEAAXI@Z 000000014015db40 f i window.obj
 0001:0015cc60       ?KeyEvent@CUICallbackEvent@@UEAA_NHF_N@Z 000000014015dc60 f i uielements.obj
 0001:0015cc60       ?MouseButtonEvent@CUICallbackEvent@@UEAA_NHHH_N@Z 000000014015dc60 f i uielements.obj
 0001:0015cc60       ?considerElementOnResize@CUIScrollableSurface@@UEAA_NPEAVCUIObject@@@Z 000000014015dc60 f i uielements.obj
 0001:0015cc60       ?getFocusState@CUIObject@@UEBA_NXZ 000000014015dc60 f i uielements.obj
 0001:0015cc60       ?isClickedOn@CUIObject@@UEAA_NXZ 000000014015dc60 f i uielements.obj
 0001:0015cc60       ?isDisabled@CUIObject@@UEAA_NXZ 000000014015dc60 f i uielements.obj
 0001:0015cc60       ?isInFocus@CUIObject@@UEAA_NXZ 000000014015dc60 f i uielements.obj
 0001:0015cc60       ?isInteractive@CUIListHeader@@UEAA_NXZ 000000014015dc60 f i uielements.obj
 0001:0015cc60       ?isInteractive@CUIObject@@UEAA_NXZ 000000014015dc60 f i uielements.obj
 0001:0015cc60       ?isResizable@CUIButton@@UEAA_NXZ 000000014015dc60 f i uielements.obj
 0001:0015cc60       ?isResizable@CUIDownloadWindow@@UEAA_NXZ 000000014015dc60 f i uidownloadwindow.obj
 0001:0015cc60       ?isResizable@CUIDragButton@@UEAA_NXZ 000000014015dc60 f i uielements.obj
 0001:0015cc60       ?isResizable@CUIDropDownList@@UEAA_NXZ 000000014015dc60 f i uielements.obj
 0001:0015cc60       ?isResizable@CUIExitWindow@@UEAA_NXZ 000000014015dc60 f i uiexitwindow.obj
 0001:0015cc60       ?isResizable@CUINewGameWindow@@UEAA_NXZ 000000014015dc60 f i uinewgamewindow.obj
 0001:0015cc60       ?isResizable@CUIObject@@UEAA_NXZ 000000014015dc60 f i uielements.obj
 0001:0015cc60       ?isResizable@CUISaveLoadWindow@@UEAA_NXZ 000000014015dc60 f i uisaveloadwindow.obj
 0001:0015cc60       ?isResizable@CUISettingsWindow@@UEAA_NXZ 000000014015dc60 f i uisettingswindow.obj
 0001:0015cc60       ?isResizable@CUITabBody@@UEAA_NXZ 000000014015dc60 f i uielements.obj
 0001:0015cc60       ?isResizable@CUITabList@@UEAA_NXZ 000000014015dc60 f i uielements.obj
 0001:0015cc60       ?isWindow@CUIObject@@UEAA_NXZ 000000014015dc60 f i uielements.obj
 0001:0015cc60       ?keyEvent@CUIObject@@UEAA_NHF_N@Z 000000014015dc60 f i uielements.obj
 0001:0015cc70       ??_ECUICallbackEvent@@UEAAPEAXI@Z 000000014015dc70 f i * CIL library *:* CIL module *
 0001:0015cc70       ??_GCUICallbackEvent@@UEAAPEAXI@Z 000000014015dc70 f i uielements.obj
 0001:0015cca0       ?setWidth@CUIObject@@UEAAXH@Z 000000014015dca0 f i uielements.obj
 0001:0015ccb0       ?getWidth@CUIObject@@UEAAIXZ 000000014015dcb0 f i uielements.obj
 0001:0015ccc0       ?setHeight@CUIObject@@UEAAXH@Z 000000014015dcc0 f i uielements.obj
 0001:0015ccd0       ?getHeight@CUIObject@@UEAAIXZ 000000014015dcd0 f i uielements.obj
 0001:0015cce0       ?setVisible@CUIObject@@UEAAX_N@Z 000000014015dce0 f i uielements.obj
 0001:0015ccf0       ?isVisible@CUIObject@@UEAA_NXZ 000000014015dcf0 f i uielements.obj
 0001:0015cd00       ?move@CUIObject@@UEAAXHH@Z 000000014015dd00 f i uielements.obj
 0001:0015cd20       ?setFlag@CUIObject@@UEAAXH@Z 000000014015dd20 f i uielements.obj
 0001:0015cd30       ?removeFlag@CUIObject@@UEAAXH@Z 000000014015dd30 f i uielements.obj
 0001:0015cd40       ?setDefaultTexture@CUITexturedObject@@UEAAXPEBUen_texture_t@@@Z 000000014015dd40 f i uielements.obj
 0001:0015cd50       ?setFocusTexture@CUITexturedObject@@UEAAXPEBUen_texture_t@@@Z 000000014015dd50 f i uielements.obj
 0001:0015cd60       ?setClickedTexture@CUITexturedObject@@UEAAXPEBUen_texture_t@@@Z 000000014015dd60 f i uielements.obj
 0001:0015cd70       ?setDisabledTexture@CUITexturedObject@@UEAAXPEBUen_texture_t@@@Z 000000014015dd70 f i uielements.obj
 0001:0015cd80       ?setWindowInputFocusObject@CUIWindow@@UEAAXPEAVCUIObject@@@Z 000000014015dd80 f i uielements.obj
 0001:0015cd90       ?getInputFocusObject@CUIWindow@@UEAAPEAVCUIObject@@XZ 000000014015dd90 f i uielements.obj
 0001:0015cda0       ?setFocusIndex@CUIWindow@@UEAAXI@Z 000000014015dda0 f i uielements.obj
 0001:0015cdb0       ?getFocusIndex@CUIWindow@@UEAAIXZ 000000014015ddb0 f i uielements.obj
 0001:0015cdc0       ?setFocusState@CUIWindow@@UEAAX_N@Z 000000014015ddc0 f i uielements.obj
 0001:0015cdd0       ?getFocusState@CUIWindow@@UEBA_NXZ 000000014015ddd0 f i uielements.obj
 0001:0015cdd0       ?isInFocus@CUIWindow@@UEAA_NXZ 000000014015ddd0 f i uielements.obj
 0001:0015cde0       ?setWindowFlags@CUIWindow@@UEAAXH@Z 000000014015dde0 f i uielements.obj
 0001:0015cdf0       ?getWindowFlags@CUIWindow@@UEAAHXZ 000000014015ddf0 f i uielements.obj
 0001:0015ce00       ??_ECUIAnisotropySelectEvent@@UEAAPEAXI@Z 000000014015de00 f i * CIL library *:* CIL module *
 0001:0015ce00       ??_ECUIBindsBindBtnEvent@@UEAAPEAXI@Z 000000014015de00 f i * CIL library *:* CIL module *
 0001:0015ce00       ??_ECUIBindsClearBtnEvent@@UEAAPEAXI@Z 000000014015de00 f i * CIL library *:* CIL module *
 0001:0015ce00       ??_ECUIBindsRestoreButtonEvent@@UEAAPEAXI@Z 000000014015de00 f i * CIL library *:* CIL module *
 0001:0015ce00       ??_ECUIConsoleExecuteCallback@@UEAAPEAXI@Z 000000014015de00 f i * CIL library *:* CIL module *
 0001:0015ce00       ??_ECUIDeviceSelectEvent@@UEAAPEAXI@Z 000000014015de00 f i * CIL library *:* CIL module *
 0001:0015ce00       ??_ECUIDownloadWindowCancelEvent@@UEAAPEAXI@Z 000000014015de00 f i * CIL library *:* CIL module *
 0001:0015ce00       ??_ECUIDropDownButtonEvent@CUIDropDownList@@UEAAPEAXI@Z 000000014015de00 f i * CIL library *:* CIL module *
 0001:0015ce00       ??_ECUIResolutionSelectEvent@@UEAAPEAXI@Z 000000014015de00 f i * CIL library *:* CIL module *
 0001:0015ce00       ??_ECUIScrollerDragBtnAction@CUIScroller@@UEAAPEAXI@Z 000000014015de00 f i * CIL library *:* CIL module *
 0001:0015ce00       ??_ECUISettingsApplyEvent@@UEAAPEAXI@Z 000000014015de00 f i * CIL library *:* CIL module *
 0001:0015ce00       ??_ECUISettingsCancelEvent@@UEAAPEAXI@Z 000000014015de00 f i * CIL library *:* CIL module *
 0001:0015ce00       ??_ECUISliderDragBtnAction@CUISlider@@UEAAPEAXI@Z 000000014015de00 f i * CIL library *:* CIL module *
 0001:0015ce00       ??_ECUITabSelectEvent@@UEAAPEAXI@Z 000000014015de00 f i * CIL library *:* CIL module *
 0001:0015ce00       ??_ECUIVerticalSyncSelectEvent@@UEAAPEAXI@Z 000000014015de00 f i * CIL library *:* CIL module *
 0001:0015ce00       ??_ECUIWindowCloseAction@CUIWindow@@UEAAPEAXI@Z 000000014015de00 f i * CIL library *:* CIL module *
 0001:0015ce00       ??_ECUIWindowModeSelectEvent@@UEAAPEAXI@Z 000000014015de00 f i * CIL library *:* CIL module *
 0001:0015ce00       ??_GCUIAnisotropySelectEvent@@UEAAPEAXI@Z 000000014015de00 f i uisettingswindow.obj
 0001:0015ce00       ??_GCUIBindsBindBtnEvent@@UEAAPEAXI@Z 000000014015de00 f i uisettingswindow.obj
 0001:0015ce00       ??_GCUIBindsClearBtnEvent@@UEAAPEAXI@Z 000000014015de00 f i uisettingswindow.obj
 0001:0015ce00       ??_GCUIBindsRestoreButtonEvent@@UEAAPEAXI@Z 000000014015de00 f i uisettingswindow.obj
 0001:0015ce00       ??_GCUIConsoleExecuteCallback@@UEAAPEAXI@Z 000000014015de00 f i uiconsolewindow.obj
 0001:0015ce00       ??_GCUIDeviceSelectEvent@@UEAAPEAXI@Z 000000014015de00 f i uisettingswindow.obj
 0001:0015ce00       ??_GCUIDownloadWindowCancelEvent@@UEAAPEAXI@Z 000000014015de00 f i uidownloadwindow.obj
 0001:0015ce00       ??_GCUIDropDownButtonEvent@CUIDropDownList@@UEAAPEAXI@Z 000000014015de00 f i uielements.obj
 0001:0015ce00       ??_GCUIResolutionSelectEvent@@UEAAPEAXI@Z 000000014015de00 f i uisettingswindow.obj
 0001:0015ce00       ??_GCUIScrollerDragBtnAction@CUIScroller@@UEAAPEAXI@Z 000000014015de00 f i uielements.obj
 0001:0015ce00       ??_GCUISettingsApplyEvent@@UEAAPEAXI@Z 000000014015de00 f i uisettingswindow.obj
 0001:0015ce00       ??_GCUISettingsCancelEvent@@UEAAPEAXI@Z 000000014015de00 f i uisettingswindow.obj
 0001:0015ce00       ??_GCUISliderDragBtnAction@CUISlider@@UEAAPEAXI@Z 000000014015de00 f i uielements.obj
 0001:0015ce00       ??_GCUITabSelectEvent@@UEAAPEAXI@Z 000000014015de00 f i uisettingswindow.obj
 0001:0015ce00       ??_GCUIVerticalSyncSelectEvent@@UEAAPEAXI@Z 000000014015de00 f i uisettingswindow.obj
 0001:0015ce00       ??_GCUIWindowCloseAction@CUIWindow@@UEAAPEAXI@Z 000000014015de00 f i uielements.obj
 0001:0015ce00       ??_GCUIWindowModeSelectEvent@@UEAAPEAXI@Z 000000014015de00 f i uisettingswindow.obj
 0001:0015ce30       ?isClickedOn@CUIDragger@@UEAA_NXZ 000000014015de30 f i uielements.obj
 0001:0015ce40       ?releaseClickStates@CUIDragger@@UEAAXXZ 000000014015de40 f i uielements.obj
 0001:0015ce50       ?isClickedOn@CUIButton@@UEAA_NXZ 000000014015de50 f i uielements.obj
 0001:0015ce60       ?releaseClickStates@CUIButton@@UEAAXXZ 000000014015de60 f i uielements.obj
 0001:0015ce70       ?setDisabled@CUIButton@@UEAAX_N@Z 000000014015de70 f i uielements.obj
 0001:0015ce80       ?isDisabled@CUIButton@@UEAA_NXZ 000000014015de80 f i uielements.obj
 0001:0015ce90       ?setTextInset@CUITextTab@@UEAAXI@Z 000000014015de90 f i uielements.obj
 0001:0015cea0       ?setTextInset@CUITextInputTab@@UEAAXI@Z 000000014015dea0 f i uielements.obj
 0001:0015ceb0       ?getText@CUITextInputTab@@UEAAPEBDXZ 000000014015deb0 f i uielements.obj
 0001:0015cec0       ?getFullRange@CUIScroller@@UEAAIXZ 000000014015dec0 f i uielements.obj
 0001:0015ced0       ?getAlignment@CUIScroller@@UEAA?AW4ui_scroller_align_t@CUIObject@@XZ 000000014015ded0 f i uielements.obj
 0001:0015ced0       ?getNbRows@CUIList@@UEAAHXZ 000000014015ded0 f i uielements.obj
 0001:0015cee0       ??_ECUIBindsRowEvent@@UEAAPEAXI@Z 000000014015dee0 f i * CIL library *:* CIL module *
 0001:0015cee0       ??_ECUIConsoleKeyEventCallback@@UEAAPEAXI@Z 000000014015dee0 f i * CIL library *:* CIL module *
 0001:0015cee0       ??_ECUIExitWindowEvent@@UEAAPEAXI@Z 000000014015dee0 f i * CIL library *:* CIL module *
 0001:0015cee0       ??_ECUINewGameWindowButtonEvent@@UEAAPEAXI@Z 000000014015dee0 f i * CIL library *:* CIL module *
 0001:0015cee0       ??_ECUISaveLoadWindowButtonEvent@@UEAAPEAXI@Z 000000014015dee0 f i * CIL library *:* CIL module *
 0001:0015cee0       ??_ECUIScrollSurfaceDropListSelectEvent@@UEAAPEAXI@Z 000000014015dee0 f i * CIL library *:* CIL module *
 0001:0015cee0       ??_ECUIScrollSurfaceDropListToggleEvent@@UEAAPEAXI@Z 000000014015dee0 f i * CIL library *:* CIL module *
 0001:0015cee0       ??_ECUIScrollerArrowBtnAction@CUIScroller@@UEAAPEAXI@Z 000000014015dee0 f i * CIL library *:* CIL module *
 0001:0015cee0       ??_ECUITabSelectCallback@CUITabList@@UEAAPEAXI@Z 000000014015dee0 f i * CIL library *:* CIL module *
 0001:0015cee0       ??_GCUIBindsRowEvent@@UEAAPEAXI@Z 000000014015dee0 f i uisettingswindow.obj
 0001:0015cee0       ??_GCUIConsoleKeyEventCallback@@UEAAPEAXI@Z 000000014015dee0 f i uiconsolewindow.obj
 0001:0015cee0       ??_GCUIExitWindowEvent@@UEAAPEAXI@Z 000000014015dee0 f i uiexitwindow.obj
 0001:0015cee0       ??_GCUINewGameWindowButtonEvent@@UEAAPEAXI@Z 000000014015dee0 f i uinewgamewindow.obj
 0001:0015cee0       ??_GCUISaveLoadWindowButtonEvent@@UEAAPEAXI@Z 000000014015dee0 f i uisaveloadwindow.obj
 0001:0015cee0       ??_GCUIScrollSurfaceDropListSelectEvent@@UEAAPEAXI@Z 000000014015dee0 f i uisettingswindow.obj
 0001:0015cee0       ??_GCUIScrollSurfaceDropListToggleEvent@@UEAAPEAXI@Z 000000014015dee0 f i uisettingswindow.obj
 0001:0015cee0       ??_GCUIScrollerArrowBtnAction@CUIScroller@@UEAAPEAXI@Z 000000014015dee0 f i uielements.obj
 0001:0015cee0       ??_GCUITabSelectCallback@CUITabList@@UEAAPEAXI@Z 000000014015dee0 f i uielements.obj
 0001:0015cf10       ?setTabBody@CUITabLabel@@UEAAXPEAVCUITabBody@@@Z 000000014015df10 f i uielements.obj
 0001:0015cf20       ?PerformAction@CUITabSelectCallback@CUITabList@@UEAAXM@Z 000000014015df20 f i uielements.obj
 0001:0015cf40       ?getNbTabs@CUITabList@@UEAAIXZ 000000014015df40 f i uielements.obj
 0001:0015cf50       ??0decalgroup_t@@QEAA@XZ   000000014015df50 f i decallist.obj
 0001:0015cf50       ??0hdr_column_t@CUIListHeader@@QEAA@XZ 000000014015df50 f i uielements.obj
 0001:0015cf90       ?setHighlight@CUIListRow@@UEAAX_N@Z 000000014015df90 f i uielements.obj
 0001:0015cfa0       ?setHighlightedColumn@CUIListRow@@UEAAXH@Z 000000014015dfa0 f i uielements.obj
 0001:0015cfb0       ?getIndex@CUIListRow@@UEAAIXZ 000000014015dfb0 f i uielements.obj
 0001:0015cfc0       ?clearList@CUIDropDownList@@UEAAXXZ 000000014015dfc0 f i uielements.obj
 0001:0015cfe0       ?getListSize@CUIDropDownList@@UEAAIXZ 000000014015dfe0 f i uielements.obj
 0001:0015d000       ??_ECUIDropDownRowClickEvent@CUIDropDownList@@UEAAPEAXI@Z 000000014015e000 f i * CIL library *:* CIL module *
 0001:0015d000       ??_ECUISaveLoadWindowRowEvent@@UEAAPEAXI@Z 000000014015e000 f i * CIL library *:* CIL module *
 0001:0015d000       ??_GCUIDropDownRowClickEvent@CUIDropDownList@@UEAAPEAXI@Z 000000014015e000 f i uielements.obj
 0001:0015d000       ??_GCUISaveLoadWindowRowEvent@@UEAAPEAXI@Z 000000014015e000 f i uisaveloadwindow.obj
 0001:0015d030       ?getSliderButton@CUISlider@@UEAAPEAVCUIDragButton@@XZ 000000014015e030 f i uielements.obj
 0001:0015d040       ??0CUIObject@@QEAA@HIIHH@Z 000000014015e040 f   uielements.obj
 0001:0015d0f0       ??_ECUIObject@@UEAAPEAXI@Z 000000014015e0f0 f i * CIL library *:* CIL module *
 0001:0015d0f0       ??_GCUIObject@@UEAAPEAXI@Z 000000014015e0f0 f i uielements.obj
 0001:0015d130       ??1CUIObject@@UEAA@XZ      000000014015e130 f   uielements.obj
 0001:0015d1f0       ?addChild@CUIObject@@QEAAXPEAV1@@Z 000000014015e1f0 f   uielements.obj
 0001:0015d310       ?setParent@CUIObject@@QEAAXPEAV1@@Z 000000014015e310 f   uielements.obj
 0001:0015d350       ?setWindowInputFocusObject@CUIObject@@UEAAXPEAV1@@Z 000000014015e350 f   uielements.obj
 0001:0015d370       ?adjustPosition@CUIObject@@UEAAXXZ 000000014015e370 f   uielements.obj
 0001:0015d490       ?setSize@CUIObject@@MEAAXHH@Z 000000014015e490 f   uielements.obj
 0001:0015d4b0       ?getSize@CUIObject@@UEAAXAEAI0@Z 000000014015e4b0 f   uielements.obj
 0001:0015d4c0       ?setAlpha@CUIObject@@UEAAXH_N@Z 000000014015e4c0 f   uielements.obj
 0001:0015d550       ?setColor@CUIObject@@UEAAXIIIH_N@Z 000000014015e550 f   uielements.obj
 0001:0015d630       ?setPosition@CUIObject@@UEAAXHH_N@Z 000000014015e630 f   uielements.obj
 0001:0015d650       ?getPosition@CUIObject@@UEAAXAEAH0@Z 000000014015e650 f   uielements.obj
 0001:0015d660       ?getAbsPosition@CUIObject@@UEAAXAEAH0@Z 000000014015e660 f   uielements.obj
 0001:0015d6d0       ?think@CUIObject@@UEAAXXZ  000000014015e6d0 f   uielements.obj
 0001:0015d730       ?postThink@CUIObject@@UEAAXXZ 000000014015e730 f   uielements.obj
 0001:0015d790       ?mouseButtonEvent@CUIObject@@UEAA_NHHH_N@Z 000000014015e790 f   uielements.obj
 0001:0015d8e0       ?mouseWheelEvent@CUIObject@@UEAA_NHHH_NH@Z 000000014015e8e0 f   uielements.obj
 0001:0015da40       ?isMouseOver@CUIObject@@UEAA_NHH@Z 000000014015ea40 f   uielements.obj
 0001:0015dab0       ?draw@CUIObject@@UEAA_NXZ  000000014015eab0 f   uielements.obj
 0001:0015dc10       ?adjustSize@CUIObject@@UEAA_NHH@Z 000000014015ec10 f   uielements.obj
 0001:0015de60       ?isParentSizeValid@CUIObject@@UEAA_NIIHH@Z 000000014015ee60 f   uielements.obj
 0001:0015df00       ?releaseClickStates@CUIObject@@UEAAXXZ 000000014015ef00 f   uielements.obj
 0001:0015df60       ?getParentWindow@CUIObject@@UEAAPEAV1@XZ 000000014015ef60 f   uielements.obj
 0001:0015dfa0       ?closeOtherTabs@CUIObject@@UEAAXPEAV1@@Z 000000014015efa0 f   uielements.obj
 0001:0015e050       ??_ECUIInteractiveObject@@UEAAPEAXI@Z 000000014015f050 f i * CIL library *:* CIL module *
 0001:0015e050       ??_GCUIInteractiveObject@@UEAAPEAXI@Z 000000014015f050 f i uielements.obj
 0001:0015e090       ?isMouseOver@CUIInteractiveObject@@UEAA_NHH@Z 000000014015f090 f   uielements.obj
 0001:0015e150       ??0CUITexturedObject@@QEAA@HIIHH@Z 000000014015f150 f   uielements.obj
 0001:0015e1a0       ??_ECUITexturedObject@@UEAAPEAXI@Z 000000014015f1a0 f i * CIL library *:* CIL module *
 0001:0015e1a0       ??_GCUITexturedObject@@UEAAPEAXI@Z 000000014015f1a0 f i uielements.obj
 0001:0015e1e0       ?draw@CUITexturedObject@@UEAA_NXZ 000000014015f1e0 f   uielements.obj
 0001:0015e580       ??0CUISurface@@QEAA@HIIHH@Z 000000014015f580 f   uielements.obj
 0001:0015e5f0       ??_ECUISurface@@UEAAPEAXI@Z 000000014015f5f0 f i * CIL library *:* CIL module *
 0001:0015e5f0       ??_GCUISurface@@UEAAPEAXI@Z 000000014015f5f0 f i uielements.obj
 0001:0015e630       ??1CUISurface@@UEAA@XZ     000000014015f630 f   uielements.obj
 0001:0015e630       ??1CUIWindow@@UEAA@XZ      000000014015f630 f   uielements.obj
 0001:0015e640       ?isParentSizeValid@CUISurface@@UEAA_NIIHH@Z 000000014015f640 f   uielements.obj
 0001:0015e7c0       ?createObject@CUISurface@@MEAAPEAVCUITexturedObject@@PEBUui_schemeinfo_t@@PEBD@Z 000000014015f7c0 f   uielements.obj
 0001:0015ea10       ?init@CUISurface@@UEAA_NPEBD@Z 000000014015fa10 f   uielements.obj
 0001:0015ead0       ?initBottomElements@CUISurface@@UEAA_NXZ 000000014015fad0 f   uielements.obj
 0001:0015eb60       ?initTopElements@CUISurface@@UEAA_NXZ 000000014015fb60 f   uielements.obj
 0001:0015ec00       ?considerElementOnResize@CUISurface@@UEAA_NPEAVCUIObject@@@Z 000000014015fc00 f   uielements.obj
 0001:0015ec50       ?setAlpha@CUISurface@@UEAAXH_N@Z 000000014015fc50 f   uielements.obj
 0001:0015edb0       ?adjustSize@CUISurface@@UEAA_NHH@Z 000000014015fdb0 f   uielements.obj
 0001:0015edf0       ?adjustPosition@CUISurface@@UEAAXXZ 000000014015fdf0 f   uielements.obj
 0001:0015ee10       ?adjustTopBorder@CUISurface@@UEAAXXZ 000000014015fe10 f   uielements.obj
 0001:0015ef00       ?adjustBgElements@CUISurface@@UEAAXXZ 000000014015ff00 f   uielements.obj
 0001:0015f190       ?draw@CUISurface@@UEAA_NXZ 0000000140160190 f   uielements.obj
 0001:0015f1a0       ??0CUIWindow@@QEAA@HHIIHH@Z 00000001401601a0 f   uielements.obj
 0001:0015f250       ??_ECUITextTab@@UEAAPEAXI@Z 0000000140160250 f i * CIL library *:* CIL module *
 0001:0015f250       ??_ECUIWindow@@UEAAPEAXI@Z 0000000140160250 f i * CIL library *:* CIL module *
 0001:0015f250       ??_GCUITextTab@@UEAAPEAXI@Z 0000000140160250 f i uielements.obj
 0001:0015f250       ??_GCUIWindow@@UEAAPEAXI@Z 0000000140160250 f i uielements.obj
 0001:0015f290       ?init@CUIWindow@@UEAA_NPEBD@Z 0000000140160290 f   uielements.obj
 0001:0015f420       ?setTitle@CUIWindow@@QEAAXPEBDPEBUfont_set_t@@II@Z 0000000140160420 f   uielements.obj
 0001:0015f4f0       ?move@CUIWindow@@UEAAXHH@Z 00000001401604f0 f   uielements.obj
 0001:0015f500       ?keyEvent@CUIWindow@@UEAA_NHF_N@Z 0000000140160500 f   uielements.obj
 0001:0015f520       ?mouseButtonEvent@CUIWindow@@UEAA_NHHH_N@Z 0000000140160520 f   uielements.obj
 0001:0015f540       ?mouseWheelEvent@CUIWindow@@UEAA_NHHH_NH@Z 0000000140160540 f   uielements.obj
 0001:0015f6b0       ?PerformAction@CUISettingsCancelEvent@@UEAAXM@Z 00000001401606b0 f   uisettingswindow.obj
 0001:0015f6b0       ?PerformAction@CUIWindowCloseAction@CUIWindow@@UEAAXM@Z 00000001401606b0 f   uielements.obj
 0001:0015f6d0       ??0CUIText@@QEAA@HPEBUfont_set_t@@PEBDHHI@Z 00000001401606d0 f   uielements.obj
 0001:0015f780       ??_ECUIText@@UEAAPEAXI@Z   0000000140160780 f i * CIL library *:* CIL module *
 0001:0015f780       ??_GCUIText@@UEAAPEAXI@Z   0000000140160780 f i uielements.obj
 0001:0015f7e0       ?setText@CUIText@@QEAAXPEBD@Z 00000001401607e0 f   uielements.obj
 0001:0015f9b0       ?setDisplayText@CUIText@@QEAAXPEBD@Z 00000001401609b0 f   uielements.obj
 0001:0015fc30       ?draw@CUIText@@UEAA_NXZ    0000000140160c30 f   uielements.obj
 0001:0015fd40       ?adjustPosition@CUIText@@UEAAXXZ 0000000140160d40 f   uielements.obj
 0001:0015fd60       ??_ECUIDragger@@UEAAPEAXI@Z 0000000140160d60 f i * CIL library *:* CIL module *
 0001:0015fd60       ??_ECUIResizer@@UEAAPEAXI@Z 0000000140160d60 f i * CIL library *:* CIL module *
 0001:0015fd60       ??_GCUIDragger@@UEAAPEAXI@Z 0000000140160d60 f i uielements.obj
 0001:0015fd60       ??_GCUIResizer@@UEAAPEAXI@Z 0000000140160d60 f i uielements.obj
 0001:0015fda0       ?mouseButtonEvent@CUIDragger@@UEAA_NHHH_N@Z 0000000140160da0 f   uielements.obj
 0001:0015fe30       ?isParentSizeValid@CUIDragger@@UEAA_NIIHH@Z 0000000140160e30 f   uielements.obj
 0001:0015fed0       ?think@CUIDragger@@UEAAXXZ 0000000140160ed0 f   uielements.obj
 0001:0015ff60       ?performAdj@CUIDragger@@UEAA_NHH@Z 0000000140160f60 f   uielements.obj
 0001:0015ff80       ?performAdj@CUIResizer@@UEAA_NHH@Z 0000000140160f80 f   uielements.obj
 0001:0015ff90       ??0CUIButton@@QEAA@HPEBDPEBUfont_set_t@@PEAVCUICallbackEvent@@IIHH@Z 0000000140160f90 f   uielements.obj
 0001:00160100       ??_ECUIButton@@UEAAPEAXI@Z 0000000140161100 f i * CIL library *:* CIL module *
 0001:00160100       ??_GCUIButton@@UEAAPEAXI@Z 0000000140161100 f i uielements.obj
 0001:00160170       ??0CUIButton@@QEAA@HPEBUui_schemeobject_t@@PEAVCUICallbackEvent@@IIHH@Z 0000000140161170 f   uielements.obj
 0001:00160340       ??0CUIButton@@QEAA@HPEAVCUICallbackEvent@@IIHH@Z 0000000140161340 f   uielements.obj
 0001:001603e0       ?mouseButtonEvent@CUIButton@@UEAA_NHHH_N@Z 00000001401613e0 f   uielements.obj
 0001:00160460       ?think@CUIButton@@UEAAXXZ  0000000140161460 f   uielements.obj
 0001:001604d0       ?setText@CUITextTab@@UEAAXPEBD@Z 00000001401614d0 f   uielements.obj
 0001:001604f0       ?updateRangeSize@CUITextTab@@UEAAXXZ 00000001401614f0 f   uielements.obj
 0001:001605b0       ?mouseWheelEvent@CUITextTab@@UEAA_NHHH_NH@Z 00000001401615b0 f   uielements.obj
 0001:00160610       ?init@CUITextTab@@UEAA_NPEBD@Z 0000000140161610 f   uielements.obj
 0001:001606e0       ?draw@CUITextTab@@UEAA_NXZ 00000001401616e0 f   uielements.obj
 0001:001608b0       ?setOffsetValue@CUITextTab@@UEAAXM@Z 00000001401618b0 f   uielements.obj
 0001:001609d0       ??0CUITextInputTab@@QEAA@HPEAVCUICallbackEvent@@PEBUfont_set_t@@IIHH@Z 00000001401619d0 f   uielements.obj
 0001:00160a90       ??_ECUITextInputTab@@UEAAPEAXI@Z 0000000140161a90 f i * CIL library *:* CIL module *
 0001:00160a90       ??_GCUITextInputTab@@UEAAPEAXI@Z 0000000140161a90 f i uielements.obj
 0001:00160b00       ?mouseButtonEvent@CUITextInputTab@@UEAA_NHHH_N@Z 0000000140161b00 f   uielements.obj
 0001:00160b40       ?keyEvent@CUITextInputTab@@UEAA_NHF_N@Z 0000000140161b40 f   uielements.obj
 0001:00160f80       ?clearText@CUITextInputTab@@UEAAXXZ 0000000140161f80 f   uielements.obj
 0001:00160fa0       ?setText@CUITextInputTab@@UEAAXPEBD@Z 0000000140161fa0 f   uielements.obj
 0001:00161060       ?think@CUITextInputTab@@UEAAXXZ 0000000140162060 f   uielements.obj
 0001:00161100       ?draw@CUITextInputTab@@UEAA_NXZ 0000000140162100 f   uielements.obj
 0001:001614e0       ??0CUIDragButton@@QEAA@HW4ui_scroller_align_t@CUIObject@@PEAVCUICallbackEvent@@IIHH@Z 00000001401624e0 f   uielements.obj
 0001:00161570       ??_ECUIDragButton@@UEAAPEAXI@Z 0000000140162570 f i * CIL library *:* CIL module *
 0001:00161570       ??_GCUIDragButton@@UEAAPEAXI@Z 0000000140162570 f i uielements.obj
 0001:001615e0       ?setBounds@CUIDragButton@@UEAAXHH@Z 00000001401625e0 f   uielements.obj
 0001:001615f0       ?getBounds@CUIDragButton@@UEAAXAEAH0@Z 00000001401625f0 f   uielements.obj
 0001:00161610       ?mouseButtonEvent@CUIDragButton@@UEAA_NHHH_N@Z 0000000140162610 f   uielements.obj
 0001:001616c0       ?think@CUIDragButton@@UEAAXXZ 00000001401626c0 f   uielements.obj
 0001:00161780       ?setLength@CUIDragButton@@UEAAXI@Z 0000000140162780 f   uielements.obj
 0001:00161820       ?setPosition@CUIDragButton@@UEAAXM@Z 0000000140162820 f   uielements.obj
 0001:00161860       ?getPosition@CUIDragButton@@UEAANXZ 0000000140162860 f   uielements.obj
 0001:00161870       ?adjPosition@CUIDragButton@@UEAA_NH_N0@Z 0000000140162870 f   uielements.obj
 0001:001619f0       ?getLength@CUIDragButton@@UEAAIXZ 00000001401629f0 f   uielements.obj
 0001:00161a10       ?adjustPosition@CUIDragButton@@UEAAXXZ 0000000140162a10 f   uielements.obj
 0001:00161b40       ?PerformAction@CUIScrollerArrowBtnAction@CUIScroller@@UEAAXM@Z 0000000140162b40 f   uielements.obj
 0001:00161ba0       ?PerformAction@CUIScrollerDragBtnAction@CUIScroller@@UEAAXM@Z 0000000140162ba0 f   uielements.obj
 0001:00161c10       ??0CUIScroller@@QEAA@HW4ui_scroller_align_t@CUIObject@@IIIHH@Z 0000000140162c10 f   uielements.obj
 0001:00161ca0       ??_ECUIScroller@@UEAAPEAXI@Z 0000000140162ca0 f i * CIL library *:* CIL module *
 0001:00161ca0       ??_GCUIScroller@@UEAAPEAXI@Z 0000000140162ca0 f i uielements.obj
 0001:00161ce0       ?init@CUIScroller@@UEAA_NPEBD@Z 0000000140162ce0 f   uielements.obj
 0001:00162760       ?setFullRange@CUIScroller@@UEAAXI@Z 0000000140163760 f   uielements.obj
 0001:00162780       ?readjustDragButton@CUIScroller@@UEAAXXZ 0000000140163780 f   uielements.obj
 0001:001628d0       ?adjustSize@CUIScroller@@UEAA_NHH@Z 00000001401638d0 f   uielements.obj
 0001:00162910       ?isParentSizeValid@CUIScroller@@UEAA_NIIHH@Z 0000000140163910 f   uielements.obj
 0001:00162a30       ?considerElementOnResize@CUIScroller@@UEAA_NPEAVCUIObject@@@Z 0000000140163a30 f   uielements.obj
 0001:00162a40       ?moveScroller@CUIScroller@@UEAA_NHH@Z 0000000140163a40 f   uielements.obj
 0001:00162aa0       ??_ECUITabLabel@@UEAAPEAXI@Z 0000000140163aa0 f i * CIL library *:* CIL module *
 0001:00162aa0       ??_GCUITabLabel@@UEAAPEAXI@Z 0000000140163aa0 f i uielements.obj
 0001:00162b10       ??_ECUITabBody@@UEAAPEAXI@Z 0000000140163b10 f i * CIL library *:* CIL module *
 0001:00162b10       ??_GCUITabBody@@UEAAPEAXI@Z 0000000140163b10 f i uielements.obj
 0001:00162b50       ?initTopElements@CUITabBody@@UEAA_NXZ 0000000140163b50 f   uielements.obj
 0001:00162ca0       ?adjustTopBorder@CUITabBody@@UEAAXXZ 0000000140163ca0 f   uielements.obj
 0001:00162ef0       ?considerElementOnResize@CUITabBody@@UEAA_NPEAVCUIObject@@@Z 0000000140163ef0 f   uielements.obj
 0001:00162f60       ?setAlpha@CUITabBody@@UEAAXH_N@Z 0000000140163f60 f   uielements.obj
 0001:00162ff0       ??_ECUITabList@@UEAAPEAXI@Z 0000000140163ff0 f i * CIL library *:* CIL module *
 0001:00162ff0       ??_GCUITabList@@UEAAPEAXI@Z 0000000140163ff0 f i uielements.obj
 0001:00163060       ?createTab@CUITabList@@QEAAPEAVCUITabBody@@PEBD@Z 0000000140164060 f   uielements.obj
 0001:00163430       ?showTab@CUITabList@@EEAAXI@Z 0000000140164430 f   uielements.obj
 0001:00163510       ??0CUIScrollableSurface@@QEAA@HIIHH@Z 0000000140164510 f   uielements.obj
 0001:00163560       ??_ECUIScrollableSurface@@UEAAPEAXI@Z 0000000140164560 f i * CIL library *:* CIL module *
 0001:00163560       ??_GCUIScrollableSurface@@UEAAPEAXI@Z 0000000140164560 f i uielements.obj
 0001:001635a0       ?init@CUIScrollableSurface@@UEAA_NPEBD@Z 00000001401645a0 f   uielements.obj
 0001:00163740       ?setOffsetValue@CUIScrollableSurface@@UEAAXM@Z 0000000140164740 f   uielements.obj
 0001:00163750       ?adjustSize@CUIScrollableSurface@@UEAA_NHH@Z 0000000140164750 f   uielements.obj
 0001:00163790       ?draw@CUIScrollableSurface@@UEAA_NXZ 0000000140164790 f   uielements.obj
 0001:00163aa0       ?mouseButtonEvent@CUIScrollableSurface@@UEAA_NHHH_N@Z 0000000140164aa0 f   uielements.obj
 0001:00163d70       ?mouseWheelEvent@CUIScrollableSurface@@UEAA_NHHH_NH@Z 0000000140164d70 f   uielements.obj
 0001:00163db0       ?think@CUIScrollableSurface@@UEAAXXZ 0000000140164db0 f   uielements.obj
 0001:00163f00       ?isMouseOver@CUIScrollableSurface@@UEAA_NHH@Z 0000000140164f00 f   uielements.obj
 0001:00163f70       ?isChildVisible@CUIScrollableSurface@@UEAA_NPEAVCUIObject@@H@Z 0000000140164f70 f   uielements.obj
 0001:00164030       ?shouldShiftChild@CUIScrollableSurface@@UEAA_NPEAVCUIObject@@@Z 0000000140165030 f   uielements.obj
 0001:00164050       ??0CUIList@@QEAA@HPEBUfont_set_t@@IIIIHH@Z 0000000140165050 f   uielements.obj
 0001:00164120       ??_ECUIList@@UEAAPEAXI@Z   0000000140165120 f i * CIL library *:* CIL module *
 0001:00164120       ??_GCUIList@@UEAAPEAXI@Z   0000000140165120 f i uielements.obj
 0001:00164190       ?init@CUIList@@UEAA_NPEBD@Z 0000000140165190 f   uielements.obj
 0001:00164310       ?shouldShiftChild@CUIList@@UEAA_NPEAVCUIObject@@@Z 0000000140165310 f   uielements.obj
 0001:00164330       ?setHeaderColumnName@CUIList@@UEAAXIPEBD@Z 0000000140165330 f   uielements.obj
 0001:00164390       ?createNewRow@CUIList@@UEAAPEAVCUIListRow@@PEAVCUICallbackEvent@@I@Z 0000000140165390 f   uielements.obj
 0001:001645a0       ?createSeparator@CUIList@@UEAAXIPEBDI@Z 00000001401655a0 f   uielements.obj
 0001:00164850       ?clearHighlight@CUIList@@UEAAXXZ 0000000140165850 f   uielements.obj
 0001:001648a0       ?setHighlightOnRow@CUIList@@UEAAXI_N@Z 00000001401658a0 f   uielements.obj
 0001:00164980       ?setHighlightOnRowColumn@CUIList@@UEAAXH@Z 0000000140165980 f   uielements.obj
 0001:001649a0       ?getRowColumnObject@CUIList@@UEAAPEAVCUIObject@@II@Z 00000001401659a0 f   uielements.obj
 0001:00164a30       ?clearList@CUIList@@UEAAXXZ 0000000140165a30 f   uielements.obj
 0001:00164d80       ??_ECUIListHeader@@UEAAPEAXI@Z 0000000140165d80 f i * CIL library *:* CIL module *
 0001:00164d80       ??_GCUIListHeader@@UEAAPEAXI@Z 0000000140165d80 f i uielements.obj
 0001:00164e10       ?init@CUIListHeader@@UEAA_NPEBD@Z 0000000140165e10 f   uielements.obj
 0001:00165030       ?setColumnName@CUIListHeader@@UEAAXIPEBD@Z 0000000140166030 f   uielements.obj
 0001:001651f0       ??0CUIListRow@@QEAA@HIIPEAVCUIListHeader@@PEAVCUICallbackEvent@@IIII@Z 00000001401661f0 f   uielements.obj
 0001:00165390       ??_ECUIListRow@@UEAAPEAXI@Z 0000000140166390 f i * CIL library *:* CIL module *
 0001:00165390       ??_ECUIListSeparator@@UEAAPEAXI@Z 0000000140166390 f i * CIL library *:* CIL module *
 0001:00165390       ??_GCUIListRow@@UEAAPEAXI@Z 0000000140166390 f i uielements.obj
 0001:00165390       ??_GCUIListSeparator@@UEAAPEAXI@Z 0000000140166390 f i uielements.obj
 0001:00165410       ?setColumnContents@CUIListRow@@UEAAXIPEAVCUIObject@@@Z 0000000140166410 f   uielements.obj
 0001:001654f0       ?getColumnContents@CUIListRow@@UEAAPEAVCUIObject@@I@Z 00000001401664f0 f   uielements.obj
 0001:00165560       ?setColumnColor@CUIListRow@@UEAAXEEE@Z 0000000140166560 f   uielements.obj
 0001:00165600       ?mouseButtonEvent@CUIListRow@@UEAA_NHHH_N@Z 0000000140166600 f   uielements.obj
 0001:00165680       ?draw@CUIListRow@@UEAA_NXZ 0000000140166680 f   uielements.obj
 0001:001659f0       ?draw@CUIListSeparator@@UEAA_NXZ 00000001401669f0 f   uielements.obj
 0001:00165b80       ??0CUIDropDownList@@QEAA@HPEAVCUICallbackEvent@@0PEBUfont_set_t@@IIHH@Z 0000000140166b80 f   uielements.obj
 0001:00165ce0       ??_ECUIDropDownList@@UEAAPEAXI@Z 0000000140166ce0 f i * CIL library *:* CIL module *
 0001:00165ce0       ??_GCUIDropDownList@@UEAAPEAXI@Z 0000000140166ce0 f i uielements.obj
 0001:00165d60       ?init@CUIDropDownList@@UEAA_NPEBD@Z 0000000140166d60 f   uielements.obj
 0001:00165fc0       ?mouseButtonEvent@CUIDropDownList@@UEAA_NHHH_N@Z 0000000140166fc0 f   uielements.obj
 0001:00166070       ?toggleList@CUIDropDownList@@UEAAXXZ 0000000140167070 f   uielements.obj
 0001:00166110       ?setSelection@CUIDropDownList@@UEAAXH@Z 0000000140167110 f   uielements.obj
 0001:001661a0       ?manageSelectionEvent@CUIDropDownList@@UEAAXI@Z 00000001401671a0 f   uielements.obj
 0001:001661f0       ?addChoice@CUIDropDownList@@UEAAXPEBD@Z 00000001401671f0 f   uielements.obj
 0001:001662d0       ?closeOtherTabs@CUIDropDownList@@UEAAXPEAVCUIObject@@@Z 00000001401672d0 f   uielements.obj
 0001:00166310       ?PerformAction@CUIDropDownButtonEvent@CUIDropDownList@@UEAAXM@Z 0000000140167310 f   uielements.obj
 0001:00166330       ?MouseButtonEvent@CUIDropDownRowClickEvent@CUIDropDownList@@UEAA_NHHH_N@Z 0000000140167330 f   uielements.obj
 0001:00166390       ?isMouseOver@CUIDropDownList@@UEAA_NHH@Z 0000000140167390 f   uielements.obj
 0001:00166420       ??_ECUITickBox@@UEAAPEAXI@Z 0000000140167420 f i * CIL library *:* CIL module *
 0001:00166420       ??_GCUITickBox@@UEAAPEAXI@Z 0000000140167420 f i uielements.obj
 0001:00166490       ?init@CUITickBox@@UEAA_NPEBD@Z 0000000140167490 f   uielements.obj
 0001:00166780       ?setText@CUITickBox@@UEAAXPEBDPEBUfont_set_t@@I@Z 0000000140167780 f   uielements.obj
 0001:00166820       ?setState@CUITickBox@@UEAAX_N@Z 0000000140167820 f   uielements.obj
 0001:00166840       ?mouseButtonEvent@CUITickBox@@UEAA_NHHH_N@Z 0000000140167840 f   uielements.obj
 0001:001668f0       ??0CUISlider@@QEAA@HPEAVCUICallbackEvent@@IIHHMMM@Z 00000001401678f0 f   uielements.obj
 0001:00166990       ??_ECUISlider@@UEAAPEAXI@Z 0000000140167990 f i * CIL library *:* CIL module *
 0001:00166990       ??_GCUISlider@@UEAAPEAXI@Z 0000000140167990 f i uielements.obj
 0001:001669f0       ?draw@CUISlider@@UEAA_NXZ  00000001401679f0 f   uielements.obj
 0001:00166c50       ?init@CUISlider@@UEAA_NPEBD@Z 0000000140167c50 f   uielements.obj
 0001:001672e0       ?setValueFromPosition@CUISlider@@UEAAXN@Z 00000001401682e0 f   uielements.obj
 0001:00167320       ?setValue@CUISlider@@UEAAXM@Z 0000000140168320 f   uielements.obj
 0001:001673c0       ?PerformAction@CUISliderDragBtnAction@CUISlider@@UEAAXM@Z 00000001401683c0 f   uielements.obj
 0001:00167420       ??0CUIProgressBar@@QEAA@HIIHH@Z 0000000140168420 f   uielements.obj
 0001:001674a0       ??_ECUIProgressBar@@UEAAPEAXI@Z 00000001401684a0 f i * CIL library *:* CIL module *
 0001:001674a0       ??_GCUIProgressBar@@UEAAPEAXI@Z 00000001401684a0 f i uielements.obj
 0001:001674e0       ?draw@CUIProgressBar@@UEAA_NXZ 00000001401684e0 f   uielements.obj
 0001:001676d0       ?setValue@CUIProgressBar@@UEAAXM@Z 00000001401686d0 f   uielements.obj
 0001:001676f0       ?resize@?$CArray@Uhdr_column_t@CUIListHeader@@@@QEAAXI@Z 00000001401686f0 f i uielements.obj
 0001:001678a0       ??_ECCVar@@UEAAPEAXI@Z     00000001401688a0 f i * CIL library *:* CIL module *
 0001:001678a0       ??_GCCVar@@UEAAPEAXI@Z     00000001401688a0 f i cvar.obj
 0001:001678f0       ??1CCVar@@UEAA@XZ          00000001401688f0 f   cvar.obj
 0001:00167910       ??_ECStringCVar@@UEAAPEAXI@Z 0000000140168910 f i * CIL library *:* CIL module *
 0001:00167910       ??_GCStringCVar@@UEAAPEAXI@Z 0000000140168910 f i cvar.obj
 0001:00167970       ?SetValue@CStringCVar@@EEAA_NPEBD@Z 0000000140168970 f   cvar.obj
 0001:00167ae0       ?GetStrValue@CStringCVar@@UEBAPEBDXZ 0000000140168ae0 f   cvar.obj
 0001:00167af0       ?SetValue@CStringCVar@@EEAA_NM@Z 0000000140168af0 f   cvar.obj
 0001:00167b10       ?GetValue@CStringCVar@@UEBAMXZ 0000000140168b10 f   cvar.obj
 0001:00167b30       ??_ECFloatCVar@@UEAAPEAXI@Z 0000000140168b30 f i * CIL library *:* CIL module *
 0001:00167b30       ??_GCFloatCVar@@UEAAPEAXI@Z 0000000140168b30 f i cvar.obj
 0001:00167b80       ?SetValue@CFloatCVar@@EEAA_NPEBD@Z 0000000140168b80 f   cvar.obj
 0001:00167ba0       ?GetStrValue@CFloatCVar@@UEBAPEBDXZ 0000000140168ba0 f   cvar.obj
 0001:00167bc0       ?SetValue@CFloatCVar@@EEAA_NM@Z 0000000140168bc0 f   cvar.obj
 0001:00167be0       ?GetValue@CFloatCVar@@UEBAMXZ 0000000140168be0 f   cvar.obj
 0001:00167bf0       ??0decalgroupentry_t@@QEAA@XZ 0000000140168bf0 f i decallist.obj
 0001:00167c30       ?LoadDecalList@CDecalList@@QEAA_NPEBDI@Z 0000000140168c30 f   decallist.obj
 0001:00168ec0       ?GetRandom@CDecalList@@QEAAPEAUdecalgroupentry_t@@PEBD@Z 0000000140169ec0 f   decallist.obj
 0001:00169020       ?resize@?$CArray@Udecalgroupentry_t@@@@QEAAXI@Z 000000014016a020 f i decallist.obj
 0001:001691e0       ??1?$CArray@Udecalgroup_t@@@@QEAA@XZ 000000014016a1e0 f i decallist.obj
 0001:00169220       ?resize@?$CArray@Udecalgroup_t@@@@QEAAXI@Z 000000014016a220 f i decallist.obj
 0001:001694a0       ??_Edecalgroupentry_t@@QEAAPEAXI@Z 000000014016a4a0 f i decallist.obj
 0001:001694e0       ??_Edecalgroup_t@@QEAAPEAXI@Z 000000014016a4e0 f i decallist.obj
 0001:00169520       ??1decalgroup_t@@QEAA@XZ   000000014016a520 f i decallist.obj
 0001:00169580       ??0flexcontroller_t@@QEAA@XZ 000000014016a580 f i flexmanager.obj
 0001:001695c0       ?Clear@CFlexManager@@QEAAXXZ 000000014016a5c0 f   flexmanager.obj
 0001:001697d0       ??_Gflexscript_t@@QEAAPEAXI@Z 000000014016a7d0 f i flexmanager.obj
 0001:00169840       ?GetFixedFlexIndex@CFlexManager@@SAHPEBD@Z 000000014016a840 f   flexmanager.obj
 0001:00169980       ?SetFlexMappings@CFlexManager@@SAXPEBUvbmheader_t@@PEAUflexstate_t@@@Z 000000014016a980 f   flexmanager.obj
 0001:00169b40       ?SetScript@CFlexManager@@QEAAXPEBUvbmheader_t@@PEAUflexstate_t@@MPEBD@Z 000000014016ab40 f   flexmanager.obj
 0001:00169d70       ?SetControllerName@CFlexManager@@SA_NPEBUflexscript_t@@PEAUflexcontroller_t@@PEBD@Z 000000014016ad70 f   flexmanager.obj
 0001:0016a030       ?LoadAssociationScript@CFlexManager@@QEAA_NW4flextypes_t@@PEBD@Z 000000014016b030 f   flexmanager.obj
 0001:0016af90       ?LoadScript@CFlexManager@@QEAAPEBUflexscript_t@@PEBD@Z 000000014016bf90 f   flexmanager.obj
 0001:0016cbf0       ?Blink@CFlexManager@@AEAAXMMPEAUflexstate_t@@@Z 000000014016dbf0 f   flexmanager.obj
 0001:0016cdc0       ?UpdateValues@CFlexManager@@QEAAXMMHPEAUflexstate_t@@_N@Z 000000014016ddc0 f   flexmanager.obj
 0001:0016d680       ?SetError@CFlexManager@@AEAAXPEBDZZ 000000014016e680 f   flexmanager.obj
 0001:0016d840       ??_Eflexcontroller_t@@QEAAPEAXI@Z 000000014016e840 f i flexmanager.obj
 0001:0016d880       ?resize@?$CArray@Uflexbind_t@@@@QEAAXI@Z 000000014016e880 f i flexmanager.obj
 0001:0016d9b0       ?resize@?$CArray@Uflexcontroller_t@@@@QEAAXI@Z 000000014016e9b0 f i flexmanager.obj
 0001:0016dbe0       ??0CFrustum@@QEAA@XZ       000000014016ebe0 f   frustum.obj
 0001:0016dc60       ?SetFrustum@CFrustum@@QEAAXAEBVVector@@0MM@Z 000000014016ec60 f   frustum.obj
 0001:0016e3b0       ?SetFrustum@CFrustum@@QEAAXAEBVVector@@0MMM@Z 000000014016f3b0 f   frustum.obj
 0001:0016eb20       ?CullBBox@CFrustum@@QEBA_NAEBVVector@@0@Z 000000014016fb20 f   frustum.obj
 0001:0016ed40       ?SetExtraCullBox@CFrustum@@QEAAXAEBVVector@@0@Z 000000014016fd40 f   frustum.obj
 0001:0016f0d0       ?GetFunction@CGLExtF@@QEAAP6A_JXZPEBD_N@Z 00000001401700d0 f   r_glextf.obj
 0001:0016f250       ?GetFunctions@CGLExtF@@QEAA_NXZ 0000000140170250 f   r_glextf.obj
 0001:0016f9b0       ??0glsl_branchcondition_t@CGLSLShader@@QEAA@XZ 00000001401709b0 f i r_glsl.obj
 0001:0016f9d0       ??0glsl_determinator_t@CGLSLShader@@QEAA@XZ 00000001401709d0 f i r_glsl.obj
 0001:0016fa20       ??0glsl_uniform_t@CGLSLShader@@QEAA@XZ 0000000140170a20 f i r_glsl.obj
 0001:0016fa80       ??0glsl_attrib_t@CGLSLShader@@QEAA@XZ 0000000140170a80 f i r_glsl.obj
 0001:0016fad0       ??0disabled_state_t@CGLSLShader@@QEAA@XZ 0000000140170ad0 f i r_glsl.obj
 0001:0016fb10       ??0CGLSLShader@@QEAA@AEBUfile_interface_t@@AEBVCGLExtF@@PEBDHP6AX2II_N@Z@Z 0000000140170b10 f   r_glsl.obj
 0001:0016fcb0       ??0CGLSLShader@@QEAA@AEBUfile_interface_t@@AEBVCGLExtF@@HP6AXPEBDII_N@Z@Z 0000000140170cb0 f   r_glsl.obj
 0001:0016fe30       ??1CGLSLShader@@QEAA@XZ    0000000140170e30 f   r_glsl.obj
 0001:0016ff80       ?Clear@CGLSLShader@@QEAAXXZ 0000000140170f80 f   r_glsl.obj
 0001:00170030       ?RecursiveFreeChunks@CGLSLShader@@AEAAXPEAUshader_chunk_t@1@@Z 0000000140171030 f   r_glsl.obj
 0001:001700b0       ?FreeTempData@CGLSLShader@@AEAAXXZ 00000001401710b0 f   r_glsl.obj
 0001:001702a0       ?FreeShaderData@CGLSLShader@@AEAAXXZ 00000001401712a0 f   r_glsl.obj
 0001:001703b0       ?FreeData@CGLSLShader@@AEAAXXZ 00000001401713b0 f   r_glsl.obj
 0001:001704b0       ?CompileShader@CGLSLShader@@QEAA_NIPEAUglsl_shader_t@1@PEAUcsdshaderdata_t@1@@Z 00000001401714b0 f   r_glsl.obj
 0001:00171780       ?ValidateProgram@CGLSLShader@@QEAA_NP6AXPEBDZZ@Z 0000000140172780 f   r_glsl.obj
 0001:001718e0       ?CompileFromCSD@CGLSLShader@@AEAA_NXZ 00000001401728e0 f   r_glsl.obj
 0001:001726a0       ?LoadFromBSD@CGLSLShader@@AEAA_NXZ 00000001401736a0 f   r_glsl.obj
 0001:00172f30       ?CompileCSDShaderData@CGLSLShader@@AEAA_NXZ 0000000140173f30 f   r_glsl.obj
 0001:00173ce0       ?ReadDeterminator@CGLSLShader@@QEAA_NPEAPEBD@Z 0000000140174ce0 f   r_glsl.obj
 0001:00174a60       ?ReadInvalidState@CGLSLShader@@QEAA_NPEAPEBD@Z 0000000140175a60 f   r_glsl.obj
 0001:00175e60       ?CompileFromScript@CGLSLShader@@AEAA_NXZ 0000000140176e60 f   r_glsl.obj
 0001:00177070       ?Compile@CGLSLShader@@QEAA_NPEBD@Z 0000000140178070 f   r_glsl.obj
 0001:00177230       ?ReadChunks@CGLSLShader@@AEAA_NPEAPEBDPEAPEAUshader_chunk_t@1@PEAIPEAUglsl_branchcondition_t@1@I@Z 0000000140178230 f   r_glsl.obj
 0001:00178e70       ?RecursiveFillValues@CGLSLShader@@AEAAXIAEAI@Z 0000000140179e70 f   r_glsl.obj
 0001:001790e0       ?ShouldIncludeChunk@CGLSLShader@@AEAA_NIPEAUshader_chunk_t@1@@Z 000000014017a0e0 f   r_glsl.obj
 0001:00179330       ?RecursiveAddChunks@CGLSLShader@@AEAA_NIPEAUshader_chunk_t@1@PEADPEAII@Z 000000014017a330 f   r_glsl.obj
 0001:00179540       ?SpliceScripts@CGLSLShader@@AEAA_NIPEAPEAD0@Z 000000014017a540 f   r_glsl.obj
 0001:001796e0       ?DisableDeterminatorState@CGLSLShader@@QEAAXPEBDH@Z 000000014017a6e0 f   r_glsl.obj
 0001:00179a60       ?CompileShaderVariation@CGLSLShader@@QEAA_NI@Z 000000014017aa60 f   r_glsl.obj
 0001:00179f10       ?ConstructBranches@CGLSLShader@@AEAA_NPEBDI@Z 000000014017af10 f   r_glsl.obj
 0001:0017ab90       ?Shader_PrintLog@CGLSLShader@@AEAAXIPEBDI0_N@Z 000000014017bb90 f   r_glsl.obj
 0001:0017aed0       ?Program_PrintLog@CGLSLShader@@AEAAXIPEBD@Z 000000014017bed0 f   r_glsl.obj
 0001:0017b0d0       ?AddDeterminator@CGLSLShader@@QEAAPEAUglsl_determinator_t@1@PEBD@Z 000000014017c0d0 f   r_glsl.obj
 0001:0017b3f0       ?EnableShader@CGLSLShader@@QEAA_NXZ 000000014017c3f0 f   r_glsl.obj
 0001:0017bc10       ?ResetShader@CGLSLShader@@QEAAXXZ 000000014017cc10 f   r_glsl.obj
 0001:0017bcf0       ?InitAttribute@CGLSLShader@@QEAAHPEBDIHIPEBX@Z 000000014017ccf0 f   r_glsl.obj
 0001:0017c4d0       ?EnableAttribute@CGLSLShader@@QEAAXH@Z 000000014017d4d0 f   r_glsl.obj
 0001:0017c5b0       ?DisableAttribute@CGLSLShader@@QEAAXH@Z 000000014017d5b0 f   r_glsl.obj
 0001:0017c660       ?InitUniform@CGLSLShader@@QEAAHPEBDW4uniform_e@1@@Z 000000014017d660 f   r_glsl.obj
 0001:0017ccd0       ??1glsl_uniform_t@CGLSLShader@@QEAA@XZ 000000014017dcd0 f i r_glsl.obj
 0001:0017cd00       ?VerifyDeterminators@CGLSLShader@@QEAA_NXZ 000000014017dd00 f   r_glsl.obj
 0001:0017d330       ?GetDeterminatorIndex@CGLSLShader@@QEAAHPEBD@Z 000000014017e330 f   r_glsl.obj
 0001:0017d710       ?resize@?$CArray@F@@QEAAXI@Z 000000014017e710 f i r_glsl.obj
 0001:0017d820       ?resize@?$CArray@Uglsl_determinator_t@CGLSLShader@@@@QEAAXI@Z 000000014017e820 f i r_glsl.obj
 0001:0017d9e0       ??1?$CArray@Uglsl_uniform_t@CGLSLShader@@@@QEAA@XZ 000000014017e9e0 f i r_glsl.obj
 0001:0017da20       ?resize@?$CArray@Uglsl_shader_t@CGLSLShader@@@@QEAAXI@Z 000000014017ea20 f i r_glsl.obj
 0001:0017db40       ??1?$CArray@Uglsl_attrib_t@CGLSLShader@@@@QEAA@XZ 000000014017eb40 f i r_glsl.obj
 0001:0017db80       ??_Eglsl_attrib_t@CGLSLShader@@QEAAPEAXI@Z 000000014017eb80 f i r_glsl.obj
 0001:0017dbc0       ??4?$CArray@F@@QEAAXAEBV0@@Z 000000014017ebc0 f i r_glsl.obj
 0001:0017dc30       ?resize@?$CArray@Uglsl_uniform_t@CGLSLShader@@@@QEAAXI@Z 000000014017ec30 f i r_glsl.obj
 0001:0017de70       ?resize@?$CArray@Uglsl_attrib_t@CGLSLShader@@@@QEAAXI@Z 000000014017ee70 f i r_glsl.obj
 0001:0017e030       ?resize@?$CArray@Uinvalid_state_t@CGLSLShader@@@@QEAAXI@Z 000000014017f030 f i r_glsl.obj
 0001:0017e270       ?resize@?$CArray@Udisabled_state_t@CGLSLShader@@@@QEAAXI@Z 000000014017f270 f i r_glsl.obj
 0001:0017e420       ??0CVBO@@QEAA@AEBVCGLExtF@@PEBXI1I_N@Z 000000014017f420 f   r_vbo.obj
 0001:0017e850       ??0CVBO@@QEAA@AEBVCGLExtF@@_N1@Z 000000014017f850 f   r_vbo.obj
 0001:0017eb80       ?ClearGL@CVBO@@QEAAXXZ     000000014017fb80 f   r_vbo.obj
 0001:0017ec50       ?RebindGL@CVBO@@QEAAXXZ    000000014017fc50 f   r_vbo.obj
 0001:0017ed70       ?Clear@CVBO@@QEAAXXZ       000000014017fd70 f   r_vbo.obj
 0001:0017f1d0       ?Append@CVBO@@QEAA_NPEBXI0I@Z 00000001401801d0 f   r_vbo.obj
 0001:0017f3d0       ?SetAttribPointer@CVBO@@QEAAXHIIIPEBX@Z 00000001401803d0 f   r_vbo.obj
 0001:0017f4a0       ?DisableAttribPointer@CVBO@@QEAAXH@Z 00000001401804a0 f   r_vbo.obj
 0001:0017f520       ?VBOSubBufferData@CVBO@@QEAAXIPEBXI@Z 0000000140180520 f   r_vbo.obj
 0001:0017f5e0       ?Bind@CVBO@@QEAAXXZ        00000001401805e0 f   r_vbo.obj
 0001:0017f640       ?UnBind@CVBO@@QEAAXXZ      0000000140180640 f   r_vbo.obj
 0001:0017f6a0       ?VBM_CalculateBoneAdjustments@@YAXPEBUstudiohdr_t@@MPEAMPEBM2E@Z 00000001401806a0 f   vbm_shared.obj
 0001:0017f9e0       ?VBM_InterpolateBones@@YAXPEBUstudiohdr_t@@PEAY03$$CBMPEBVVector@@12MPEAY03MPEAV2@@Z 00000001401809e0 f   vbm_shared.obj
 0001:001800a0       ?VBM_GetAnimation@@YAPEBUmstudioanim_t@@PEBUstudiohdr_t@@PEBUmstudioseqdesc_t@@@Z 00000001401810a0 f   vbm_shared.obj
 0001:00180110       ?VBM_CalculateBoneQuaternion@@YAXHMPEBUmstudiobone_t@@PEBUmstudioanim_t@@PEBMAEAY03M@Z 0000000140181110 f   vbm_shared.obj
 0001:00180510       ?VBM_CalculateBonePosition@@YAXHMPEBUmstudiobone_t@@PEBUmstudioanim_t@@PEBMAEAVVector@@@Z 0000000140181510 f   vbm_shared.obj
 0001:001807f0       ?VBM_EstimateFrame@@YAMPEBUmstudioseqdesc_t@@AEBUentity_state_t@@N@Z 00000001401817f0 f   vbm_shared.obj
 0001:001808d0       ?VBM_HasTransparentParts@@YA_NPEAUvbmheader_t@@_KH@Z 00000001401818d0 f   vbm_shared.obj
 0001:00180ad0       ?VBM_CalculateRotations@@YAXPEBUstudiohdr_t@@MMMPEAVVector@@PEAY03MPEBUmstudioseqdesc_t@@PEBUmstudioanim_t@@MPEBM5E@Z 0000000140181ad0 f   vbm_shared.obj
 0001:00180d50       ?VBM_MeshBonesCompatible@@YA_NPEAUvbmmesh_t@@0PEAUvbmheader_t@@P6APEAUen_material_t@@H@Z@Z 0000000140181d50 f   vbm_shared.obj
 0001:00180fd0       ?VBM_PostLoadCheckSubmodel@@YA_NPEAUvbmheader_t@@PEAUvbmsubmodel_t@@P6APEAUen_material_t@@H@Z@Z 0000000140181fd0 f   vbm_shared.obj
 0001:00181120       ?VBM_PostLoadVBMCheck@@YA_NPEAUvbmheader_t@@P6APEAUen_material_t@@H@Z@Z 0000000140182120 f   vbm_shared.obj
 0001:00181340       ?getObject@ui_windowdescription_t@@QEBAPEBUui_objectinfo_t@@W4ui_object_type_t@@PEBD@Z 0000000140182340 f i uiconsolewindow.obj
 0001:00181480       ??_ECUIConsoleWindow@@UEAAPEAXI@Z 0000000140182480 f i * CIL library *:* CIL module *
 0001:00181480       ??_GCUIConsoleWindow@@UEAAPEAXI@Z 0000000140182480 f i uiconsolewindow.obj
 0001:00181510       ?CreateInstance@CUIConsoleWindow@@SAPEAV1@XZ 0000000140182510 f   uiconsolewindow.obj
 0001:00181810       ?init@CUIConsoleWindow@@UEAA_NPEBUui_windowdescription_t@@PEBUui_objectinfo_t@@@Z 0000000140182810 f   uiconsolewindow.obj
 0001:00181f90       ?Execute@CUIConsoleWindow@@UEAAXXZ 0000000140182f90 f   uiconsolewindow.obj
 0001:001821a0       ?GetNextBestInputChoice@CUIConsoleWindow@@UEAAXXZ 00000001401831a0 f   uiconsolewindow.obj
 0001:001826e0       ?ResetTabFilter@CUIConsoleWindow@@UEAAXXZ 00000001401836e0 f   uiconsolewindow.obj
 0001:00182750       ?SetHistoryText@CUIConsoleWindow@@UEAAXPEBD@Z 0000000140183750 f   uiconsolewindow.obj
 0001:00182770       ?SaveInputText@CUIConsoleWindow@@UEAAXXZ 0000000140183770 f   uiconsolewindow.obj
 0001:001828f0       ?RestoreInputText@CUIConsoleWindow@@UEAA_NXZ 00000001401838f0 f   uiconsolewindow.obj
 0001:00182980       ?ClearInputText@CUIConsoleWindow@@UEAAXXZ 0000000140183980 f   uiconsolewindow.obj
 0001:001829a0       ?SetInputText@CUIConsoleWindow@@UEAAXPEBD@Z 00000001401839a0 f   uiconsolewindow.obj
 0001:001829c0       ?onGLInitialization@CUIConsoleWindow@@UEAAXXZ 00000001401839c0 f   uiconsolewindow.obj
 0001:00182a80       ?PerformAction@CUIConsoleExecuteCallback@@UEAAXM@Z 0000000140183a80 f   uiconsolewindow.obj
 0001:00182a90       ?KeyEvent@CUIConsoleKeyEventCallback@@UEAA_NHF_N@Z 0000000140183a90 f   uiconsolewindow.obj
 0001:00182c60       ?PerformAction@CUIDownloadWindowCancelEvent@@UEAAXM@Z 0000000140183c60 f i uidownloadwindow.obj
 0001:00182cd0       ??_ECUIDownloadWindow@@UEAAPEAXI@Z 0000000140183cd0 f i * CIL library *:* CIL module *
 0001:00182cd0       ??_GCUIDownloadWindow@@UEAAPEAXI@Z 0000000140183cd0 f i uidownloadwindow.obj
 0001:00182d50       ?CreateInstance@CUIDownloadWindow@@SAPEAV1@XZ 0000000140183d50 f   uidownloadwindow.obj
 0001:00182fc0       ?init@CUIDownloadWindow@@UEAA_NPEBUui_windowdescription_t@@PEBUui_objectinfo_t@@@Z 0000000140183fc0 f   uidownloadwindow.obj
 0001:001837b0       ?SetDownloadFileName@CUIDownloadWindow@@QEAAXPEBD@Z 00000001401847b0 f   uidownloadwindow.obj
 0001:00183950       ?PerformAction@CUIExitWindowEvent@@UEAAXM@Z 0000000140184950 f i uiexitwindow.obj
 0001:00183950       ?PerformAction@CUINewGameWindowButtonEvent@@UEAAXM@Z 0000000140184950 f i uinewgamewindow.obj
 0001:00183970       ??_ECUIExitWindow@@UEAAPEAXI@Z 0000000140184970 f i * CIL library *:* CIL module *
 0001:00183970       ??_GCUIExitWindow@@UEAAPEAXI@Z 0000000140184970 f i uiexitwindow.obj
 0001:001839d0       ?CreateInstance@CUIExitWindow@@SAPEAV1@_N@Z 00000001401849d0 f   uiexitwindow.obj
 0001:00183c10       ?init@CUIExitWindow@@UEAA_NPEBUui_windowdescription_t@@PEBUui_objectinfo_t@@_N@Z 0000000140184c10 f   uiexitwindow.obj
 0001:00184290       ?buttonPressed@CUIExitWindow@@UEAAXI@Z 0000000140185290 f   uiexitwindow.obj
 0001:00184370       ??_ECUINewGameWindow@@UEAAPEAXI@Z 0000000140185370 f i * CIL library *:* CIL module *
 0001:00184370       ??_GCUINewGameWindow@@UEAAPEAXI@Z 0000000140185370 f i uinewgamewindow.obj
 0001:001843d0       ?CreateInstance@CUINewGameWindow@@SAPEAV1@_N@Z 00000001401853d0 f   uinewgamewindow.obj
 0001:00184610       ?init@CUINewGameWindow@@UEAA_NPEBUui_windowdescription_t@@PEBUui_objectinfo_t@@_N@Z 0000000140185610 f   uinewgamewindow.obj
 0001:00184d80       ?buttonPressed@CUINewGameWindow@@UEAAXI@Z 0000000140185d80 f   uinewgamewindow.obj
 0001:001855a0       ??0save_file_t@CUISaveLoadWindow@@QEAA@XZ 00000001401865a0 f i uisaveloadwindow.obj
 0001:00185650       ??_ECUISaveLoadWindow@@UEAAPEAXI@Z 0000000140186650 f i * CIL library *:* CIL module *
 0001:00185650       ??_GCUISaveLoadWindow@@UEAAPEAXI@Z 0000000140186650 f i uisaveloadwindow.obj
 0001:00185790       ?CreateInstance@CUISaveLoadWindow@@SAPEAV1@_N@Z 0000000140186790 f   uisaveloadwindow.obj
 0001:00185a30       ?AddSaveFileInfo@CUISaveLoadWindow@@AEAAXAEBVCString@@AEAU_FILETIME@@@Z 0000000140186a30 f   uisaveloadwindow.obj
 0001:00186280       ??1save_file_t@CUISaveLoadWindow@@QEAA@XZ 0000000140187280 f i uisaveloadwindow.obj
 0001:001862a0       ?CreateSaveFileRow@CUISaveLoadWindow@@AEAAXAEAUsave_file_t@1@I@Z 00000001401872a0 f   uisaveloadwindow.obj
 0001:00186e20       ?init@CUISaveLoadWindow@@UEAA_NPEBUui_windowdescription_t@@PEBUui_objectinfo_t@@_N@Z 0000000140187e20 f   uisaveloadwindow.obj
 0001:00187820       ?setFocusState@CUISaveLoadWindow@@UEAAX_N@Z 0000000140188820 f   uisaveloadwindow.obj
 0001:00187980       ?LoadSaves@CUISaveLoadWindow@@QEAAX_N@Z 0000000140188980 f   uisaveloadwindow.obj
 0001:00187eb0       ?postThink@CUISaveLoadWindow@@UEAAXXZ 0000000140188eb0 f   uisaveloadwindow.obj
 0001:00187fb0       ?SetBackgroundTexture@CUISaveLoadWindow@@AEAAXPEAUsave_file_t@1@@Z 0000000140188fb0 f   uisaveloadwindow.obj
 0001:00188670       ?SetFocusOnRow@CUISaveLoadWindow@@QEAAXHH@Z 0000000140189670 f   uisaveloadwindow.obj
 0001:00188940       ?RowDoubleClickEvent@CUISaveLoadWindow@@QEAAXH@Z 0000000140189940 f   uisaveloadwindow.obj
 0001:00188b40       ?keyEvent@CUISaveLoadWindow@@UEAA_NHF_N@Z 0000000140189b40 f   uisaveloadwindow.obj
 0001:00188b80       ?MouseButtonEvent@CUISaveLoadWindowRowEvent@@UEAA_NHHH_N@Z 0000000140189b80 f   uisaveloadwindow.obj
 0001:00188c00       ?PerformAction@CUISaveLoadWindowButtonEvent@@UEAAXM@Z 0000000140189c00 f   uisaveloadwindow.obj
 0001:00188dd0       ??_Esave_file_t@CUISaveLoadWindow@@QEAAPEAXI@Z 0000000140189dd0 f i uisaveloadwindow.obj
 0001:00188e10       ??4save_file_t@CUISaveLoadWindow@@QEAAAEAU01@AEBU01@@Z 0000000140189e10 f i uisaveloadwindow.obj
 0001:00189310       ?resize@?$CArray@Usave_file_t@CUISaveLoadWindow@@@@QEAAXI@Z 000000014018a310 f i uisaveloadwindow.obj
 0001:00189490       ??1CUISettingsEventBase@@UEAA@XZ 000000014018a490 f i uisettingswindow.obj
 0001:001894a0       ??_ECUISliderAdjustEvent@@UEAAPEAXI@Z 000000014018a4a0 f i * CIL library *:* CIL module *
 0001:001894a0       ??_GCUISliderAdjustEvent@@UEAAPEAXI@Z 000000014018a4a0 f i uisettingswindow.obj
 0001:00189500       ??_ECUITickBoxEvent@@UEAAPEAXI@Z 000000014018a500 f i * CIL library *:* CIL module *
 0001:00189500       ??_GCUITickBoxEvent@@UEAAPEAXI@Z 000000014018a500 f i uisettingswindow.obj
 0001:00189560       ?SetRowIndex@CUIBindsRowEvent@@UEAAXI@Z 000000014018a560 f i uisettingswindow.obj
 0001:00189570       ??0scrollsurf_option_t@CUISettingsWindow@@QEAA@XZ 000000014018a570 f i uisettingswindow.obj
 0001:001895f0       ??_ECUISettingsWindow@@UEAAPEAXI@Z 000000014018a5f0 f i * CIL library *:* CIL module *
 0001:001895f0       ??_GCUISettingsWindow@@UEAAPEAXI@Z 000000014018a5f0 f i uisettingswindow.obj
 0001:00189630       ??1CUISettingsWindow@@UEAA@XZ 000000014018a630 f   uisettingswindow.obj
 0001:00189790       ?CreateInstance@CUISettingsWindow@@SAPEAV1@XZ 000000014018a790 f   uisettingswindow.obj
 0001:00189a80       ?init@CUISettingsWindow@@UEAA_NPEBUui_windowdescription_t@@PEBUui_objectinfo_t@@@Z 000000014018aa80 f   uisettingswindow.obj
 0001:0018a110       ?LoadScrollableOptionsList@CUISettingsWindow@@AEAA_NPEAVCUITabBody@@PEBUui_windowdescription_t@@PEBUui_objectinfo_t@@PEBD3@Z 000000014018b110 f   uisettingswindow.obj
 0001:0018c680       ??1scrollsurf_option_t@CUISettingsWindow@@QEAA@XZ 000000014018d680 f i uisettingswindow.obj
 0001:0018c700       ?AdvancedOptionSelect@CUISettingsWindow@@QEAAXII@Z 000000014018d700 f   uisettingswindow.obj
 0001:0018ca90       ?InitVideoTab@CUISettingsWindow@@AEAAPEAVCUITabBody@@PEAVCUITabList@@PEBUui_windowdescription_t@@PEBUui_objectinfo_t@@@Z 000000014018da90 f   uisettingswindow.obj
 0001:0018e060       ?InitAudioTab@CUISettingsWindow@@AEAAPEAVCUITabBody@@PEAVCUITabList@@PEBUui_windowdescription_t@@PEBUui_objectinfo_t@@@Z 000000014018f060 f   uisettingswindow.obj
 0001:0018f050       ?PopulateResolutions@CUISettingsWindow@@AEAAXH@Z 0000000140190050 f   uisettingswindow.obj
 0001:0018f320       ?InitBindsTab@CUISettingsWindow@@AEAAPEAVCUITabBody@@PEAVCUITabList@@PEBUui_windowdescription_t@@PEBUui_objectinfo_t@@@Z 0000000140190320 f   uisettingswindow.obj
 0001:0018f9b0       ?InitMouseTab@CUISettingsWindow@@AEAAPEAVCUITabBody@@PEAVCUITabList@@PEBUui_windowdescription_t@@PEBUui_objectinfo_t@@@Z 00000001401909b0 f   uisettingswindow.obj
 0001:00190b50       ?InitGameplayTab@CUISettingsWindow@@AEAAPEAVCUITabBody@@PEAVCUITabList@@PEBUui_windowdescription_t@@PEBUui_objectinfo_t@@@Z 0000000140191b50 f   uisettingswindow.obj
 0001:00191890       ?AddTickBox@CUISettingsWindow@@AEAA_NPEAVCUITabBody@@PEBUui_windowdescription_t@@PEBUui_objectinfo_t@@AEBVCString@@33PEBD4@Z 0000000140192890 f   uisettingswindow.obj
 0001:00191d20       ?LoadBindsList@CUISettingsWindow@@AEAAXXZ 0000000140192d20 f   uisettingswindow.obj
 0001:00192760       ?ResetBindsList@CUISettingsWindow@@AEAAXXZ 0000000140193760 f   uisettingswindow.obj
 0001:001928f0       ?AddPendingSetting@CUISettingsWindow@@AEAAXPEBD0@Z 00000001401938f0 f   uisettingswindow.obj
 0001:00192f70       ?EnterBindMode@CUISettingsWindow@@QEAAXI@Z 0000000140193f70 f   uisettingswindow.obj
 0001:00192fe0       ?LeaveBindMode@CUISettingsWindow@@QEAAXXZ 0000000140193fe0 f   uisettingswindow.obj
 0001:00193040       ?postThink@CUISettingsWindow@@UEAAXXZ 0000000140194040 f   uisettingswindow.obj
 0001:001930b0       ?mouseButtonEvent@CUISettingsWindow@@UEAA_NHHH_N@Z 00000001401940b0 f   uisettingswindow.obj
 0001:001931b0       ?keyEvent@CUISettingsWindow@@UEAA_NHF_N@Z 00000001401941b0 f   uisettingswindow.obj
 0001:00193310       ?SetBind@CUISettingsWindow@@EEAAXPEBD0@Z 0000000140194310 f   uisettingswindow.obj
 0001:001936a0       ?ClearSelectedKey@CUISettingsWindow@@QEAAXXZ 00000001401946a0 f   uisettingswindow.obj
 0001:001938a0       ?ApplyChanges@CUISettingsWindow@@QEAAXXZ 00000001401948a0 f   uisettingswindow.obj
 0001:00193a80       ?SelectResolution@CUISettingsWindow@@QEAAXH@Z 0000000140194a80 f   uisettingswindow.obj
 0001:00193ce0       ?CVarChanged@CUISettingsWindow@@QEAAXPEBDM@Z 0000000140194ce0 f   uisettingswindow.obj
 0001:00193eb0       ?PerformAction@CUISettingsApplyEvent@@UEAAXM@Z 0000000140194eb0 f   uisettingswindow.obj
 0001:00193ec0       ?MouseButtonEvent@CUIBindsRowEvent@@UEAA_NHHH_N@Z 0000000140194ec0 f   uisettingswindow.obj
 0001:00193f60       ?PerformAction@CUITabSelectEvent@@UEAAXM@Z 0000000140194f60 f   uisettingswindow.obj
 0001:00193f80       ?PerformAction@CUIBindsClearBtnEvent@@UEAAXM@Z 0000000140194f80 f   uisettingswindow.obj
 0001:00193f90       ?PerformAction@CUIBindsRestoreButtonEvent@@UEAAXM@Z 0000000140194f90 f   uisettingswindow.obj
 0001:001940b0       ?PerformAction@CUIBindsBindBtnEvent@@UEAAXM@Z 00000001401950b0 f   uisettingswindow.obj
 0001:001940d0       ?PerformAction@CUIDeviceSelectEvent@@UEAAXM@Z 00000001401950d0 f   uisettingswindow.obj
 0001:00194240       ?PerformAction@CUIResolutionSelectEvent@@UEAAXM@Z 0000000140195240 f   uisettingswindow.obj
 0001:00194260       ?PerformAction@CUIWindowModeSelectEvent@@UEAAXM@Z 0000000140195260 f   uisettingswindow.obj
 0001:00194370       ?PerformAction@CUIAnisotropySelectEvent@@UEAAXM@Z 0000000140195370 f   uisettingswindow.obj
 0001:00194510       ?PerformAction@CUIVerticalSyncSelectEvent@@UEAAXM@Z 0000000140195510 f   uisettingswindow.obj
 0001:00194670       ?PerformAction@CUIScrollSurfaceDropListToggleEvent@@UEAAXM@Z 0000000140195670 f   uisettingswindow.obj
 0001:00194730       ?PerformAction@CUIScrollSurfaceDropListSelectEvent@@UEAAXM@Z 0000000140195730 f   uisettingswindow.obj
 0001:00194750       ?PerformAction@CUITickBoxEvent@@UEAAXM@Z 0000000140195750 f   uisettingswindow.obj
 0001:00194780       ?PerformAction@CUISliderAdjustEvent@@UEAAXM@Z 0000000140195780 f   uisettingswindow.obj
 0001:001949b0       ??A?$CArray@Uscrollsurf_option_t@CUISettingsWindow@@@@QEBAAEAUscrollsurf_option_t@CUISettingsWindow@@I@Z 00000001401959b0 f i uisettingswindow.obj
 0001:00194a00       ??_Escrollsurf_option_t@CUISettingsWindow@@QEAAPEAXI@Z 0000000140195a00 f i uisettingswindow.obj
 0001:00194a40       ??4scrollsurf_option_t@CUISettingsWindow@@QEAAAEAU01@AEBU01@@Z 0000000140195a40 f i uisettingswindow.obj
 0001:00194b20       ?resize@?$CArray@Uscrollsurf_option_t@CUISettingsWindow@@@@QEAAXI@Z 0000000140195b20 f i uisettingswindow.obj
 0001:001a4b80       ogg_page_continued         00000001401a5b80 f   libogg_static:framing.obj
 0001:001a4b90       ogg_page_bos               00000001401a5b90 f   libogg_static:framing.obj
 0001:001a4ba0       ogg_page_eos               00000001401a5ba0 f   libogg_static:framing.obj
 0001:001a4bb0       ogg_page_granulepos        00000001401a5bb0 f   libogg_static:framing.obj
 0001:001a4c10       ogg_page_serialno          00000001401a5c10 f   libogg_static:framing.obj
 0001:001a4c40       ogg_stream_init            00000001401a5c40 f   libogg_static:framing.obj
 0001:001a4d10       ogg_stream_clear           00000001401a5d10 f   libogg_static:framing.obj
 0001:001a4f00       ogg_page_checksum_set      00000001401a5f00 f   libogg_static:framing.obj
 0001:001a4fc0       ogg_sync_init              00000001401a5fc0 f   libogg_static:framing.obj
 0001:001a4fe0       ogg_sync_clear             00000001401a5fe0 f   libogg_static:framing.obj
 0001:001a5010       ogg_sync_buffer            00000001401a6010 f   libogg_static:framing.obj
 0001:001a50f0       ogg_sync_wrote             00000001401a60f0 f   libogg_static:framing.obj
 0001:001a5110       ogg_sync_pageseek          00000001401a6110 f   libogg_static:framing.obj
 0001:001a52a0       ogg_stream_pagein          00000001401a62a0 f   libogg_static:framing.obj
 0001:001a5600       ogg_sync_reset             00000001401a6600 f   libogg_static:framing.obj
 0001:001a5620       ogg_stream_reset           00000001401a6620 f   libogg_static:framing.obj
 0001:001a5670       ogg_stream_reset_serialno  00000001401a6670 f   libogg_static:framing.obj
 0001:001a57d0       ogg_stream_packetout       00000001401a67d0 f   libogg_static:framing.obj
 0001:001a57f0       ogg_stream_packetpeek      00000001401a67f0 f   libogg_static:framing.obj
 0001:001a5810       oggpack_write              00000001401a6810 f   libogg_static:bitwise.obj
 0001:001a5960       oggpack_look               00000001401a6960 f   libogg_static:bitwise.obj
 0001:001a5a20       oggpack_adv                00000001401a6a20 f   libogg_static:bitwise.obj
 0001:001a5a80       oggpack_read               00000001401a6a80 f   libogg_static:bitwise.obj
 0001:001a5b9b       __tailMerge_sdl2_dll       00000001401a6b9b     SDL2:SDL2.dll
 0001:001a5c14       __imp_load_SDL_tolower     00000001401a6c14 f   SDL2:SDL2.dll
 0001:001a5c20       __imp_load_SDL_isdigit     00000001401a6c20 f   SDL2:SDL2.dll
 0001:001a5c2c       __imp_load_SDL_ceil        00000001401a6c2c f   SDL2:SDL2.dll
 0001:001a5c38       __imp_load_SDL_floor       00000001401a6c38 f   SDL2:SDL2.dll
 0001:001a5c44       __imp_load_SDL_isspace     00000001401a6c44 f   SDL2:SDL2.dll
 0001:001a5c50       __imp_load_SDL_toupper     00000001401a6c50 f   SDL2:SDL2.dll
 0001:001a5c5c       __imp_load_SDL_atof        00000001401a6c5c f   SDL2:SDL2.dll
 0001:001a5c68       __imp_load_SDL_fabs        00000001401a6c68 f   SDL2:SDL2.dll
 0001:001a5c74       __imp_load_SDL_GetBasePath 00000001401a6c74 f   SDL2:SDL2.dll
 0001:001a5c80       __imp_load_SDL_sqrt        00000001401a6c80 f   SDL2:SDL2.dll
 0001:001a5c8c       __imp_load_SDL_cos         00000001401a6c8c f   SDL2:SDL2.dll
 0001:001a5c98       __imp_load_SDL_abs         00000001401a6c98 f   SDL2:SDL2.dll
 0001:001a5ca4       __imp_load_SDL_sin         00000001401a6ca4 f   SDL2:SDL2.dll
 0001:001a5cb0       __imp_load_SDL_atan2f      00000001401a6cb0 f   SDL2:SDL2.dll
 0001:001a5cbc       __imp_load_SDL_acos        00000001401a6cbc f   SDL2:SDL2.dll
 0001:001a5cc8       __imp_load_SDL_atan2       00000001401a6cc8 f   SDL2:SDL2.dll
 0001:001a5cd4       __imp_load_SDL_atoi        00000001401a6cd4 f   SDL2:SDL2.dll
 0001:001a5ce0       __imp_load_SDL_tan         00000001401a6ce0 f   SDL2:SDL2.dll
 0001:001a5cec       __imp_load_SDL_atan        00000001401a6cec f   SDL2:SDL2.dll
 0001:001a5cf8       __imp_load_SDL_LoadFunction 00000001401a6cf8 f   SDL2:SDL2.dll
 0001:001a5d04       __imp_load_SDL_UnloadObject 00000001401a6d04 f   SDL2:SDL2.dll
 0001:001a5d10       __imp_load_SDL_LoadObject  00000001401a6d10 f   SDL2:SDL2.dll
 0001:001a5d1c       __imp_load_SDL_ClearError  00000001401a6d1c f   SDL2:SDL2.dll
 0001:001a5d28       __imp_load_SDL_GetError    00000001401a6d28 f   SDL2:SDL2.dll
 0001:001a5d34       __imp_load_SDL_RWFromFile  00000001401a6d34 f   SDL2:SDL2.dll
 0001:001a5d40       __imp_load_SDL_sinf        00000001401a6d40 f   SDL2:SDL2.dll
 0001:001a5d4c       __imp_load_SDL_cosf        00000001401a6d4c f   SDL2:SDL2.dll
 0001:001a5d58       __imp_load_SDL_fmod        00000001401a6d58 f   SDL2:SDL2.dll
 0001:001a5d64       __imp_load_SDL_GetKeyName  00000001401a6d64 f   SDL2:SDL2.dll
 0001:001a5d70       __imp_load_SDL_GetKeyFromScancode 00000001401a6d70 f   SDL2:SDL2.dll
 0001:001a5d7c       __imp_load_SDL_ShowCursor  00000001401a6d7c f   SDL2:SDL2.dll
 0001:001a5d88       __imp_load_SDL_GetMouseState 00000001401a6d88 f   SDL2:SDL2.dll
 0001:001a5d94       __imp_load_SDL_WarpMouseInWindow 00000001401a6d94 f   SDL2:SDL2.dll
 0001:001a5da0       __imp_load_SDL_GetWindowPosition 00000001401a6da0 f   SDL2:SDL2.dll
 0001:001a5dac       __imp_load_SDL_Init        00000001401a6dac f   SDL2:SDL2.dll
 0001:001a5db8       __imp_load_SDL_Quit        00000001401a6db8 f   SDL2:SDL2.dll
 0001:001a5dc4       SDL_ShowSimpleMessageBox   00000001401a6dc4 f   SDL2:SDL2.dll
 0001:001a5dca       __imp_load_SDL_ShowSimpleMessageBox 00000001401a6dca f   SDL2:SDL2.dll
 0001:001a5dd6       __imp_load_SDL_ShowWindow  00000001401a6dd6 f   SDL2:SDL2.dll
 0001:001a5de2       __imp_load_SDL_PollEvent   00000001401a6de2 f   SDL2:SDL2.dll
 0001:001a5dee       __imp_load_SDL_GetDisplayMode 00000001401a6dee f   SDL2:SDL2.dll
 0001:001a5dfa       __imp_load_SDL_GL_SwapWindow 00000001401a6dfa f   SDL2:SDL2.dll
 0001:001a5e06       __imp_load_SDL_GetNumDisplayModes 00000001401a6e06 f   SDL2:SDL2.dll
 0001:001a5e12       __imp_load_SDL_GL_DeleteContext 00000001401a6e12 f   SDL2:SDL2.dll
 0001:001a5e1e       __imp_load_SDL_GetDisplayBounds 00000001401a6e1e f   SDL2:SDL2.dll
 0001:001a5e2a       __imp_load_SDL_GetNumVideoDisplays 00000001401a6e2a f   SDL2:SDL2.dll
 0001:001a5e36       __imp_load_SDL_DestroyWindow 00000001401a6e36 f   SDL2:SDL2.dll
 0001:001a5e42       __imp_load_SDL_GL_SetAttribute 00000001401a6e42 f   SDL2:SDL2.dll
 0001:001a5e4e       __imp_load_SDL_GetDisplayName 00000001401a6e4e f   SDL2:SDL2.dll
 0001:001a5e5a       __imp_load_SDL_VideoInit   00000001401a6e5a f   SDL2:SDL2.dll
 0001:001a5e66       __imp_load_SDL_GL_CreateContext 00000001401a6e66 f   SDL2:SDL2.dll
 0001:001a5e72       __imp_load_SDL_GL_SetSwapInterval 00000001401a6e72 f   SDL2:SDL2.dll
 0001:001a5e7e       __imp_load_SDL_GetCurrentDisplayMode 00000001401a6e7e f   SDL2:SDL2.dll
 0001:001a5e8a       __imp_load_SDL_CreateWindow 00000001401a6e8a f   SDL2:SDL2.dll
 0001:001a5e96       __imp_load_SDL_VideoQuit   00000001401a6e96 f   SDL2:SDL2.dll
 0001:001a6140       FT_Done_Glyph              00000001401a7140 f   freetype253:ftglyph.obj
 0001:001a6180       FT_Get_Glyph               00000001401a7180 f   freetype253:ftglyph.obj
 0001:001a6270       FT_Glyph_Copy              00000001401a7270 f   freetype253:ftglyph.obj
 0001:001a6330       FT_Glyph_Get_CBox          00000001401a7330 f   freetype253:ftglyph.obj
 0001:001a63c0       FT_Glyph_To_Bitmap         00000001401a73c0 f   freetype253:ftglyph.obj
 0001:001a6590       FT_Glyph_Transform         00000001401a7590 f   freetype253:ftglyph.obj
 0001:001a6af0       FT_Activate_Size           00000001401a7af0 f   freetype253:ftbase.obj
 0001:001a6b40       FT_Add_Module              00000001401a7b40 f   freetype253:ftbase.obj
 0001:001a6d20       FT_Angle_Diff              00000001401a7d20 f   freetype253:ftbase.obj
 0001:001a6d60       FT_Atan2                   00000001401a7d60 f   freetype253:ftbase.obj
 0001:001a6da0       FT_CMap_New                00000001401a7da0 f   freetype253:ftbase.obj
 0001:001a6ec0       FT_Cos                     00000001401a7ec0 f   freetype253:ftbase.obj
 0001:001a6ef0       FT_DivFix                  00000001401a7ef0 f   freetype253:ftbase.obj
 0001:001a6fa0       FT_Done_Face               00000001401a7fa0 f   freetype253:ftbase.obj
 0001:001a7070       FT_Done_GlyphSlot          00000001401a8070 f   freetype253:ftbase.obj
 0001:001a7100       FT_Done_Library            00000001401a8100 f   freetype253:ftbase.obj
 0001:001a7290       FT_Done_Size               00000001401a8290 f   freetype253:ftbase.obj
 0001:001a73a0       FT_Get_Advance             00000001401a83a0 f   freetype253:ftbase.obj
 0001:001a7460       FT_Get_Advances            00000001401a8460 f   freetype253:ftbase.obj
 0001:001a75b0       FT_Get_CMap_Format         00000001401a85b0 f   freetype253:ftbase.obj
 0001:001a7610       FT_Get_Char_Index          00000001401a8610 f   freetype253:ftbase.obj
 0001:001a7630       FT_Get_Glyph_Name          00000001401a8630 f   freetype253:ftbase.obj
 0001:001a7700       FT_Get_Module              00000001401a8700 f   freetype253:ftbase.obj
 0001:001a7790       FT_Get_Module_Interface    00000001401a8790 f   freetype253:ftbase.obj
 0001:001a77b0       FT_Get_Next_Char           00000001401a87b0 f   freetype253:ftbase.obj
 0001:001a7830       FT_GlyphLoader_Add         00000001401a8830 f   freetype253:ftbase.obj
 0001:001a79f0       FT_GlyphLoader_CheckPoints 00000001401a89f0 f   freetype253:ftbase.obj
 0001:001a7bb0       FT_GlyphLoader_CheckSubGlyphs 00000001401a8bb0 f   freetype253:ftbase.obj
 0001:001a7c30       FT_GlyphLoader_CopyPoints  00000001401a8c30 f   freetype253:ftbase.obj
 0001:001a7d10       FT_GlyphLoader_CreateExtra 00000001401a8d10 f   freetype253:ftbase.obj
 0001:001a7d70       FT_GlyphLoader_Done        00000001401a8d70 f   freetype253:ftbase.obj
 0001:001a7da0       FT_GlyphLoader_New         00000001401a8da0 f   freetype253:ftbase.obj
 0001:001a7de0       FT_GlyphLoader_Prepare     00000001401a8de0 f   freetype253:ftbase.obj
 0001:001a7e10       FT_GlyphLoader_Reset       00000001401a8e10 f   freetype253:ftbase.obj
 0001:001a7ea0       FT_GlyphLoader_Rewind      00000001401a8ea0 f   freetype253:ftbase.obj
 0001:001a7ee0       FT_Hypot                   00000001401a8ee0 f   freetype253:ftbase.obj
 0001:001a7f00       FT_List_Add                00000001401a8f00 f   freetype253:ftbase.obj
 0001:001a7f30       FT_List_Finalize           00000001401a8f30 f   freetype253:ftbase.obj
 0001:001a7fc0       FT_List_Find               00000001401a8fc0 f   freetype253:ftbase.obj
 0001:001a7fe0       FT_List_Remove             00000001401a8fe0 f   freetype253:ftbase.obj
 0001:001a8010       FT_List_Up                 00000001401a9010 f   freetype253:ftbase.obj
 0001:001a8050       FT_Load_Glyph              00000001401a9050 f   freetype253:ftbase.obj
 0001:001a83b0       FT_Lookup_Renderer         00000001401a93b0 f   freetype253:ftbase.obj
 0001:001a8410       FT_MSB                     00000001401a9410 f   freetype253:ftbase.obj
 0001:001a8480       FT_Match_Size              00000001401a9480 f   freetype253:ftbase.obj
 0001:001a85c0       FT_Matrix_Invert           00000001401a95c0 f   freetype253:ftbase.obj
 0001:001a8670       FT_Matrix_Multiply_Scaled  00000001401a9670 f   freetype253:ftbase.obj
 0001:001a87a0       FT_MulDiv                  00000001401a97a0 f   freetype253:ftbase.obj
 0001:001a8890       FT_MulDiv_No_Round         00000001401a9890 f   freetype253:ftbase.obj
 0001:001a8950       FT_MulFix                  00000001401a9950 f   freetype253:ftbase.obj
 0001:001a89f0       FT_New_GlyphSlot           00000001401a99f0 f   freetype253:ftbase.obj
 0001:001a8ac0       FT_New_Library             00000001401a9ac0 f   freetype253:ftbase.obj
 0001:001a8b90       FT_New_Memory_Face         00000001401a9b90 f   freetype253:ftbase.obj
 0001:001a8be0       FT_New_Size                00000001401a9be0 f   freetype253:ftbase.obj
 0001:001a8d00       FT_Open_Face               00000001401a9d00 f   freetype253:ftbase.obj
 0001:001a9150       FT_Outline_Check           00000001401aa150 f   freetype253:ftbase.obj
 0001:001a91c0       FT_Outline_Copy            00000001401aa1c0 f   freetype253:ftbase.obj
 0001:001a9260       FT_Outline_Decompose       00000001401aa260 f   freetype253:ftbase.obj
 0001:001a95d0       FT_Outline_Done            00000001401aa5d0 f   freetype253:ftbase.obj
 0001:001a95f0       FT_Outline_Done_Internal   00000001401aa5f0 f   freetype253:ftbase.obj
 0001:001a9680       FT_Outline_Get_CBox        00000001401aa680 f   freetype253:ftbase.obj
 0001:001a9730       FT_Outline_Get_Orientation 00000001401aa730 f   freetype253:ftbase.obj
 0001:001a9960       FT_Outline_New             00000001401aa960 f   freetype253:ftbase.obj
 0001:001a9980       FT_Outline_New_Internal    00000001401aa980 f   freetype253:ftbase.obj
 0001:001a9ae0       FT_Outline_Transform       00000001401aaae0 f   freetype253:ftbase.obj
 0001:001a9b40       FT_Outline_Translate       00000001401aab40 f   freetype253:ftbase.obj
 0001:001a9b80       FT_Raccess_Get_DataOffsets 00000001401aab80 f   freetype253:ftbase.obj
 0001:001a9e70       FT_Raccess_Get_HeaderInfo  00000001401aae70 f   freetype253:ftbase.obj
 0001:001aa190       FT_Raccess_Guess           00000001401ab190 f   freetype253:ftbase.obj
 0001:001aa260       FT_Remove_Module           00000001401ab260 f   freetype253:ftbase.obj
 0001:001aa300       FT_Render_Glyph            00000001401ab300 f   freetype253:ftbase.obj
 0001:001aa330       FT_Render_Glyph_Internal   00000001401ab330 f   freetype253:ftbase.obj
 0001:001aa420       FT_Request_Metrics         00000001401ab420 f   freetype253:ftbase.obj
 0001:001aa660       FT_Request_Size            00000001401ab660 f   freetype253:ftbase.obj
 0001:001aa700       FT_RoundFix                00000001401ab700 f   freetype253:ftbase.obj
 0001:001aa720       FT_Select_Charmap          00000001401ab720 f   freetype253:ftbase.obj
 0001:001aa780       FT_Select_Metrics          00000001401ab780 f   freetype253:ftbase.obj
 0001:001aa840       FT_Select_Size             00000001401ab840 f   freetype253:ftbase.obj
 0001:001aa8b0       FT_Set_Charmap             00000001401ab8b0 f   freetype253:ftbase.obj
 0001:001aa950       FT_Set_Pixel_Sizes         00000001401ab950 f   freetype253:ftbase.obj
 0001:001aa9d0       FT_Set_Renderer            00000001401ab9d0 f   freetype253:ftbase.obj
 0001:001aaa90       FT_Sin                     00000001401aba90 f   freetype253:ftbase.obj
 0001:001aaaa0       FT_Stream_Close            00000001401abaa0 f   freetype253:ftbase.obj
 0001:001aaac0       FT_Stream_EnterFrame       00000001401abac0 f   freetype253:ftbase.obj
 0001:001aabc0       FT_Stream_ExitFrame        00000001401abbc0 f   freetype253:ftbase.obj
 0001:001aac00       FT_Stream_ExtractFrame     00000001401abc00 f   freetype253:ftbase.obj
 0001:001aac40       FT_Stream_Free             00000001401abc40 f   freetype253:ftbase.obj
 0001:001aac90       FT_Stream_GetChar          00000001401abc90 f   freetype253:ftbase.obj
 0001:001aacb0       FT_Stream_GetULong         00000001401abcb0 f   freetype253:ftbase.obj
 0001:001aad00       FT_Stream_GetULongLE       00000001401abd00 f   freetype253:ftbase.obj
 0001:001aad50       FT_Stream_GetUShort        00000001401abd50 f   freetype253:ftbase.obj
 0001:001aad90       FT_Stream_GetUShortLE      00000001401abd90 f   freetype253:ftbase.obj
 0001:001aadd0       FT_Stream_New              00000001401abdd0 f   freetype253:ftbase.obj
 0001:001aaed0       FT_Stream_OpenMemory       00000001401abed0 f   freetype253:ftbase.obj
 0001:001aaef0       FT_Stream_Pos              00000001401abef0 f   freetype253:ftbase.obj
 0001:001aaf00       FT_Stream_Read             00000001401abf00 f   freetype253:ftbase.obj
 0001:001aaf10       FT_Stream_ReadAt           00000001401abf10 f   freetype253:ftbase.obj
 0001:001aaf90       FT_Stream_ReadChar         00000001401abf90 f   freetype253:ftbase.obj
 0001:001ab010       FT_Stream_ReadFields       00000001401ac010 f   freetype253:ftbase.obj
 0001:001ab290       FT_Stream_ReadULong        00000001401ac290 f   freetype253:ftbase.obj
 0001:001ab330       FT_Stream_ReadULongLE      00000001401ac330 f   freetype253:ftbase.obj
 0001:001ab3d0       FT_Stream_ReadUOffset      00000001401ac3d0 f   freetype253:ftbase.obj
 0001:001ab460       FT_Stream_ReadUShort       00000001401ac460 f   freetype253:ftbase.obj
 0001:001ab4f0       FT_Stream_ReadUShortLE     00000001401ac4f0 f   freetype253:ftbase.obj
 0001:001ab580       FT_Stream_ReleaseFrame     00000001401ac580 f   freetype253:ftbase.obj
 0001:001ab5c0       FT_Stream_Seek             00000001401ac5c0 f   freetype253:ftbase.obj
 0001:001ab620       FT_Stream_Skip             00000001401ac620 f   freetype253:ftbase.obj
 0001:001ab640       FT_Stream_TryRead          00000001401ac640 f   freetype253:ftbase.obj
 0001:001ab6c0       FT_Tan                     00000001401ac6c0 f   freetype253:ftbase.obj
 0001:001ab6f0       FT_Vector_From_Polar       00000001401ac6f0 f   freetype253:ftbase.obj
 0001:001ab710       FT_Vector_Length           00000001401ac710 f   freetype253:ftbase.obj
 0001:001ab7a0       FT_Vector_Rotate           00000001401ac7a0 f   freetype253:ftbase.obj
 0001:001ab870       FT_Vector_Transform        00000001401ac870 f   freetype253:ftbase.obj
 0001:001ab8f0       FT_Vector_Transform_Scaled 00000001401ac8f0 f   freetype253:ftbase.obj
 0001:001ac4f0       ft_corner_is_flat          00000001401ad4f0 f   freetype253:ftbase.obj
 0001:001ac560       ft_corner_orientation      00000001401ad560 f   freetype253:ftbase.obj
 0001:001ac6a0       ft_glyphslot_alloc_bitmap  00000001401ad6a0 f   freetype253:ftbase.obj
 0001:001ac820       ft_glyphslot_free_bitmap   00000001401ad820 f   freetype253:ftbase.obj
 0001:001ac9f0       ft_glyphslot_set_bitmap    00000001401ad9f0 f   freetype253:ftbase.obj
 0001:001aca20       ft_highpow2                00000001401ada20 f   freetype253:ftbase.obj
 0001:001acc10       ft_mem_alloc               00000001401adc10 f   freetype253:ftbase.obj
 0001:001acc70       ft_mem_dup                 00000001401adc70 f   freetype253:ftbase.obj
 0001:001accd0       ft_mem_free                00000001401adcd0 f   freetype253:ftbase.obj
 0001:001acce0       ft_mem_qalloc              00000001401adce0 f   freetype253:ftbase.obj
 0001:001acd40       ft_mem_qrealloc            00000001401add40 f   freetype253:ftbase.obj
 0001:001ace00       ft_mem_realloc             00000001401ade00 f   freetype253:ftbase.obj
 0001:001ace90       ft_mem_strcpyn             00000001401ade90 f   freetype253:ftbase.obj
 0001:001acec0       ft_mem_strdup              00000001401adec0 f   freetype253:ftbase.obj
 0001:001acef0       ft_module_get_service      00000001401adef0 f   freetype253:ftbase.obj
 0001:001ad160       ft_service_list_lookup     00000001401ae160 f   freetype253:ftbase.obj
 0001:001ad1f0       ft_synthesize_vertical_metrics 00000001401ae1f0 f   freetype253:ftbase.obj
 0001:001ad520       ft_validator_error         00000001401ae520 f   freetype253:ftbase.obj
 0001:001ad540       ft_validator_init          00000001401ae540 f   freetype253:ftbase.obj
 0001:001adef0       FT_Glyph_StrokeBorder      00000001401aeef0 f   freetype253:ftstroke.obj
 0001:001ae040       FT_Outline_GetOutsideBorder 00000001401af040 f   freetype253:ftstroke.obj
 0001:001ae060       FT_Stroker_BeginSubPath    00000001401af060 f   freetype253:ftstroke.obj
 0001:001ae0b0       FT_Stroker_ConicTo         00000001401af0b0 f   freetype253:ftstroke.obj
 0001:001ae570       FT_Stroker_CubicTo         00000001401af570 f   freetype253:ftstroke.obj
 0001:001aead0       FT_Stroker_EndSubPath      00000001401afad0 f   freetype253:ftstroke.obj
 0001:001aebe0       FT_Stroker_ExportBorder    00000001401afbe0 f   freetype253:ftstroke.obj
 0001:001aec10       FT_Stroker_GetBorderCounts 00000001401afc10 f   freetype253:ftstroke.obj
 0001:001aec90       FT_Stroker_LineTo          00000001401afc90 f   freetype253:ftstroke.obj
 0001:001aede0       FT_Stroker_New             00000001401afde0 f   freetype253:ftstroke.obj
 0001:001aee60       FT_Stroker_ParseOutline    00000001401afe60 f   freetype253:ftstroke.obj
 0001:001af140       FT_Stroker_Rewind          00000001401b0140 f   freetype253:ftstroke.obj
 0001:001af170       FT_Stroker_Set             00000001401b0170 f   freetype253:ftstroke.obj
 0001:001b0420       FT_Add_Default_Modules     00000001401b1420 f   freetype253:ftinit.obj
 0001:001b0470       FT_Done_FreeType           00000001401b1470 f   freetype253:ftinit.obj
 0001:001b04a0       FT_Init_FreeType           00000001401b14a0 f   freetype253:ftinit.obj
 0001:001b0520       FT_Bitmap_Convert          00000001401b1520 f   freetype253:ftbitmap.obj
 0001:001b09d0       FT_Bitmap_Copy             00000001401b19d0 f   freetype253:ftbitmap.obj
 0001:001b0ad0       FT_Bitmap_Done             00000001401b1ad0 f   freetype253:ftbitmap.obj
 0001:001b0b30       FT_Bitmap_New              00000001401b1b30 f   freetype253:ftbitmap.obj
 0001:001b0c60       FT_Done_Memory             00000001401b1c60 f   freetype253:ftsystem.obj
 0001:001b0c70       FT_New_Memory              00000001401b1c70 f   freetype253:ftsystem.obj
 0001:001b0cb0       FT_Stream_Open             00000001401b1cb0 f   freetype253:ftsystem.obj
 0001:001b3920       af_get_char_index          00000001401b4920 f   freetype253:autofit.obj
 0001:001bd0b0       TT_New_Context             00000001401be0b0 f   freetype253:truetype.obj
 0001:001bd720       TT_RunIns                  00000001401be720 f   freetype253:truetype.obj
 0001:001dfc20       ps_hints_apply             00000001401e0c20 f   freetype253:pshinter.obj
 0001:001f3590       FT_Gzip_Uncompress         00000001401f4590 f   freetype253:ftgzip.obj
 0001:001f36a0       FT_Stream_OpenGzip         00000001401f46a0 f   freetype253:ftgzip.obj
 0001:001f61d0       FT_Stream_OpenLZW          00000001401f71d0 f   freetype253:ftlzw.obj
 0001:001f6640       ft_lzwstate_done           00000001401f7640 f   freetype253:ftlzw.obj
 0001:001f67b0       ft_lzwstate_init           00000001401f77b0 f   freetype253:ftlzw.obj
 0001:001f6820       ft_lzwstate_io             00000001401f7820 f   freetype253:ftlzw.obj
 0001:001f6c00       ft_lzwstate_reset          00000001401f7c00 f   freetype253:ftlzw.obj
 0001:001f6cc8       __tailMerge_openal32_dll   00000001401f7cc8     openal32:OpenAL32.dll
 0001:001f6d41       __imp_load_alDeleteSources 00000001401f7d41 f   openal32:OpenAL32.dll
 0001:001f6d4d       __imp_load_alBufferData    00000001401f7d4d f   openal32:OpenAL32.dll
 0001:001f6d59       __imp_load_alListenerfv    00000001401f7d59 f   openal32:OpenAL32.dll
 0001:001f6d65       __imp_load_alDeleteBuffers 00000001401f7d65 f   openal32:OpenAL32.dll
 0001:001f6d71       __imp_load_alDopplerVelocity 00000001401f7d71 f   openal32:OpenAL32.dll
 0001:001f6d7d       __imp_load_alSource3f      00000001401f7d7d f   openal32:OpenAL32.dll
 0001:001f6d89       __imp_load_alGenSources    00000001401f7d89 f   openal32:OpenAL32.dll
 0001:001f6d95       __imp_load_alcMakeContextCurrent 00000001401f7d95 f   openal32:OpenAL32.dll
 0001:001f6da1       __imp_load_alcDestroyContext 00000001401f7da1 f   openal32:OpenAL32.dll
 0001:001f6dad       __imp_load_alSourceUnqueueBuffers 00000001401f7dad f   openal32:OpenAL32.dll
 0001:001f6db9       __imp_load_alDistanceModel 00000001401f7db9 f   openal32:OpenAL32.dll
 0001:001f6dc5       __imp_load_alcOpenDevice   00000001401f7dc5 f   openal32:OpenAL32.dll
 0001:001f6dd1       __imp_load_alSourcePause   00000001401f7dd1 f   openal32:OpenAL32.dll
 0001:001f6ddd       __imp_load_alSourcePlay    00000001401f7ddd f   openal32:OpenAL32.dll
 0001:001f6de9       __imp_load_alGetProcAddress 00000001401f7de9 f   openal32:OpenAL32.dll
 0001:001f6df5       __imp_load_alGetSourcei    00000001401f7df5 f   openal32:OpenAL32.dll
 0001:001f6e01       __imp_load_alSourceStop    00000001401f7e01 f   openal32:OpenAL32.dll
 0001:001f6e0d       __imp_load_alcCreateContext 00000001401f7e0d f   openal32:OpenAL32.dll
 0001:001f6e19       __imp_load_alcGetIntegerv  00000001401f7e19 f   openal32:OpenAL32.dll
 0001:001f6e25       __imp_load_alGetString     00000001401f7e25 f   openal32:OpenAL32.dll
 0001:001f6e31       __imp_load_alListenerf     00000001401f7e31 f   openal32:OpenAL32.dll
 0001:001f6e3d       __imp_load_alSourcefv      00000001401f7e3d f   openal32:OpenAL32.dll
 0001:001f6e49       __imp_load_alGenBuffers    00000001401f7e49 f   openal32:OpenAL32.dll
 0001:001f6e55       __imp_load_alSourceQueueBuffers 00000001401f7e55 f   openal32:OpenAL32.dll
 0001:001f6e61       __imp_load_alcCloseDevice  00000001401f7e61 f   openal32:OpenAL32.dll
 0001:001f6e6d       __imp_load_alListener3f    00000001401f7e6d f   openal32:OpenAL32.dll
 0001:001f6e79       __imp_load_alSourcei       00000001401f7e79 f   openal32:OpenAL32.dll
 0001:001f6e85       __imp_load_alSourcef       00000001401f7e85 f   openal32:OpenAL32.dll
 0001:001f6e91       __imp_load_alDopplerFactor 00000001401f7e91 f   openal32:OpenAL32.dll
 0001:001f6e9d       __imp_load_alSource3i      00000001401f7e9d f   openal32:OpenAL32.dll
 0001:001f8490       ov_clear                   00000001401f9490 f   libvorbisfile_static:vorbisfile.obj
 0001:001f85b0       ov_info                    00000001401f95b0 f   libvorbisfile_static:vorbisfile.obj
 0001:001f8600       ov_open_callbacks          00000001401f9600 f   libvorbisfile_static:vorbisfile.obj
 0001:001f8650       ov_pcm_seek                00000001401f9650 f   libvorbisfile_static:vorbisfile.obj
 0001:001f8990       ov_pcm_seek_page           00000001401f9990 f   libvorbisfile_static:vorbisfile.obj
 0001:001f9180       ov_pcm_total               00000001401fa180 f   libvorbisfile_static:vorbisfile.obj
 0001:001f9200       ov_raw_seek                00000001401fa200 f   libvorbisfile_static:vorbisfile.obj
 0001:001f9630       ov_read                    00000001401fa630 f   libvorbisfile_static:vorbisfile.obj
 0001:001f9670       ov_read_filter             00000001401fa670 f   libvorbisfile_static:vorbisfile.obj
 0001:001f9a10       ov_time_seek               00000001401faa10 f   libvorbisfile_static:vorbisfile.obj
 0001:001f9b10       ov_time_total              00000001401fab10 f   libvorbisfile_static:vorbisfile.obj
 0001:001f9baf       __WSAFDIsSet               00000001401fabaf f   ws2_32:WS2_32.dll
 0001:001f9bb8       ?DloadAcquireSectionWriteAccess@@YAXXZ 00000001401fabb8 f i Delayimp:delayhlp.obj
 0001:001f9c64       ?DloadGetSRWLockFunctionPointers@@YAEXZ 00000001401fac64 f i Delayimp:delayhlp.obj
 0001:001f9d04       ?DloadMakePermanentImageCommit@@YAXPEAX_K@Z 00000001401fad04 f i Delayimp:delayhlp.obj
 0001:001f9d9c       ?DloadObtainSection@@YAPEAXPEAK0@Z 00000001401fad9c f i Delayimp:delayhlp.obj
 0001:001f9e38       ?DloadProtectSection@@YAXKPEAK@Z 00000001401fae38 f i Delayimp:delayhlp.obj
 0001:001f9ec8       ?DloadReleaseSectionWriteAccess@@YAXXZ 00000001401faec8 f i Delayimp:delayhlp.obj
 0001:001f9f5c       __delayLoadHelper2         00000001401faf5c f   Delayimp:delayhlp.obj
 0001:001fa234       ??0?$basic_ostream@DU?$char_traits@D@std@@@std@@QEAA@PEAV?$basic_streambuf@DU?$char_traits@D@std@@@1@_N@Z 00000001401fb234 f i libcpmt:cout.obj
 0001:001fa2d4       ??_E?$basic_ostream@DU?$char_traits@D@std@@@std@@$4PPPPPPPM@A@EAAPEAXI@Z 00000001401fb2d4 f i libcpmt:cout.obj
 0001:001fa2e0       ??_E?$basic_ostream@DU?$char_traits@D@std@@@std@@UEAAPEAXI@Z 00000001401fb2e0 f i libcpmt:cout.obj
 0001:001fa2e0       ??_G?$basic_ostream@DU?$char_traits@D@std@@@std@@UEAAPEAXI@Z 00000001401fb2e0 f i libcpmt:cout.obj
 0001:001fa344       ?uncaught_exception@std@@YA_NXZ 00000001401fb344 f   libcpmt:uncaught_exception.obj
 0001:001fa34c       ??0bad_alloc@std@@QEAA@XZ  00000001401fb34c f i libcpmt:xthrow.obj
 0001:001fa36c       ??0length_error@std@@QEAA@AEBV01@@Z 00000001401fb36c f i libcpmt:xthrow.obj
 0001:001fa3a8       ??0length_error@std@@QEAA@PEBD@Z 00000001401fb3a8 f i libcpmt:xthrow.obj
 0001:001fa3f0       ??0logic_error@std@@QEAA@AEBV01@@Z 00000001401fb3f0 f i libcpmt:xthrow.obj
 0001:001fa42c       ??0out_of_range@std@@QEAA@AEBV01@@Z 00000001401fb42c f i libcpmt:xthrow.obj
 0001:001fa468       ??0out_of_range@std@@QEAA@PEBD@Z 00000001401fb468 f i libcpmt:xthrow.obj
 0001:001fa4b0       ??0runtime_error@std@@QEAA@PEBD@Z 00000001401fb4b0 f i libcpmt:xthrow.obj
 0001:001fa4f8       ??1length_error@std@@UEAA@XZ 00000001401fb4f8 f i libcpmt:xthrow.obj
 0001:001fa4f8       ??1out_of_range@std@@UEAA@XZ 00000001401fb4f8 f i libcpmt:xthrow.obj
 0001:001fa50c       ??_Elength_error@std@@UEAAPEAXI@Z 00000001401fb50c f i libcpmt:xthrow.obj
 0001:001fa50c       ??_Elogic_error@std@@UEAAPEAXI@Z 00000001401fb50c f i libcpmt:xthrow.obj
 0001:001fa50c       ??_Eout_of_range@std@@UEAAPEAXI@Z 00000001401fb50c f i libcpmt:xthrow.obj
 0001:001fa50c       ??_Glength_error@std@@UEAAPEAXI@Z 00000001401fb50c f i libcpmt:xthrow.obj
 0001:001fa50c       ??_Glogic_error@std@@UEAAPEAXI@Z 00000001401fb50c f i libcpmt:xthrow.obj
 0001:001fa50c       ??_Gout_of_range@std@@UEAAPEAXI@Z 00000001401fb50c f i libcpmt:xthrow.obj
 0001:001fa550       ?_Xlength_error@std@@YAXPEBD@Z 00000001401fb550 f   libcpmt:xthrow.obj
 0001:001fa574       ?_Xout_of_range@std@@YAXPEBD@Z 00000001401fb574 f   libcpmt:xthrow.obj
 0001:001fa598       ?_Xruntime_error@std@@YAXPEBD@Z 00000001401fb598 f   libcpmt:xthrow.obj
 0001:001fa5bc       ?_Syserror_map@std@@YAPEBDH@Z 00000001401fb5bc f   libcpmt:syserror.obj
 0001:001fa5e4       ??0_Init_locks@std@@QEAA@XZ 00000001401fb5e4 f   libcpmt:xlock.obj
 0001:001fa628       ??0_Lockit@std@@QEAA@H@Z   00000001401fb628 f   libcpmt:xlock.obj
 0001:001fa664       ??1_Init_locks@std@@QEAA@XZ 00000001401fb664 f   libcpmt:xlock.obj
 0001:001fa6a0       ??1_Lockit@std@@QEAA@XZ    00000001401fb6a0 f   libcpmt:xlock.obj
 0001:001fa6d4       ??0_Locimp@locale@std@@AEAA@_N@Z 00000001401fb6d4 f i libcpmt:locale0.obj
 0001:001fa75c       ??4?$_Yarn@D@std@@QEAAAEAV01@PEBD@Z 00000001401fb75c f i libcpmt:locale0.obj
 0001:001fa7d4       ??_E_Locimp@locale@std@@MEAAPEAXI@Z 00000001401fb7d4 f i libcpmt:locale0.obj
 0001:001fa7d4       ??_G_Locimp@locale@std@@MEAAPEAXI@Z 00000001401fb7d4 f i libcpmt:locale0.obj
 0001:001fa830       ?_Facet_Register@std@@YAXPEAV_Facet_base@1@@Z 00000001401fb830 f   libcpmt:locale0.obj
 0001:001fa868       ?_Getgloballocale@locale@std@@CAPEAV_Locimp@12@XZ 00000001401fb868 f   libcpmt:locale0.obj
 0001:001fa870       ?_Init@locale@std@@CAPEAV_Locimp@12@_N@Z 00000001401fb870 f   libcpmt:locale0.obj
 0001:001fa964       ?_Locimp_dtor@_Locimp@locale@std@@CAXPEAV123@@Z 00000001401fb964 f   libcpmt:locale0.obj
 0001:001fa9e0       ?_Locinfo_ctor@_Locinfo@std@@SAXPEAV12@PEBD@Z 00000001401fb9e0 f   libcpmt:locale0.obj
 0001:001faa4c       ?_Locinfo_dtor@_Locinfo@std@@SAXPEAV12@@Z 00000001401fba4c f   libcpmt:locale0.obj
 0001:001faa68       ?_New_Locimp@_Locimp@locale@std@@CAPEAV123@_N@Z 00000001401fba68 f   libcpmt:locale0.obj
 0001:001faa98       ?_Setgloballocale@locale@std@@CAXPEAX@Z 00000001401fba98 f   libcpmt:locale0.obj
 0001:001faacc       _Deletegloballocale        00000001401fbacc f   libcpmt:locale0.obj
 0001:001fab3c       ?_Addstd@ios_base@std@@SAXPEAV12@@Z 00000001401fbb3c f   libcpmt:ios.obj
 0001:001fabb4       ?_Ios_base_dtor@ios_base@std@@CAXPEAV12@@Z 00000001401fbbb4 f   libcpmt:ios.obj
 0001:001fac2c       ?_Tidy@ios_base@std@@AEAAXXZ 00000001401fbc2c f i libcpmt:ios.obj
 0001:001facac       ?_Fiopen@std@@YAPEAU_iobuf@@PEBDHH@Z 00000001401fbcac f   libcpmt:fiopen.obj
 0001:001fad64       _Getctype                  00000001401fbd64 f   libcpmt:_tolower.obj
 0001:001fae24       _Tolower                   00000001401fbe24 f   libcpmt:_tolower.obj
 0001:001faf58       _Toupper                   00000001401fbf58 f   libcpmt:_toupper.obj
 0001:001fb09c       ?_Atexit@@YAXP6AXXZ@Z      00000001401fc09c f   libcpmt:iosptrs.obj
 0001:001fb0d8       _Mtxdst                    00000001401fc0d8 f   libcpmt:xmtx.obj
 0001:001fb0e0       _Mtxinit                   00000001401fc0e0 f   libcpmt:xmtx.obj
 0001:001fb0f0       _Mtxlock                   00000001401fc0f0 f   libcpmt:xmtx.obj
 0001:001fb0f8       _Mtxunlock                 00000001401fc0f8 f   libcpmt:xmtx.obj
 0001:001fb100       __crtLCMapStringA          00000001401fc100 f   libcpmt:StlLCMapStringA.obj
 0001:001fb410       __security_check_cookie    00000001401fc410 f   MSVCRT:amdsecgs.obj
 0001:001fb430       ??3@YAXPEAX_K@Z            00000001401fc430 f   MSVCRT:delete_scalar_size.obj
 0001:001fb430       ??_V@YAXPEAX@Z             00000001401fc430 f   MSVCRT:delete_array.obj
 0001:001fb438       ??_M@YAXPEAX_K1P6AX0@Z@Z   00000001401fc438 f   MSVCRT:ehvecdtr.obj
 0001:001fb4a4       ?__ArrayUnwind@@YAXPEAX_K1P6AX0@Z@Z 00000001401fc4a4 f   MSVCRT:ehvecdtr.obj
 0001:001fb508       ??_U@YAPEAX_K@Z            00000001401fc508 f   MSVCRT:new_array.obj
 0001:001fb510       ??2@YAPEAX_K@Z             00000001401fc510 f   MSVCRT:new_scalar.obj
 0001:001fb54c       ??_L@YAXPEAX_K1P6AX0@Z2@Z  00000001401fc54c f   MSVCRT:ehvecctr.obj
 0001:001fb5bc       ??_Etype_info@@UEAAPEAXI@Z 00000001401fc5bc f i MSVCRT:std_type_info_static.obj
 0001:001fb5bc       ??_Gtype_info@@UEAAPEAXI@Z 00000001401fc5bc f i MSVCRT:std_type_info_static.obj
 0001:001fb5e8       __raise_securityfailure    00000001401fc5e8 f   MSVCRT:gs_report.obj
 0001:001fb61c       __report_gsfailure         00000001401fc61c f   MSVCRT:gs_report.obj
 0001:001fb6f0       __report_rangecheckfailure 00000001401fc6f0 f   MSVCRT:gs_report.obj
 0001:001fb704       __report_securityfailure   00000001401fc704 f   MSVCRT:gs_report.obj
 0001:001fb884       _Init_thread_footer        00000001401fc884 f   MSVCRT:thread_safe_statics.obj
 0001:001fb8f0       _Init_thread_header        00000001401fc8f0 f   MSVCRT:thread_safe_statics.obj
 0001:001fb968       __scrt_acquire_startup_lock 00000001401fc968 f   MSVCRT:utility.obj
 0001:001fb9a4       __scrt_initialize_crt      00000001401fc9a4 f   MSVCRT:utility.obj
 0001:001fb9e0       __scrt_initialize_onexit_tables 00000001401fc9e0 f   MSVCRT:utility.obj
 0001:001fba6c       __scrt_is_nonwritable_in_current_image 00000001401fca6c f   MSVCRT:utility.obj
 0001:001fbb04       __scrt_release_startup_lock 00000001401fcb04 f   MSVCRT:utility.obj
 0001:001fbb28       __scrt_uninitialize_crt    00000001401fcb28 f   MSVCRT:utility.obj
 0001:001fbb54       _onexit                    00000001401fcb54 f   MSVCRT:utility.obj
 0001:001fbb90       atexit                     00000001401fcb90 f   MSVCRT:utility.obj
 0001:001fbe00       WinMainCRTStartup          00000001401fce00 f   MSVCRT:exe_winmain.obj
 0001:001fbe14       __GSHandlerCheck           00000001401fce14 f   MSVCRT:gshandler.obj
 0001:001fbe34       __GSHandlerCheckCommon     00000001401fce34 f   MSVCRT:gshandler.obj
 0001:001fbea0       __chkstk                   00000001401fcea0 f   MSVCRT:chkstk.obj
 0001:001fbea0       _alloca_probe              00000001401fcea0 f   MSVCRT:chkstk.obj
 0001:001fbef0       __isa_available_init       00000001401fcef0 f   MSVCRT:cpu_disp.obj
 0001:001fc09c       ??3@YAXPEAX@Z              00000001401fd09c f   MSVCRT:delete_scalar.obj
 0001:001fc0a4       __GSHandlerCheck_EH4       00000001401fd0a4 f   MSVCRT:gshandlereh4.obj
 0001:001fc124       ?__scrt_throw_std_bad_alloc@@YAXXZ 00000001401fd124 f   MSVCRT:throw_bad_alloc.obj
 0001:001fc144       __scrt_is_ucrt_dll_in_use  00000001401fd144 f   MSVCRT:ucrt_detection.obj
 0001:001fc150       __crt_debugger_hook        00000001401fd150 f   MSVCRT:utility_desktop.obj
 0001:001fc158       __scrt_fastfail            00000001401fd158 f   MSVCRT:utility_desktop.obj
 0001:001fc2a0       __scrt_get_show_window_mode 00000001401fd2a0 f   MSVCRT:utility_desktop.obj
 0001:001fc2dc       __scrt_initialize_mta      00000001401fd2dc f   MSVCRT:utility_desktop.obj
 0001:001fc2e4       __scrt_is_managed_app      00000001401fd2e4 f   MSVCRT:utility_desktop.obj
 0001:001fc338       __scrt_set_unhandled_exception_filter 00000001401fd338 f   MSVCRT:utility_desktop.obj
 0001:001fc348       __scrt_unhandled_exception_filter 00000001401fd348 f   MSVCRT:utility_desktop.obj
 0001:001fc3a4       __security_init_cookie     00000001401fd3a4 f   MSVCRT:gs_support.obj
 0001:001fc450       _get_startup_file_mode     00000001401fd450 f   MSVCRT:file_mode.obj
 0001:001fc458       ?__scrt_initialize_type_info@@YAXXZ 00000001401fd458 f   MSVCRT:tncleanup.obj
 0001:001fc468       __local_stdio_scanf_options 00000001401fd468 f i MSVCRT:default_local_stdio_options.obj
 0001:001fc470       __scrt_initialize_default_local_stdio_options 00000001401fd470 f   MSVCRT:default_local_stdio_options.obj
 0001:001fc48c       __scrt_is_user_matherr_present 00000001401fd48c f   MSVCRT:matherr_detection.obj
 0001:001fc498       __scrt_get_dyn_tls_init_callback 00000001401fd498 f   MSVCRT:dyn_tls_init.obj
 0001:001fc4a0       __scrt_get_dyn_tls_dtor_callback 00000001401fd4a0 f   MSVCRT:dyn_tls_dtor.obj
 0001:001fc4a8       _RTC_Initialize            00000001401fd4a8 f   MSVCRT:initsect.obj
 0001:001fc4e4       _RTC_Terminate             00000001401fd4e4 f   MSVCRT:initsect.obj
 0001:001fc520       SetLastError               00000001401fd520 f   kernel32:KERNEL32.dll
 0001:001fc526       GetModuleHandleW           00000001401fd526 f   kernel32:KERNEL32.dll
 0001:001fc52c       __CxxFrameHandler4         00000001401fd52c f   vcruntime:VCRUNTIME140_1.dll
 0001:001fc532       __std_terminate            00000001401fd532 f   vcruntime:VCRUNTIME140.dll
 0001:001fc538       __std_exception_destroy    00000001401fd538 f   vcruntime:VCRUNTIME140.dll
 0001:001fc53e       __std_exception_copy       00000001401fd53e f   vcruntime:VCRUNTIME140.dll
 0001:001fc544       _purecall                  00000001401fd544 f   vcruntime:VCRUNTIME140.dll
 0001:001fc54a       strrchr                    00000001401fd54a f   vcruntime:VCRUNTIME140.dll
 0001:001fc550       longjmp                    00000001401fd550 f   vcruntime:VCRUNTIME140.dll
 0001:001fc556       memcpy                     00000001401fd556 f   vcruntime:VCRUNTIME140.dll
 0001:001fc55c       memmove                    00000001401fd55c f   vcruntime:VCRUNTIME140.dll
 0001:001fc562       memset                     00000001401fd562 f   vcruntime:VCRUNTIME140.dll
 0001:001fc568       strstr                     00000001401fd568 f   vcruntime:VCRUNTIME140.dll
 0001:001fc56e       memchr                     00000001401fd56e f   vcruntime:VCRUNTIME140.dll
 0001:001fc574       memcmp                     00000001401fd574 f   vcruntime:VCRUNTIME140.dll
 0001:001fc57a       __C_specific_handler       00000001401fd57a f   vcruntime:VCRUNTIME140.dll
 0001:001fc580       _CxxThrowException         00000001401fd580 f   vcruntime:VCRUNTIME140.dll
 0001:001fc586       __uncaught_exception       00000001401fd586 f   vcruntime:VCRUNTIME140.dll
 0001:001fc58c       __current_exception        00000001401fd58c f   vcruntime:VCRUNTIME140.dll
 0001:001fc592       __current_exception_context 00000001401fd592 f   vcruntime:VCRUNTIME140.dll
 0001:001fc598       __intrinsic_setjmp         00000001401fd598 f   vcruntime:VCRUNTIME140.dll
 0001:001fc598       _setjmp                    00000001401fd598 f   vcruntime:VCRUNTIME140.dll
 0001:001fc59e       ftell                      00000001401fd59e f   ucrt:api-ms-win-crt-stdio-l1-1-0.dll
 0001:001fc5a4       fclose                     00000001401fd5a4 f   ucrt:api-ms-win-crt-stdio-l1-1-0.dll
 0001:001fc5aa       fread                      00000001401fd5aa f   ucrt:api-ms-win-crt-stdio-l1-1-0.dll
 0001:001fc5b0       strncmp                    00000001401fd5b0 f   ucrt:api-ms-win-crt-string-l1-1-0.dll
 0001:001fc5b6       calloc                     00000001401fd5b6 f   ucrt:api-ms-win-crt-heap-l1-1-0.dll
 0001:001fc5bc       fopen                      00000001401fd5bc f   ucrt:api-ms-win-crt-stdio-l1-1-0.dll
 0001:001fc5c2       fseek                      00000001401fd5c2 f   ucrt:api-ms-win-crt-stdio-l1-1-0.dll
 0001:001fc5c8       malloc                     00000001401fd5c8 f   ucrt:api-ms-win-crt-heap-l1-1-0.dll
 0001:001fc5ce       qsort                      00000001401fd5ce f   ucrt:api-ms-win-crt-utility-l1-1-0.dll
 0001:001fc5d4       exit                       00000001401fd5d4 f   ucrt:api-ms-win-crt-runtime-l1-1-0.dll
 0001:001fc5da       free                       00000001401fd5da f   ucrt:api-ms-win-crt-heap-l1-1-0.dll
 0001:001fc5e0       __acrt_iob_func            00000001401fd5e0 f   ucrt:api-ms-win-crt-stdio-l1-1-0.dll
 0001:001fc5e6       strncpy                    00000001401fd5e6 f   ucrt:api-ms-win-crt-string-l1-1-0.dll
 0001:001fc5ec       strcmp                     00000001401fd5ec f   ucrt:api-ms-win-crt-string-l1-1-0.dll
 0001:001fc5f2       realloc                    00000001401fd5f2 f   ucrt:api-ms-win-crt-heap-l1-1-0.dll
 0001:001fc5f8       atol                       00000001401fd5f8 f   ucrt:api-ms-win-crt-convert-l1-1-0.dll
 0001:001fc5fe       strtol                     00000001401fd5fe f   ucrt:api-ms-win-crt-convert-l1-1-0.dll
 0001:001fc604       strlen                     00000001401fd604 f   ucrt:api-ms-win-crt-string-l1-1-0.dll
 0001:001fc60a       abort                      00000001401fd60a f   ucrt:api-ms-win-crt-runtime-l1-1-0.dll
 0001:001fc610       floor                      00000001401fd610 f   ucrt:api-ms-win-crt-math-l1-1-0.dll
 0001:001fc616       _lock_locales              00000001401fd616 f   ucrt:api-ms-win-crt-locale-l1-1-0.dll
 0001:001fc61c       _unlock_locales            00000001401fd61c f   ucrt:api-ms-win-crt-locale-l1-1-0.dll
 0001:001fc622       setlocale                  00000001401fd622 f   ucrt:api-ms-win-crt-locale-l1-1-0.dll
 0001:001fc628       _fsopen                    00000001401fd628 f   ucrt:api-ms-win-crt-stdio-l1-1-0.dll
 0001:001fc62e       __pctype_func              00000001401fd62e f   ucrt:api-ms-win-crt-locale-l1-1-0.dll
 0001:001fc634       isupper                    00000001401fd634 f   ucrt:api-ms-win-crt-string-l1-1-0.dll
 0001:001fc63a       ___lc_locale_name_func     00000001401fd63a f   ucrt:api-ms-win-crt-locale-l1-1-0.dll
 0001:001fc640       ___lc_codepage_func        00000001401fd640 f   ucrt:api-ms-win-crt-locale-l1-1-0.dll
 0001:001fc646       _wcsdup                    00000001401fd646 f   ucrt:api-ms-win-crt-string-l1-1-0.dll
 0001:001fc64c       islower                    00000001401fd64c f   ucrt:api-ms-win-crt-string-l1-1-0.dll
 0001:001fc652       __strncnt                  00000001401fd652 f   ucrt:api-ms-win-crt-string-l1-1-0.dll
 0001:001fc658       terminate                  00000001401fd658 f   ucrt:api-ms-win-crt-runtime-l1-1-0.dll
 0001:001fc65e       _callnewh                  00000001401fd65e f   ucrt:api-ms-win-crt-heap-l1-1-0.dll
 0001:001fc664       _configure_narrow_argv     00000001401fd664 f   ucrt:api-ms-win-crt-runtime-l1-1-0.dll
 0001:001fc66a       _initialize_narrow_environment 00000001401fd66a f   ucrt:api-ms-win-crt-runtime-l1-1-0.dll
 0001:001fc670       _initialize_onexit_table   00000001401fd670 f   ucrt:api-ms-win-crt-runtime-l1-1-0.dll
 0001:001fc676       _register_onexit_function  00000001401fd676 f   ucrt:api-ms-win-crt-runtime-l1-1-0.dll
 0001:001fc67c       _crt_atexit                00000001401fd67c f   ucrt:api-ms-win-crt-runtime-l1-1-0.dll
 0001:001fc682       _cexit                     00000001401fd682 f   ucrt:api-ms-win-crt-runtime-l1-1-0.dll
 0001:001fc688       _seh_filter_exe            00000001401fd688 f   ucrt:api-ms-win-crt-runtime-l1-1-0.dll
 0001:001fc68e       _set_app_type              00000001401fd68e f   ucrt:api-ms-win-crt-runtime-l1-1-0.dll
 0001:001fc694       __setusermatherr           00000001401fd694 f   ucrt:api-ms-win-crt-math-l1-1-0.dll
 0001:001fc69a       _get_narrow_winmain_command_line 00000001401fd69a f   ucrt:api-ms-win-crt-runtime-l1-1-0.dll
 0001:001fc6a0       _initterm                  00000001401fd6a0 f   ucrt:api-ms-win-crt-runtime-l1-1-0.dll
 0001:001fc6a6       _initterm_e                00000001401fd6a6 f   ucrt:api-ms-win-crt-runtime-l1-1-0.dll
 0001:001fc6ac       _exit                      00000001401fd6ac f   ucrt:api-ms-win-crt-runtime-l1-1-0.dll
 0001:001fc6b2       _set_fmode                 00000001401fd6b2 f   ucrt:api-ms-win-crt-stdio-l1-1-0.dll
 0001:001fc6b8       _c_exit                    00000001401fd6b8 f   ucrt:api-ms-win-crt-runtime-l1-1-0.dll
 0001:001fc6be       _register_thread_local_exe_atexit_callback 00000001401fd6be f   ucrt:api-ms-win-crt-runtime-l1-1-0.dll
 0001:001fc6c4       _configthreadlocale        00000001401fd6c4 f   ucrt:api-ms-win-crt-locale-l1-1-0.dll
 0001:001fc6ca       _set_new_mode              00000001401fd6ca f   ucrt:api-ms-win-crt-heap-l1-1-0.dll
 0001:001fc6d0       __p__commode               00000001401fd6d0 f   ucrt:api-ms-win-crt-stdio-l1-1-0.dll
 0001:001fc6e0       WinMain                    00000001401fd6e0 f   SDL2Main:SDL_windows_main.obj
 0001:001fc941       SDL_SetMainReady           00000001401fd941 f   SDL2:SDL2.dll
 0001:001fc947       __imp_load_SDL_SetMainReady 00000001401fd947 f   SDL2:SDL2.dll
 0001:001fc960       vorbis_synthesis_headerin  00000001401fd960 f   libvorbis_static:info.obj
 0001:001fcbb0       vorbis_synthesis_idheader  00000001401fdbb0 f   libvorbis_static:info.obj
 0001:001fd290       vorbis_info_clear          00000001401fe290 f   libvorbis_static:info.obj
 0001:001fd540       vorbis_info_init           00000001401fe540 f   libvorbis_static:info.obj
 0001:001fd580       vorbis_info_blocksize      00000001401fe580 f   libvorbis_static:info.obj
 0001:001fd5a0       vorbis_comment_clear       00000001401fe5a0 f   libvorbis_static:info.obj
 0001:001fd640       vorbis_comment_init        00000001401fe640 f   libvorbis_static:info.obj
 0001:001fd790       vorbis_window              00000001401fe790 f   libvorbis_static:block.obj
 0001:001fd7d0       vorbis_synthesis_lapout    00000001401fe7d0 f   libvorbis_static:block.obj
 0001:001fdbc0       vorbis_synthesis_read      00000001401febc0 f   libvorbis_static:block.obj
 0001:001fdbf0       vorbis_synthesis_pcmout    00000001401febf0 f   libvorbis_static:block.obj
 0001:001fdc80       vorbis_synthesis_blockin   00000001401fec80 f   libvorbis_static:block.obj
 0001:001fe720       vorbis_synthesis_init      00000001401ff720 f   libvorbis_static:block.obj
 0001:001fe7b0       vorbis_synthesis_restart   00000001401ff7b0 f   libvorbis_static:block.obj
 0001:001fe830       vorbis_dsp_clear           00000001401ff830 f   libvorbis_static:block.obj
 0001:001ff150       vorbis_block_clear         0000000140200150 f   libvorbis_static:block.obj
 0001:001ff230       _vorbis_block_ripcord      0000000140200230 f   libvorbis_static:block.obj
 0001:001ff2d0       _vorbis_block_alloc        00000001402002d0 f   libvorbis_static:block.obj
 0001:001ff360       vorbis_block_init          0000000140200360 f   libvorbis_static:block.obj
 0001:001ff440       vorbis_synthesis_halfrate_p 0000000140200440 f   libvorbis_static:synthesis.obj
 0001:001ff460       vorbis_synthesis_halfrate  0000000140200460 f   libvorbis_static:synthesis.obj
 0001:001ff490       vorbis_packet_blocksize    0000000140200490 f   libvorbis_static:synthesis.obj
 0001:001ff560       vorbis_synthesis_trackonly 0000000140200560 f   libvorbis_static:synthesis.obj
 0001:001ff670       vorbis_synthesis           0000000140200670 f   libvorbis_static:synthesis.obj
 0001:001ff8d0       _book_unquantize           00000001402008d0 f   libvorbis_static:sharedbook.obj
 0001:001ffbd0       _book_maptype1_quantvals   0000000140200bd0 f   libvorbis_static:sharedbook.obj
 0001:001ffc60       _make_words                0000000140200c60 f   libvorbis_static:sharedbook.obj
 0001:001ffe70       _float32_unpack            0000000140200e70 f   libvorbis_static:sharedbook.obj
 0001:001ffec0       vorbis_book_init_encode    0000000140200ec0 f   libvorbis_static:sharedbook.obj
 0001:001fffe0       vorbis_book_init_decode    0000000140200fe0 f   libvorbis_static:sharedbook.obj
 0001:00200b00       ov_ilog                    0000000140201b00 f   libvorbis_static:sharedbook.obj
 0001:00200b20       vorbis_staticbook_destroy  0000000140201b20 f   libvorbis_static:sharedbook.obj
 0001:00200b80       vorbis_book_clear          0000000140201b80 f   libvorbis_static:sharedbook.obj
 0001:00200c00       vorbis_book_decodevv_add   0000000140201c00 f   libvorbis_static:codebook.obj
 0001:00200e60       vorbis_book_decodev_set    0000000140201e60 f   libvorbis_static:codebook.obj
 0001:00201110       vorbis_book_decodev_add    0000000140202110 f   libvorbis_static:codebook.obj
 0001:002015c0       vorbis_book_decodevs_add   00000001402025c0 f   libvorbis_static:codebook.obj
 0001:00201920       vorbis_book_decode         0000000140202920 f   libvorbis_static:codebook.obj
 0001:00201b20       vorbis_book_encode         0000000140202b20 f   libvorbis_static:codebook.obj
 0001:00201b80       vorbis_staticbook_unpack   0000000140202b80 f   libvorbis_static:codebook.obj
 0001:00201f50       _vp_couple_quantize_normalize 0000000140202f50 f   libvorbis_static:psy.obj
 0001:002034a0       _vp_offset_and_mix         00000001402044a0 f   libvorbis_static:psy.obj
 0001:00203840       _vp_tonemask               0000000140204840 f   libvorbis_static:psy.obj
 0001:00203ae0       _vp_noisemask              0000000140204ae0 f   libvorbis_static:psy.obj
 0001:00206940       _vp_psy_clear              0000000140207940 f   libvorbis_static:psy.obj
 0001:00206a50       _vp_global_free            0000000140207a50 f   libvorbis_static:psy.obj
 0001:00206a80       _vp_psy_init               0000000140207a80 f   libvorbis_static:psy.obj
 0001:00207450       _vi_psy_free               0000000140208450 f   libvorbis_static:psy.obj
 0001:00207480       vorbis_bitrate_managed     0000000140208480 f   libvorbis_static:bitrate.obj
 0001:002074b0       vorbis_bitrate_clear       00000001402084b0 f   libvorbis_static:bitrate.obj
 0001:002074d0       _ve_envelope_clear         00000001402084d0 f   libvorbis_static:envelope.obj
 0001:00207580       mdct_backward              0000000140208580 f   libvorbis_static:mdct.obj
 0001:00208690       mdct_forward               0000000140209690 f   libvorbis_static:mdct.obj
 0001:00208a90       mdct_clear                 0000000140209a90 f   libvorbis_static:mdct.obj
 0001:00208ae0       mdct_init                  0000000140209ae0 f   libvorbis_static:mdct.obj
 0001:00208df0       drft_forward               0000000140209df0 f   libvorbis_static:smallft.obj
 0001:0020ba20       drft_clear                 000000014020ca20 f   libvorbis_static:smallft.obj
 0001:0020ba70       drft_init                  000000014020ca70 f   libvorbis_static:smallft.obj
 0001:0020bad0       _vorbis_apply_window       000000014020cad0 f   libvorbis_static:window.obj
 0001:0020bda0       _vorbis_window_get         000000014020cda0 f   libvorbis_static:window.obj
 0001:0020e250       res2_inverse               000000014020f250 f   libvorbis_static:res0.obj
 0001:0020e480       res2_forward               000000014020f480 f   libvorbis_static:res0.obj
 0001:0020e590       res2_class                 000000014020f590 f   libvorbis_static:res0.obj
 0001:0020e810       res1_inverse               000000014020f810 f   libvorbis_static:res0.obj
 0001:0020e880       res1_class                 000000014020f880 f   libvorbis_static:res0.obj
 0001:0020ec20       res1_forward               000000014020fc20 f   libvorbis_static:res0.obj
 0001:0020ecb0       res0_inverse               000000014020fcb0 f   libvorbis_static:res0.obj
 0001:0020fdc0       res0_look                  0000000140210dc0 f   libvorbis_static:res0.obj
 0001:0020ffd0       res0_unpack                0000000140210fd0 f   libvorbis_static:res0.obj
 0001:002101c0       res0_pack                  00000001402111c0 f   libvorbis_static:res0.obj
 0001:00210340       res0_free_look             0000000140211340 f   libvorbis_static:res0.obj
 0001:00210410       res0_free_info             0000000140211410 f   libvorbis_static:res0.obj
 0001:002122e0       floor1_interpolate_fit     00000001402132e0 f   libvorbis_static:floor1.obj
 0001:00212510       floor1_encode              0000000140213510 f   libvorbis_static:floor1.obj
 0001:00212c50       floor1_fit                 0000000140213c50 f   libvorbis_static:floor1.obj
 0001:002132b0       vorbis_lsp_to_curve        00000001402142b0 f   libvorbis_static:lsp.obj
 0001:00213547       asinf                      0000000140214547 f   ucrt:api-ms-win-crt-math-l1-1-0.dll
 0001:0021354d       atan                       000000014021454d f   ucrt:api-ms-win-crt-math-l1-1-0.dll
 0001:00213553       atan2f                     0000000140214553 f   ucrt:api-ms-win-crt-math-l1-1-0.dll
 0001:00213559       ceil                       0000000140214559 f   ucrt:api-ms-win-crt-math-l1-1-0.dll
 0001:0021355f       ceilf                      000000014021455f f   ucrt:api-ms-win-crt-math-l1-1-0.dll
 0001:00213565       cos                        0000000140214565 f   ucrt:api-ms-win-crt-math-l1-1-0.dll
 0001:0021356b       cosf                       000000014021456b f   ucrt:api-ms-win-crt-math-l1-1-0.dll
 0001:00213571       exp                        0000000140214571 f   ucrt:api-ms-win-crt-math-l1-1-0.dll
 0001:00213577       floorf                     0000000140214577 f   ucrt:api-ms-win-crt-math-l1-1-0.dll
 0001:0021357d       log                        000000014021457d f   ucrt:api-ms-win-crt-math-l1-1-0.dll
 0001:00213583       pow                        0000000140214583 f   ucrt:api-ms-win-crt-math-l1-1-0.dll
 0001:00213589       sin                        0000000140214589 f   ucrt:api-ms-win-crt-math-l1-1-0.dll
 0001:0021358f       sinf                       000000014021458f f   ucrt:api-ms-win-crt-math-l1-1-0.dll
 0001:00213595       sqrt                       0000000140214595 f   ucrt:api-ms-win-crt-math-l1-1-0.dll
 0001:0021359b       sqrtf                      000000014021459b f   ucrt:api-ms-win-crt-math-l1-1-0.dll
 0001:002135a1       tan                        00000001402145a1 f   ucrt:api-ms-win-crt-math-l1-1-0.dll
 0001:002135c0       _guard_dispatch_icall_nop  00000001402145c0 f   MSVCRT:guard_dispatch.obj
 0001:002135e0       _guard_xfg_dispatch_icall_nop 00000001402145e0 f   MSVCRT:guard_xfg_dispatch.obj
 0002:00000000       __imp_GetCurrentProcessId  000000014021a000     kernel32:KERNEL32.dll
 0002:00000008       __imp_GetCurrentThreadId   000000014021a008     kernel32:KERNEL32.dll
 0002:00000010       __imp_VirtualAlloc         000000014021a010     kernel32:KERNEL32.dll
 0002:00000018       __imp_VirtualProtect       000000014021a018     kernel32:KERNEL32.dll
 0002:00000020       __imp_GetModuleHandleW     000000014021a020     kernel32:KERNEL32.dll
 0002:00000028       __imp_SetLastError         000000014021a028     kernel32:KERNEL32.dll
 0002:00000030       __imp_VirtualQuery         000000014021a030     kernel32:KERNEL32.dll
 0002:00000038       __imp_LoadLibraryExA       000000014021a038     kernel32:KERNEL32.dll
 0002:00000040       __imp_GetCurrentProcess    000000014021a040     kernel32:KERNEL32.dll
 0002:00000048       __imp_GetProcAddress       000000014021a048     kernel32:KERNEL32.dll
 0002:00000050       __imp_GetCommandLineW      000000014021a050     kernel32:KERNEL32.dll
 0002:00000058       __imp_SystemTimeToTzSpecificLocalTime 000000014021a058     kernel32:KERNEL32.dll
 0002:00000060       __imp_GetTimeZoneInformation 000000014021a060     kernel32:KERNEL32.dll
 0002:00000068       __imp_QueryPerformanceCounter 000000014021a068     kernel32:KERNEL32.dll
 0002:00000070       __imp_FreeLibrary          000000014021a070     kernel32:KERNEL32.dll
 0002:00000078       __imp_QueryPerformanceFrequency 000000014021a078     kernel32:KERNEL32.dll
 0002:00000080       __imp_LoadLibraryA         000000014021a080     kernel32:KERNEL32.dll
 0002:00000088       __imp_GetLastError         000000014021a088     kernel32:KERNEL32.dll
 0002:00000090       __imp_ReleaseMutex         000000014021a090     kernel32:KERNEL32.dll
 0002:00000098       __imp_CreateMutexA         000000014021a098     kernel32:KERNEL32.dll
 0002:000000a0       __imp_FindNextFileA        000000014021a0a0     kernel32:KERNEL32.dll
 0002:000000a8       __imp_WideCharToMultiByte  000000014021a0a8     kernel32:KERNEL32.dll
 0002:000000b0       __imp_GetModuleHandleA     000000014021a0b0     kernel32:KERNEL32.dll
 0002:000000b8       __imp_CreateEventA         000000014021a0b8     kernel32:KERNEL32.dll
 0002:000000c0       __imp_DeleteCriticalSection 000000014021a0c0     kernel32:KERNEL32.dll
 0002:000000c8       __imp_CreateThread         000000014021a0c8     kernel32:KERNEL32.dll
 0002:000000d0       __imp_CloseHandle          000000014021a0d0     kernel32:KERNEL32.dll
 0002:000000d8       __imp_SetEvent             000000014021a0d8     kernel32:KERNEL32.dll
 0002:000000e0       __imp_ExitThread           000000014021a0e0     kernel32:KERNEL32.dll
 0002:000000e8       __imp_WaitForSingleObject  000000014021a0e8     kernel32:KERNEL32.dll
 0002:000000f0       __imp_InitializeConditionVariable 000000014021a0f0     kernel32:KERNEL32.dll
 0002:000000f8       __imp_InitializeCriticalSection 000000014021a0f8     kernel32:KERNEL32.dll
 0002:00000100       __imp_LeaveCriticalSection 000000014021a100     kernel32:KERNEL32.dll
 0002:00000108       __imp_WakeConditionVariable 000000014021a108     kernel32:KERNEL32.dll
 0002:00000110       __imp_EnterCriticalSection 000000014021a110     kernel32:KERNEL32.dll
 0002:00000118       __imp_SleepConditionVariableCS 000000014021a118     kernel32:KERNEL32.dll
 0002:00000120       __imp_CreateDirectoryA     000000014021a120     kernel32:KERNEL32.dll
 0002:00000128       __imp_FileTimeToSystemTime 000000014021a128     kernel32:KERNEL32.dll
 0002:00000130       __imp_GetFileAttributesA   000000014021a130     kernel32:KERNEL32.dll
 0002:00000138       __imp_FindClose            000000014021a138     kernel32:KERNEL32.dll
 0002:00000140       __imp_FindFirstFileA       000000014021a140     kernel32:KERNEL32.dll
 0002:00000148       __imp_RaiseException       000000014021a148     kernel32:KERNEL32.dll
 0002:00000150       __imp_GetSystemInfo        000000014021a150     kernel32:KERNEL32.dll
 0002:00000158       __imp_InitializeSListHead  000000014021a158     kernel32:KERNEL32.dll
 0002:00000160       __imp_GetSystemTimeAsFileTime 000000014021a160     kernel32:KERNEL32.dll
 0002:00000168       __imp_GetStartupInfoW      000000014021a168     kernel32:KERNEL32.dll
 0002:00000170       __imp_IsDebuggerPresent    000000014021a170     kernel32:KERNEL32.dll
 0002:00000178       __imp_SleepConditionVariableSRW 000000014021a178     kernel32:KERNEL32.dll
 0002:00000180       __imp_WakeAllConditionVariable 000000014021a180     kernel32:KERNEL32.dll
 0002:00000188       __imp_AcquireSRWLockExclusive 000000014021a188     kernel32:KERNEL32.dll
 0002:00000190       __imp_ReleaseSRWLockExclusive 000000014021a190     kernel32:KERNEL32.dll
 0002:00000198       __imp_IsProcessorFeaturePresent 000000014021a198     kernel32:KERNEL32.dll
 0002:000001a0       __imp_TerminateProcess     000000014021a1a0     kernel32:KERNEL32.dll
 0002:000001a8       __imp_SetUnhandledExceptionFilter 000000014021a1a8     kernel32:KERNEL32.dll
 0002:000001b0       __imp_UnhandledExceptionFilter 000000014021a1b0     kernel32:KERNEL32.dll
 0002:000001b8       __imp_RtlVirtualUnwind     000000014021a1b8     kernel32:KERNEL32.dll
 0002:000001c0       __imp_RtlLookupFunctionEntry 000000014021a1c0     kernel32:KERNEL32.dll
 0002:000001c8       __imp_RtlCaptureContext    000000014021a1c8     kernel32:KERNEL32.dll
 0002:000001d0       __imp_LCMapStringEx        000000014021a1d0     kernel32:KERNEL32.dll
 0002:000001d8       __imp_MultiByteToWideChar  000000014021a1d8     kernel32:KERNEL32.dll
 0002:000001e0       __imp_InitializeCriticalSectionEx 000000014021a1e0     kernel32:KERNEL32.dll
 0002:000001e8       __imp_DecodePointer        000000014021a1e8     kernel32:KERNEL32.dll
 0002:000001f0       __imp_EncodePointer        000000014021a1f0     kernel32:KERNEL32.dll
 0002:000001f8       __imp_VirtualFree          000000014021a1f8     kernel32:KERNEL32.dll
 0002:00000200       \177KERNEL32_NULL_THUNK_DATA 000000014021a200     kernel32:KERNEL32.dll
 0002:00000208       __imp_glEnable             000000014021a208     opengl32:OPENGL32.dll
 0002:00000210       __imp_wglGetProcAddress    000000014021a210     opengl32:OPENGL32.dll
 0002:00000218       __imp_glScissor            000000014021a218     opengl32:OPENGL32.dll
 0002:00000220       __imp_glGetString          000000014021a220     opengl32:OPENGL32.dll
 0002:00000228       __imp_glFinish             000000014021a228     opengl32:OPENGL32.dll
 0002:00000230       __imp_glTexSubImage2D      000000014021a230     opengl32:OPENGL32.dll
 0002:00000238       __imp_glPolygonMode        000000014021a238     opengl32:OPENGL32.dll
 0002:00000240       __imp_glTexParameterf      000000014021a240     opengl32:OPENGL32.dll
 0002:00000248       __imp_glDrawElements       000000014021a248     opengl32:OPENGL32.dll
 0002:00000250       __imp_glColorMask          000000014021a250     opengl32:OPENGL32.dll
 0002:00000258       __imp_glDepthFunc          000000014021a258     opengl32:OPENGL32.dll
 0002:00000260       __imp_glPolygonOffset      000000014021a260     opengl32:OPENGL32.dll
 0002:00000268       __imp_glGetError           000000014021a268     opengl32:OPENGL32.dll
 0002:00000270       __imp_glDrawBuffer         000000014021a270     opengl32:OPENGL32.dll
 0002:00000278       __imp_glClearColor         000000014021a278     opengl32:OPENGL32.dll
 0002:00000280       __imp_glReadBuffer         000000014021a280     opengl32:OPENGL32.dll
 0002:00000288       __imp_glClear              000000014021a288     opengl32:OPENGL32.dll
 0002:00000290       __imp_glLineWidth          000000014021a290     opengl32:OPENGL32.dll
 0002:00000298       __imp_glReadPixels         000000014021a298     opengl32:OPENGL32.dll
 0002:000002a0       __imp_glViewport           000000014021a2a0     opengl32:OPENGL32.dll
 0002:000002a8       __imp_glCopyTexImage2D     000000014021a2a8     opengl32:OPENGL32.dll
 0002:000002b0       __imp_glBlendFunc          000000014021a2b0     opengl32:OPENGL32.dll
 0002:000002b8       __imp_glDepthMask          000000014021a2b8     opengl32:OPENGL32.dll
 0002:000002c0       __imp_glDisable            000000014021a2c0     opengl32:OPENGL32.dll
 0002:000002c8       __imp_glPointSize          000000014021a2c8     opengl32:OPENGL32.dll
 0002:000002d0       __imp_glGetIntegerv        000000014021a2d0     opengl32:OPENGL32.dll
 0002:000002d8       __imp_glTexImage2D         000000014021a2d8     opengl32:OPENGL32.dll
 0002:000002e0       __imp_glDeleteTextures     000000014021a2e0     opengl32:OPENGL32.dll
 0002:000002e8       __imp_glTexParameteri      000000014021a2e8     opengl32:OPENGL32.dll
 0002:000002f0       __imp_glTexParameterfv     000000014021a2f0     opengl32:OPENGL32.dll
 0002:000002f8       __imp_glGenTextures        000000014021a2f8     opengl32:OPENGL32.dll
 0002:00000300       __imp_glBindTexture        000000014021a300     opengl32:OPENGL32.dll
 0002:00000308       __imp_glDrawArrays         000000014021a308     opengl32:OPENGL32.dll
 0002:00000310       __imp_glCullFace           000000014021a310     opengl32:OPENGL32.dll
 0002:00000318       \177OPENGL32_NULL_THUNK_DATA 000000014021a318     opengl32:OPENGL32.dll
 0002:00000320       __imp_SetCursorPos         000000014021a320     user32:USER32.dll
 0002:00000328       __imp_GetCursorPos         000000014021a328     user32:USER32.dll
 0002:00000330       __imp_MessageBoxA          000000014021a330     user32:USER32.dll
 0002:00000338       \177USER32_NULL_THUNK_DATA 000000014021a338     user32:USER32.dll
 0002:00000340       __imp___current_exception_context 000000014021a340     vcruntime:VCRUNTIME140.dll
 0002:00000348       __imp___intrinsic_setjmp   000000014021a348     vcruntime:VCRUNTIME140.dll
 0002:00000350       __imp___current_exception  000000014021a350     vcruntime:VCRUNTIME140.dll
 0002:00000358       __imp___uncaught_exception 000000014021a358     vcruntime:VCRUNTIME140.dll
 0002:00000360       __imp__CxxThrowException   000000014021a360     vcruntime:VCRUNTIME140.dll
 0002:00000368       __imp___C_specific_handler 000000014021a368     vcruntime:VCRUNTIME140.dll
 0002:00000370       __imp_memcmp               000000014021a370     vcruntime:VCRUNTIME140.dll
 0002:00000378       __imp_memchr               000000014021a378     vcruntime:VCRUNTIME140.dll
 0002:00000380       __imp_strstr               000000014021a380     vcruntime:VCRUNTIME140.dll
 0002:00000388       __imp_memset               000000014021a388     vcruntime:VCRUNTIME140.dll
 0002:00000390       __imp_memmove              000000014021a390     vcruntime:VCRUNTIME140.dll
 0002:00000398       __imp_memcpy               000000014021a398     vcruntime:VCRUNTIME140.dll
 0002:000003a0       __imp_longjmp              000000014021a3a0     vcruntime:VCRUNTIME140.dll
 0002:000003a8       __imp_strrchr              000000014021a3a8     vcruntime:VCRUNTIME140.dll
 0002:000003b0       __imp__purecall            000000014021a3b0     vcruntime:VCRUNTIME140.dll
 0002:000003b8       __imp___std_exception_copy 000000014021a3b8     vcruntime:VCRUNTIME140.dll
 0002:000003c0       __imp___std_exception_destroy 000000014021a3c0     vcruntime:VCRUNTIME140.dll
 0002:000003c8       __imp___std_terminate      000000014021a3c8     vcruntime:VCRUNTIME140.dll
 0002:000003d0       \177VCRUNTIME140_NULL_THUNK_DATA 000000014021a3d0     vcruntime:VCRUNTIME140.dll
 0002:000003d8       __imp___CxxFrameHandler4   000000014021a3d8     vcruntime:VCRUNTIME140_1.dll
 0002:000003e0       \177VCRUNTIME140_1_NULL_THUNK_DATA 000000014021a3e0     vcruntime:VCRUNTIME140_1.dll
 0002:000003e8       __imp_timeBeginPeriod      000000014021a3e8     winmm:WINMM.dll
 0002:000003f0       __imp_timeGetTime          000000014021a3f0     winmm:WINMM.dll
 0002:000003f8       __imp_timeEndPeriod        000000014021a3f8     winmm:WINMM.dll
 0002:00000400       \177WINMM_NULL_THUNK_DATA  000000014021a400     winmm:WINMM.dll
 0002:00000408       __imp_gethostbyaddr        000000014021a408     ws2_32:WS2_32.dll
 0002:00000410       __imp_WSAStartup           000000014021a410     ws2_32:WS2_32.dll
 0002:00000418       __imp_gethostbyname        000000014021a418     ws2_32:WS2_32.dll
 0002:00000420       __imp_htons                000000014021a420     ws2_32:WS2_32.dll
 0002:00000428       __imp_getsockname          000000014021a428     ws2_32:WS2_32.dll
 0002:00000430       __imp_inet_ntoa            000000014021a430     ws2_32:WS2_32.dll
 0002:00000438       __imp_bind                 000000014021a438     ws2_32:WS2_32.dll
 0002:00000440       __imp_listen               000000014021a440     ws2_32:WS2_32.dll
 0002:00000448       __imp_socket               000000014021a448     ws2_32:WS2_32.dll
 0002:00000450       __imp_setsockopt           000000014021a450     ws2_32:WS2_32.dll
 0002:00000458       __imp_ioctlsocket          000000014021a458     ws2_32:WS2_32.dll
 0002:00000460       __imp_getsockopt           000000014021a460     ws2_32:WS2_32.dll
 0002:00000468       __imp_connect              000000014021a468     ws2_32:WS2_32.dll
 0002:00000470       __imp_WSAGetLastError      000000014021a470     ws2_32:WS2_32.dll
 0002:00000478       __imp_accept               000000014021a478     ws2_32:WS2_32.dll
 0002:00000480       __imp_shutdown             000000014021a480     ws2_32:WS2_32.dll
 0002:00000488       __imp_closesocket          000000014021a488     ws2_32:WS2_32.dll
 0002:00000490       __imp_WSASendTo            000000014021a490     ws2_32:WS2_32.dll
 0002:00000498       __imp_WSARecvFrom          000000014021a498     ws2_32:WS2_32.dll
 0002:000004a0       __imp_select               000000014021a4a0     ws2_32:WS2_32.dll
 0002:000004a8       __imp___WSAFDIsSet         000000014021a4a8     ws2_32:WS2_32.dll
 0002:000004b0       __imp_htonl                000000014021a4b0     ws2_32:WS2_32.dll
 0002:000004b8       __imp_ntohl                000000014021a4b8     ws2_32:WS2_32.dll
 0002:000004c0       __imp_ntohs                000000014021a4c0     ws2_32:WS2_32.dll
 0002:000004c8       __imp_WSACleanup           000000014021a4c8     ws2_32:WS2_32.dll
 0002:000004d0       \177WS2_32_NULL_THUNK_DATA 000000014021a4d0     ws2_32:WS2_32.dll
 0002:000004d8       __imp_atol                 000000014021a4d8     ucrt:api-ms-win-crt-convert-l1-1-0.dll
 0002:000004e0       __imp_strtol               000000014021a4e0     ucrt:api-ms-win-crt-convert-l1-1-0.dll
 0002:000004e8       __imp_atoi                 000000014021a4e8     ucrt:api-ms-win-crt-convert-l1-1-0.dll
 0002:000004f0       __imp_atof                 000000014021a4f0     ucrt:api-ms-win-crt-convert-l1-1-0.dll
 0002:000004f8       \177api-ms-win-crt-convert-l1-1-0_NULL_THUNK_DATA 000000014021a4f8     ucrt:api-ms-win-crt-convert-l1-1-0.dll
 0002:00000500       __imp_remove               000000014021a500     ucrt:api-ms-win-crt-filesystem-l1-1-0.dll
 0002:00000508       __imp__lock_file           000000014021a508     ucrt:api-ms-win-crt-filesystem-l1-1-0.dll
 0002:00000510       __imp__unlock_file         000000014021a510     ucrt:api-ms-win-crt-filesystem-l1-1-0.dll
 0002:00000518       \177api-ms-win-crt-filesystem-l1-1-0_NULL_THUNK_DATA 000000014021a518     ucrt:api-ms-win-crt-filesystem-l1-1-0.dll
 0002:00000520       __imp__set_new_mode        000000014021a520     ucrt:api-ms-win-crt-heap-l1-1-0.dll
 0002:00000528       __imp_realloc              000000014021a528     ucrt:api-ms-win-crt-heap-l1-1-0.dll
 0002:00000530       __imp__callnewh            000000014021a530     ucrt:api-ms-win-crt-heap-l1-1-0.dll
 0002:00000538       __imp_free                 000000014021a538     ucrt:api-ms-win-crt-heap-l1-1-0.dll
 0002:00000540       __imp_malloc               000000014021a540     ucrt:api-ms-win-crt-heap-l1-1-0.dll
 0002:00000548       __imp_calloc               000000014021a548     ucrt:api-ms-win-crt-heap-l1-1-0.dll
 0002:00000550       \177api-ms-win-crt-heap-l1-1-0_NULL_THUNK_DATA 000000014021a550     ucrt:api-ms-win-crt-heap-l1-1-0.dll
 0002:00000558       __imp___pctype_func        000000014021a558     ucrt:api-ms-win-crt-locale-l1-1-0.dll
 0002:00000560       __imp_setlocale            000000014021a560     ucrt:api-ms-win-crt-locale-l1-1-0.dll
 0002:00000568       __imp__lock_locales        000000014021a568     ucrt:api-ms-win-crt-locale-l1-1-0.dll
 0002:00000570       __imp____lc_locale_name_func 000000014021a570     ucrt:api-ms-win-crt-locale-l1-1-0.dll
 0002:00000578       __imp__configthreadlocale  000000014021a578     ucrt:api-ms-win-crt-locale-l1-1-0.dll
 0002:00000580       __imp____lc_codepage_func  000000014021a580     ucrt:api-ms-win-crt-locale-l1-1-0.dll
 0002:00000588       __imp__unlock_locales      000000014021a588     ucrt:api-ms-win-crt-locale-l1-1-0.dll
 0002:00000590       \177api-ms-win-crt-locale-l1-1-0_NULL_THUNK_DATA 000000014021a590     ucrt:api-ms-win-crt-locale-l1-1-0.dll
 0002:00000598       __imp_cos                  000000014021a598     ucrt:api-ms-win-crt-math-l1-1-0.dll
 0002:000005a0       __imp_exp                  000000014021a5a0     ucrt:api-ms-win-crt-math-l1-1-0.dll
 0002:000005a8       __imp_floorf               000000014021a5a8     ucrt:api-ms-win-crt-math-l1-1-0.dll
 0002:000005b0       __imp_cosf                 000000014021a5b0     ucrt:api-ms-win-crt-math-l1-1-0.dll
 0002:000005b8       __imp___setusermatherr     000000014021a5b8     ucrt:api-ms-win-crt-math-l1-1-0.dll
 0002:000005c0       __imp_sinf                 000000014021a5c0     ucrt:api-ms-win-crt-math-l1-1-0.dll
 0002:000005c8       __imp_log                  000000014021a5c8     ucrt:api-ms-win-crt-math-l1-1-0.dll
 0002:000005d0       __imp_sin                  000000014021a5d0     ucrt:api-ms-win-crt-math-l1-1-0.dll
 0002:000005d8       __imp_ceilf                000000014021a5d8     ucrt:api-ms-win-crt-math-l1-1-0.dll
 0002:000005e0       __imp_ldexp                000000014021a5e0     ucrt:api-ms-win-crt-math-l1-1-0.dll
 0002:000005e8       __imp_sqrt                 000000014021a5e8     ucrt:api-ms-win-crt-math-l1-1-0.dll
 0002:000005f0       __imp_ceil                 000000014021a5f0     ucrt:api-ms-win-crt-math-l1-1-0.dll
 0002:000005f8       __imp_atan2f               000000014021a5f8     ucrt:api-ms-win-crt-math-l1-1-0.dll
 0002:00000600       __imp_atan                 000000014021a600     ucrt:api-ms-win-crt-math-l1-1-0.dll
 0002:00000608       __imp_pow                  000000014021a608     ucrt:api-ms-win-crt-math-l1-1-0.dll
 0002:00000610       __imp_sqrtf                000000014021a610     ucrt:api-ms-win-crt-math-l1-1-0.dll
 0002:00000618       __imp_tan                  000000014021a618     ucrt:api-ms-win-crt-math-l1-1-0.dll
 0002:00000620       __imp_asinf                000000014021a620     ucrt:api-ms-win-crt-math-l1-1-0.dll
 0002:00000628       __imp_floor                000000014021a628     ucrt:api-ms-win-crt-math-l1-1-0.dll
 0002:00000630       \177api-ms-win-crt-math-l1-1-0_NULL_THUNK_DATA 000000014021a630     ucrt:api-ms-win-crt-math-l1-1-0.dll
 0002:00000638       __imp__get_narrow_winmain_command_line 000000014021a638     ucrt:api-ms-win-crt-runtime-l1-1-0.dll
 0002:00000640       __imp__set_app_type        000000014021a640     ucrt:api-ms-win-crt-runtime-l1-1-0.dll
 0002:00000648       __imp__seh_filter_exe      000000014021a648     ucrt:api-ms-win-crt-runtime-l1-1-0.dll
 0002:00000650       __imp__cexit               000000014021a650     ucrt:api-ms-win-crt-runtime-l1-1-0.dll
 0002:00000658       __imp__crt_atexit          000000014021a658     ucrt:api-ms-win-crt-runtime-l1-1-0.dll
 0002:00000660       __imp__register_onexit_function 000000014021a660     ucrt:api-ms-win-crt-runtime-l1-1-0.dll
 0002:00000668       __imp__initialize_onexit_table 000000014021a668     ucrt:api-ms-win-crt-runtime-l1-1-0.dll
 0002:00000670       __imp__initialize_narrow_environment 000000014021a670     ucrt:api-ms-win-crt-runtime-l1-1-0.dll
 0002:00000678       __imp__configure_narrow_argv 000000014021a678     ucrt:api-ms-win-crt-runtime-l1-1-0.dll
 0002:00000680       __imp__wassert             000000014021a680     ucrt:api-ms-win-crt-runtime-l1-1-0.dll
 0002:00000688       __imp_terminate            000000014021a688     ucrt:api-ms-win-crt-runtime-l1-1-0.dll
 0002:00000690       __imp_abort                000000014021a690     ucrt:api-ms-win-crt-runtime-l1-1-0.dll
 0002:00000698       __imp__initterm_e          000000014021a698     ucrt:api-ms-win-crt-runtime-l1-1-0.dll
 0002:000006a0       __imp_strerror             000000014021a6a0     ucrt:api-ms-win-crt-runtime-l1-1-0.dll
 0002:000006a8       __imp__errno               000000014021a6a8     ucrt:api-ms-win-crt-runtime-l1-1-0.dll
 0002:000006b0       __imp_exit                 000000014021a6b0     ucrt:api-ms-win-crt-runtime-l1-1-0.dll
 0002:000006b8       __imp__exit                000000014021a6b8     ucrt:api-ms-win-crt-runtime-l1-1-0.dll
 0002:000006c0       __imp__c_exit              000000014021a6c0     ucrt:api-ms-win-crt-runtime-l1-1-0.dll
 0002:000006c8       __imp__register_thread_local_exe_atexit_callback 000000014021a6c8     ucrt:api-ms-win-crt-runtime-l1-1-0.dll
 0002:000006d0       __imp__invalid_parameter_noinfo_noreturn 000000014021a6d0     ucrt:api-ms-win-crt-runtime-l1-1-0.dll
 0002:000006d8       __imp__initterm            000000014021a6d8     ucrt:api-ms-win-crt-runtime-l1-1-0.dll
 0002:000006e0       \177api-ms-win-crt-runtime-l1-1-0_NULL_THUNK_DATA 000000014021a6e0     ucrt:api-ms-win-crt-runtime-l1-1-0.dll
 0002:000006e8       __imp__fseeki64            000000014021a6e8     ucrt:api-ms-win-crt-stdio-l1-1-0.dll
 0002:000006f0       __imp___p__commode         000000014021a6f0     ucrt:api-ms-win-crt-stdio-l1-1-0.dll
 0002:000006f8       __imp_fclose               000000014021a6f8     ucrt:api-ms-win-crt-stdio-l1-1-0.dll
 0002:00000700       __imp_ftell                000000014021a700     ucrt:api-ms-win-crt-stdio-l1-1-0.dll
 0002:00000708       __imp_fopen                000000014021a708     ucrt:api-ms-win-crt-stdio-l1-1-0.dll
 0002:00000710       __imp_fseek                000000014021a710     ucrt:api-ms-win-crt-stdio-l1-1-0.dll
 0002:00000718       __imp__set_fmode           000000014021a718     ucrt:api-ms-win-crt-stdio-l1-1-0.dll
 0002:00000720       __imp_fgetc                000000014021a720     ucrt:api-ms-win-crt-stdio-l1-1-0.dll
 0002:00000728       __imp___stdio_common_vsprintf_s 000000014021a728     ucrt:api-ms-win-crt-stdio-l1-1-0.dll
 0002:00000730       __imp_fputc                000000014021a730     ucrt:api-ms-win-crt-stdio-l1-1-0.dll
 0002:00000738       __imp_fflush               000000014021a738     ucrt:api-ms-win-crt-stdio-l1-1-0.dll
 0002:00000740       __imp_fwrite               000000014021a740     ucrt:api-ms-win-crt-stdio-l1-1-0.dll
 0002:00000748       __imp_fgetpos              000000014021a748     ucrt:api-ms-win-crt-stdio-l1-1-0.dll
 0002:00000750       __imp_setvbuf              000000014021a750     ucrt:api-ms-win-crt-stdio-l1-1-0.dll
 0002:00000758       __imp__fsopen              000000014021a758     ucrt:api-ms-win-crt-stdio-l1-1-0.dll
 0002:00000760       __imp_ungetc               000000014021a760     ucrt:api-ms-win-crt-stdio-l1-1-0.dll
 0002:00000768       __imp_fsetpos              000000014021a768     ucrt:api-ms-win-crt-stdio-l1-1-0.dll
 0002:00000770       __imp__get_stream_buffer_pointers 000000014021a770     ucrt:api-ms-win-crt-stdio-l1-1-0.dll
 0002:00000778       __imp_feof                 000000014021a778     ucrt:api-ms-win-crt-stdio-l1-1-0.dll
 0002:00000780       __imp_fopen_s              000000014021a780     ucrt:api-ms-win-crt-stdio-l1-1-0.dll
 0002:00000788       __imp_ferror               000000014021a788     ucrt:api-ms-win-crt-stdio-l1-1-0.dll
 0002:00000790       __imp___acrt_iob_func      000000014021a790     ucrt:api-ms-win-crt-stdio-l1-1-0.dll
 0002:00000798       __imp___stdio_common_vsprintf 000000014021a798     ucrt:api-ms-win-crt-stdio-l1-1-0.dll
 0002:000007a0       __imp___stdio_common_vfprintf 000000014021a7a0     ucrt:api-ms-win-crt-stdio-l1-1-0.dll
 0002:000007a8       __imp_fread                000000014021a7a8     ucrt:api-ms-win-crt-stdio-l1-1-0.dll
 0002:000007b0       \177api-ms-win-crt-stdio-l1-1-0_NULL_THUNK_DATA 000000014021a7b0     ucrt:api-ms-win-crt-stdio-l1-1-0.dll
 0002:000007b8       __imp_tolower              000000014021a7b8     ucrt:api-ms-win-crt-string-l1-1-0.dll
 0002:000007c0       __imp_strncmp              000000014021a7c0     ucrt:api-ms-win-crt-string-l1-1-0.dll
 0002:000007c8       __imp_isspace              000000014021a7c8     ucrt:api-ms-win-crt-string-l1-1-0.dll
 0002:000007d0       __imp_strncpy              000000014021a7d0     ucrt:api-ms-win-crt-string-l1-1-0.dll
 0002:000007d8       __imp_strcmp               000000014021a7d8     ucrt:api-ms-win-crt-string-l1-1-0.dll
 0002:000007e0       __imp_strlen               000000014021a7e0     ucrt:api-ms-win-crt-string-l1-1-0.dll
 0002:000007e8       __imp_isupper              000000014021a7e8     ucrt:api-ms-win-crt-string-l1-1-0.dll
 0002:000007f0       __imp__wcsdup              000000014021a7f0     ucrt:api-ms-win-crt-string-l1-1-0.dll
 0002:000007f8       __imp_islower              000000014021a7f8     ucrt:api-ms-win-crt-string-l1-1-0.dll
 0002:00000800       __imp___strncnt            000000014021a800     ucrt:api-ms-win-crt-string-l1-1-0.dll
 0002:00000808       \177api-ms-win-crt-string-l1-1-0_NULL_THUNK_DATA 000000014021a808     ucrt:api-ms-win-crt-string-l1-1-0.dll
 0002:00000810       __imp_strftime             000000014021a810     ucrt:api-ms-win-crt-time-l1-1-0.dll
 0002:00000818       __imp_clock                000000014021a818     ucrt:api-ms-win-crt-time-l1-1-0.dll
 0002:00000820       __imp__time64              000000014021a820     ucrt:api-ms-win-crt-time-l1-1-0.dll
 0002:00000828       __imp__localtime64         000000014021a828     ucrt:api-ms-win-crt-time-l1-1-0.dll
 0002:00000830       \177api-ms-win-crt-time-l1-1-0_NULL_THUNK_DATA 000000014021a830     ucrt:api-ms-win-crt-time-l1-1-0.dll
 0002:00000838       __imp_rand                 000000014021a838     ucrt:api-ms-win-crt-utility-l1-1-0.dll
 0002:00000840       __imp_qsort                000000014021a840     ucrt:api-ms-win-crt-utility-l1-1-0.dll
 0002:00000848       \177api-ms-win-crt-utility-l1-1-0_NULL_THUNK_DATA 000000014021a848     ucrt:api-ms-win-crt-utility-l1-1-0.dll
 0002:00000850       __imp_Discord_Initialize   000000014021a850     discord-rpc:discord-rpc.dll
 0002:00000858       __imp_Discord_Shutdown     000000014021a858     discord-rpc:discord-rpc.dll
 0002:00000860       __imp_Discord_UpdatePresence 000000014021a860     discord-rpc:discord-rpc.dll
 0002:00000868       \177discord-rpc_NULL_THUNK_DATA 000000014021a868     discord-rpc:discord-rpc.dll
 0002:00000870       __guard_check_icall_fptr   000000014021a870     MSVCRT:guard_support.obj
 0002:00000878       __guard_xfg_check_icall_fptr 000000014021a878     MSVCRT:guard_support.obj
 0002:00000880       __guard_dispatch_icall_fptr 000000014021a880     MSVCRT:guard_support.obj
 0002:00000888       __guard_xfg_dispatch_icall_fptr 000000014021a888     MSVCRT:guard_support.obj
 0002:00000890       __guard_xfg_table_dispatch_icall_fptr 000000014021a890     MSVCRT:guard_support.obj
 0002:00000898       __castguard_check_failure_os_handled_fptr 000000014021a898     MSVCRT:guard_support.obj
 0002:000008a0       __guard_memcpy_fptr        000000014021a8a0     vcruntime:softmemtag.obj
 0002:000008a8       __xc_a                     000000014021a8a8     MSVCRT:initializers.obj
 0002:00000aa0       __xc_z                     000000014021aaa0     MSVCRT:initializers.obj
 0002:00000aa8       __xi_a                     000000014021aaa8     MSVCRT:initializers.obj
 0002:00000ac0       __xi_z                     000000014021aac0     MSVCRT:initializers.obj
 0002:00000ac8       __xl_a                     000000014021aac8     MSVCRT:tlssup.obj
 0002:00000ad0       __xl_z                     000000014021aad0     MSVCRT:tlssup.obj
 0002:00000ad8       __xp_a                     000000014021aad8     MSVCRT:initializers.obj
 0002:00000ae0       __xp_z                     000000014021aae0     MSVCRT:initializers.obj
 0002:00000ae8       __xt_a                     000000014021aae8     MSVCRT:initializers.obj
 0002:00000af0       __xt_z                     000000014021aaf0     MSVCRT:initializers.obj
 0002:00000b00       __sz_SDL2_dll              000000014021ab00     SDL2:SDL2.dll
 0002:00000b10       ft_bitmap_glyph_class      000000014021ab10     freetype253:ftglyph.obj
 0002:00000b48       ft_outline_glyph_class     000000014021ab48     freetype253:ftglyph.obj
 0002:00000b80       ft_raccess_guess_table     000000014021ab80     freetype253:ftbase.obj
 0002:00000c90       ??_C@_02PEOAMJM@?4_@       000000014021ac90     freetype253:ftbase.obj
 0002:00000c94       ??_C@_05FLPKNBDI@?1rsrc@   000000014021ac94     freetype253:ftbase.obj
 0002:00000ca0       ??_C@_0BC@OBHLCHMP@?1?4?4namedfork?1rsrc@ 000000014021aca0     freetype253:ftbase.obj
 0002:00000cb8       ??_C@_0O@FDMCFKOC@resource?4frk?1@ 000000014021acb8     freetype253:ftbase.obj
 0002:00000cc8       ??_C@_0L@FGJFJHGF@?4resource?1@ 000000014021acc8     freetype253:ftbase.obj
 0002:00000cd4       ??_C@_01FGNFDNOH@?$CF@     000000014021acd4     freetype253:ftbase.obj
 0002:00000cd8       ??_C@_0O@KCDCBAF@?4AppleDouble?1@ 000000014021acd8     freetype253:ftbase.obj
 0002:00000ce8       ??_C@_03LBLPCGAC@cid@      000000014021ace8     freetype253:ftbase.obj
 0002:00000cec       ??_C@_05MJDCDNNA@type1@    000000014021acec     freetype253:ftbase.obj
 0002:00000cf4       ??_C@_03IINFADLN@cff@      000000014021acf4     freetype253:ftbase.obj
 0002:00000cf8       ??_C@_08OKLLNAKL@truetype@ 000000014021acf8     freetype253:ftbase.obj
 0002:00000d08       ??_C@_07IAOBDJBM@kerning@  000000014021ad08     freetype253:ftbase.obj
 0002:00000d10       ??_C@_0L@POCJHJKN@glyph?9dict@ 000000014021ad10     freetype253:ftbase.obj
 0002:00000d20       ??_C@_0BF@GDPJODJF@postscript?9font?9name@ 000000014021ad20     freetype253:ftbase.obj
 0002:00000d38       ??_C@_0L@MBBJBANC@sfnt?9table@ 000000014021ad38     freetype253:ftbase.obj
 0002:00000d48       ??_C@_08OHCKCLF@tt?9cmaps@ 000000014021ad48     freetype253:ftbase.obj
 0002:00000d58       ??_C@_0L@CIHKIEFA@properties@ 000000014021ad58     freetype253:ftbase.obj
 0002:00000d64       ??_C@_06GNKBHGHD@type42@   000000014021ad64     freetype253:ftbase.obj
 0002:00000d70       ??_C@_0BA@DHLLBDBB@truetype?9engine@ 000000014021ad70     freetype253:ftbase.obj
 0002:00000e40       af_blue_strings            000000014021ae40     freetype253:autofit.obj
 0002:00001050       af_blue_stringsets         000000014021b050     freetype253:autofit.obj
 0002:00001138       autofit_module_class       000000014021b138     freetype253:autofit.obj
 0002:00001170       af_writing_system_classes  000000014021b170     freetype253:autofit.obj
 0002:00001198       af_cyrl_script_class       000000014021b198     freetype253:autofit.obj
 0002:000011b8       af_grek_script_class       000000014021b1b8     freetype253:autofit.obj
 0002:000011d8       af_hebr_script_class       000000014021b1d8     freetype253:autofit.obj
 0002:000011f8       af_latn_script_class       000000014021b1f8     freetype253:autofit.obj
 0002:00001218       af_none_script_class       000000014021b218     freetype253:autofit.obj
 0002:00001238       af_beng_script_class       000000014021b238     freetype253:autofit.obj
 0002:00001258       af_deva_script_class       000000014021b258     freetype253:autofit.obj
 0002:00001278       af_gujr_script_class       000000014021b278     freetype253:autofit.obj
 0002:00001298       af_guru_script_class       000000014021b298     freetype253:autofit.obj
 0002:000012b8       af_knda_script_class       000000014021b2b8     freetype253:autofit.obj
 0002:000012d8       af_limb_script_class       000000014021b2d8     freetype253:autofit.obj
 0002:000012f8       af_mlym_script_class       000000014021b2f8     freetype253:autofit.obj
 0002:00001318       af_orya_script_class       000000014021b318     freetype253:autofit.obj
 0002:00001338       af_sinh_script_class       000000014021b338     freetype253:autofit.obj
 0002:00001358       af_sund_script_class       000000014021b358     freetype253:autofit.obj
 0002:00001378       af_sylo_script_class       000000014021b378     freetype253:autofit.obj
 0002:00001398       af_taml_script_class       000000014021b398     freetype253:autofit.obj
 0002:000013b8       af_telu_script_class       000000014021b3b8     freetype253:autofit.obj
 0002:000013d8       af_tibt_script_class       000000014021b3d8     freetype253:autofit.obj
 0002:000013f8       af_hani_script_class       000000014021b3f8     freetype253:autofit.obj
 0002:00001420       af_script_classes          000000014021b420     freetype253:autofit.obj
 0002:000014c8       af_cyrl_c2cp_style_class   000000014021b4c8     freetype253:autofit.obj
 0002:000014e0       af_cyrl_c2sc_style_class   000000014021b4e0     freetype253:autofit.obj
 0002:000014f8       af_cyrl_ordn_style_class   000000014021b4f8     freetype253:autofit.obj
 0002:00001510       af_cyrl_pcap_style_class   000000014021b510     freetype253:autofit.obj
 0002:00001528       af_cyrl_sinf_style_class   000000014021b528     freetype253:autofit.obj
 0002:00001540       af_cyrl_smcp_style_class   000000014021b540     freetype253:autofit.obj
 0002:00001558       af_cyrl_subs_style_class   000000014021b558     freetype253:autofit.obj
 0002:00001570       af_cyrl_sups_style_class   000000014021b570     freetype253:autofit.obj
 0002:00001588       af_cyrl_titl_style_class   000000014021b588     freetype253:autofit.obj
 0002:000015a0       af_cyrl_dflt_style_class   000000014021b5a0     freetype253:autofit.obj
 0002:000015b8       af_grek_c2cp_style_class   000000014021b5b8     freetype253:autofit.obj
 0002:000015d0       af_grek_c2sc_style_class   000000014021b5d0     freetype253:autofit.obj
 0002:000015e8       af_grek_ordn_style_class   000000014021b5e8     freetype253:autofit.obj
 0002:00001600       af_grek_pcap_style_class   000000014021b600     freetype253:autofit.obj
 0002:00001618       af_grek_sinf_style_class   000000014021b618     freetype253:autofit.obj
 0002:00001630       af_grek_smcp_style_class   000000014021b630     freetype253:autofit.obj
 0002:00001648       af_grek_subs_style_class   000000014021b648     freetype253:autofit.obj
 0002:00001660       af_grek_sups_style_class   000000014021b660     freetype253:autofit.obj
 0002:00001678       af_grek_titl_style_class   000000014021b678     freetype253:autofit.obj
 0002:00001690       af_grek_dflt_style_class   000000014021b690     freetype253:autofit.obj
 0002:000016a8       af_hebr_dflt_style_class   000000014021b6a8     freetype253:autofit.obj
 0002:000016c0       af_latn_c2cp_style_class   000000014021b6c0     freetype253:autofit.obj
 0002:000016d8       af_latn_c2sc_style_class   000000014021b6d8     freetype253:autofit.obj
 0002:000016f0       af_latn_ordn_style_class   000000014021b6f0     freetype253:autofit.obj
 0002:00001708       af_latn_pcap_style_class   000000014021b708     freetype253:autofit.obj
 0002:00001720       af_latn_sinf_style_class   000000014021b720     freetype253:autofit.obj
 0002:00001738       af_latn_smcp_style_class   000000014021b738     freetype253:autofit.obj
 0002:00001750       af_latn_subs_style_class   000000014021b750     freetype253:autofit.obj
 0002:00001768       af_latn_sups_style_class   000000014021b768     freetype253:autofit.obj
 0002:00001780       af_latn_titl_style_class   000000014021b780     freetype253:autofit.obj
 0002:00001798       af_latn_dflt_style_class   000000014021b798     freetype253:autofit.obj
 0002:000017b0       af_none_dflt_style_class   000000014021b7b0     freetype253:autofit.obj
 0002:000017c8       af_beng_dflt_style_class   000000014021b7c8     freetype253:autofit.obj
 0002:000017e0       af_deva_dflt_style_class   000000014021b7e0     freetype253:autofit.obj
 0002:000017f8       af_gujr_dflt_style_class   000000014021b7f8     freetype253:autofit.obj
 0002:00001810       af_guru_dflt_style_class   000000014021b810     freetype253:autofit.obj
 0002:00001828       af_knda_dflt_style_class   000000014021b828     freetype253:autofit.obj
 0002:00001840       af_limb_dflt_style_class   000000014021b840     freetype253:autofit.obj
 0002:00001858       af_mlym_dflt_style_class   000000014021b858     freetype253:autofit.obj
 0002:00001870       af_orya_dflt_style_class   000000014021b870     freetype253:autofit.obj
 0002:00001888       af_sinh_dflt_style_class   000000014021b888     freetype253:autofit.obj
 0002:000018a0       af_sund_dflt_style_class   000000014021b8a0     freetype253:autofit.obj
 0002:000018b8       af_sylo_dflt_style_class   000000014021b8b8     freetype253:autofit.obj
 0002:000018d0       af_taml_dflt_style_class   000000014021b8d0     freetype253:autofit.obj
 0002:000018e8       af_telu_dflt_style_class   000000014021b8e8     freetype253:autofit.obj
 0002:00001900       af_tibt_dflt_style_class   000000014021b900     freetype253:autofit.obj
 0002:00001918       af_hani_dflt_style_class   000000014021b918     freetype253:autofit.obj
 0002:00001930       af_style_classes           000000014021b930     freetype253:autofit.obj
 0002:00001ab0       af_cyrl_uniranges          000000014021bab0     freetype253:autofit.obj
 0002:00001ad8       af_grek_uniranges          000000014021bad8     freetype253:autofit.obj
 0002:00001af0       af_hebr_uniranges          000000014021baf0     freetype253:autofit.obj
 0002:00001b10       af_latn_uniranges          000000014021bb10     freetype253:autofit.obj
 0002:00001bc8       af_none_uniranges          000000014021bbc8     freetype253:autofit.obj
 0002:00001bd0       af_beng_uniranges          000000014021bbd0     freetype253:autofit.obj
 0002:00001be0       af_deva_uniranges          000000014021bbe0     freetype253:autofit.obj
 0002:00001bf0       af_gujr_uniranges          000000014021bbf0     freetype253:autofit.obj
 0002:00001c00       af_guru_uniranges          000000014021bc00     freetype253:autofit.obj
 0002:00001c10       af_knda_uniranges          000000014021bc10     freetype253:autofit.obj
 0002:00001c20       af_limb_uniranges          000000014021bc20     freetype253:autofit.obj
 0002:00001c30       af_mlym_uniranges          000000014021bc30     freetype253:autofit.obj
 0002:00001c40       af_orya_uniranges          000000014021bc40     freetype253:autofit.obj
 0002:00001c50       af_sinh_uniranges          000000014021bc50     freetype253:autofit.obj
 0002:00001c60       af_sund_uniranges          000000014021bc60     freetype253:autofit.obj
 0002:00001c70       af_sylo_uniranges          000000014021bc70     freetype253:autofit.obj
 0002:00001c80       af_taml_uniranges          000000014021bc80     freetype253:autofit.obj
 0002:00001c90       af_telu_uniranges          000000014021bc90     freetype253:autofit.obj
 0002:00001ca0       af_tibt_uniranges          000000014021bca0     freetype253:autofit.obj
 0002:00001cb0       af_hani_uniranges          000000014021bcb0     freetype253:autofit.obj
 0002:00001db8       af_dummy_writing_system_class 000000014021bdb8     freetype253:autofit.obj
 0002:00001df0       af_latin_writing_system_class 000000014021bdf0     freetype253:autofit.obj
 0002:00001e28       af_cjk_writing_system_class 000000014021be28     freetype253:autofit.obj
 0002:00001e60       af_indic_writing_system_class 000000014021be60     freetype253:autofit.obj
 0002:00001ec8       af_autofitter_interface    000000014021bec8     freetype253:autofit.obj
 0002:00001ee8       ??_C@_0BA@OKOILHEH@fallback?9script@ 000000014021bee8     freetype253:autofit.obj
 0002:00001ef8       ??_C@_0P@PHBNIPOP@default?9script@ 000000014021bef8     freetype253:autofit.obj
 0002:00001f08       ??_C@_0BC@OOHNGIJD@increase?9x?9height@ 000000014021bf08     freetype253:autofit.obj
 0002:00001f20       ??_C@_0BE@CELKBFDM@glyph?9to?9script?9map@ 000000014021bf20     freetype253:autofit.obj
 0002:00001f38       ??_C@_0L@MNEBCNMP@autofitter@ 000000014021bf38     freetype253:autofit.obj
 0002:00001f50       __xmm@00000000000000000001000000010000 000000014021bf50     freetype253:autofit.obj
 0002:00001fd0       tt_driver_class            000000014021bfd0     freetype253:truetype.obj
 0002:00002080       tt_default_graphics_state  000000014021c080     freetype253:truetype.obj
 0002:000025c0       ??_C@_06ODJMJFLN@Weight@   000000014021c5c0     freetype253:truetype.obj
 0002:000025c8       ??_C@_05IBAMDCFI@Width@    000000014021c5c8     freetype253:truetype.obj
 0002:000025d0       ??_C@_0M@EDHPABCB@OpticalSize@ 000000014021c5d0     freetype253:truetype.obj
 0002:000025dc       ??_C@_05BCGFHEPH@Slant@    000000014021c5dc     freetype253:truetype.obj
 0002:000025e8       ??_C@_0BE@OJJAFABD@interpreter?9version@ 000000014021c5e8     freetype253:truetype.obj
 0002:00002600       ??_C@_0BB@PMIOOMFN@xf86?9driver?9name@ 000000014021c600     freetype253:truetype.obj
 0002:00002618       ??_C@_08KJILHNAM@TrueType@ 000000014021c618     freetype253:truetype.obj
 0002:00002628       ??_C@_0O@DHADKGAK@multi?9masters@ 000000014021c628     freetype253:truetype.obj
 0002:00002638       ??_C@_07CDLHCBDE@tt?9glyf@ 000000014021c638     freetype253:truetype.obj
 0002:00002640       ??_C@_04JAPIGAPK@sfnt@     000000014021c640     freetype253:truetype.obj
 0002:00002648       ??_C@_07JBKHDJHE@?4notdef@ 000000014021c648     freetype253:truetype.obj
 0002:00002650       ??_C@_0P@EMKCEFJO@?$CF?$CBPS?9AdobeFont@ 000000014021c650     freetype253:type1.obj
 0002:00002660       ??_C@_0L@LLIKMEDC@?$CF?$CBFontType@ 000000014021c660     freetype253:type1.obj
 0002:0000266c       ??_C@_05OJJBIBFE@eexec@    000000014021c66c     freetype253:type1.obj
 0002:00002678       ??_C@_0BB@MLEHKAJM@StandardEncoding@ 000000014021c678     freetype253:type1.obj
 0002:00002690       ??_C@_0P@LHOFAKJ@ExpertEncoding@ 000000014021c690     freetype253:type1.obj
 0002:000026a0       ??_C@_0BC@OHHLKLPP@ISOLatin1Encoding@ 000000014021c6a0     freetype253:type1.obj
 0002:000026b4       ??_C@_03BHPKJDPK@dup@      000000014021c6b4     freetype253:type1.obj
 0002:000026b8       ??_C@_03KMONJGDG@put@      000000014021c6b8     freetype253:type1.obj
 0002:00002f90       t1_driver_class            000000014021cf90     freetype253:type1.obj
 0002:00003120       ??_C@_07CPCPJPKL@version@  000000014021d120     freetype253:type1.obj
 0002:00003128       ??_C@_06JHGCIHDH@Notice@   000000014021d128     freetype253:type1.obj
 0002:00003130       ??_C@_08FPDCFGEH@FullName@ 000000014021d130     freetype253:type1.obj
 0002:00003140       ??_C@_0L@KKMPOENF@FamilyName@ 000000014021d140     freetype253:type1.obj
 0002:00003150       ??_C@_0M@ILCDBHGP@ItalicAngle@ 000000014021d150     freetype253:type1.obj
 0002:00003160       ??_C@_0N@OPLNPOL@isFixedPitch@ 000000014021d160     freetype253:type1.obj
 0002:00003170       ??_C@_0BC@CCIMILPE@UnderlinePosition@ 000000014021d170     freetype253:type1.obj
 0002:00003188       ??_C@_0BD@KBICJDLM@UnderlineThickness@ 000000014021d188     freetype253:type1.obj
 0002:0000319c       ??_C@_06FIINGLDE@FSType@   000000014021d19c     freetype253:type1.obj
 0002:000031a8       ??_C@_08OMJGNOHD@UniqueID@ 000000014021d1a8     freetype253:type1.obj
 0002:000031b4       ??_C@_05CIIKKFON@lenIV@    000000014021d1b4     freetype253:type1.obj
 0002:000031c0       ??_C@_0O@PJDGHDCK@LanguageGroup@ 000000014021d1c0     freetype253:type1.obj
 0002:000031d0       ??_C@_08NLHBPEGP@password@ 000000014021d1d0     freetype253:type1.obj
 0002:000031e0       ??_C@_09IPAGIEBG@BlueScale@ 000000014021d1e0     freetype253:type1.obj
 0002:000031f0       ??_C@_09GDCMDLCO@BlueShift@ 000000014021d1f0     freetype253:type1.obj
 0002:00003200       ??_C@_08IPFLJFPM@BlueFuzz@ 000000014021d200     freetype253:type1.obj
 0002:00003210       ??_C@_0L@DKDIMLOI@BlueValues@ 000000014021d210     freetype253:type1.obj
 0002:00003220       ??_C@_0L@CCJAIIMC@OtherBlues@ 000000014021d220     freetype253:type1.obj
 0002:00003230       ??_C@_0M@OIPOLIDA@FamilyBlues@ 000000014021d230     freetype253:type1.obj
 0002:00003240       ??_C@_0BB@FMLCJJDP@FamilyOtherBlues@ 000000014021d240     freetype253:type1.obj
 0002:00003254       ??_C@_05PHECBFLF@StdHW@    000000014021d254     freetype253:type1.obj
 0002:0000325c       ??_C@_05OBPKJLMP@StdVW@    000000014021d25c     freetype253:type1.obj
 0002:00003268       ??_C@_0L@NKGPCONN@MinFeature@ 000000014021d268     freetype253:type1.obj
 0002:00003278       ??_C@_09NCKADFKP@StemSnapH@ 000000014021d278     freetype253:type1.obj
 0002:00003288       ??_C@_09GOBAKHA@StemSnapV@ 000000014021d288     freetype253:type1.obj
 0002:00003298       ??_C@_0BA@PKGIFANC@ExpansionFactor@ 000000014021d298     freetype253:type1.obj
 0002:000032a8       ??_C@_09BDDIAPM@ForceBold@ 000000014021d2a8     freetype253:type1.obj
 0002:000032b8       ??_C@_08MKFDOKHL@FontName@ 000000014021d2b8     freetype253:type1.obj
 0002:000032c8       ??_C@_09PNDIDGHG@PaintType@ 000000014021d2c8     freetype253:type1.obj
 0002:000032d8       ??_C@_08GBFACKAL@FontType@ 000000014021d2d8     freetype253:type1.obj
 0002:000032e8       ??_C@_0M@GLGMDIGG@StrokeWidth@ 000000014021d2e8     freetype253:type1.obj
 0002:000032f8       ??_C@_08EBMMLPNI@FontBBox@ 000000014021d2f8     freetype253:type1.obj
 0002:00003304       ??_C@_03DOACNACD@NDV@      000000014021d304     freetype253:type1.obj
 0002:00003308       ??_C@_03MMGIAIPO@CDV@      000000014021d308     freetype253:type1.obj
 0002:00003310       ??_C@_0N@PGGOPDKP@DesignVector@ 000000014021d310     freetype253:type1.obj
 0002:00003320       ??_C@_0L@LNCCOCBB@FontMatrix@ 000000014021d320     freetype253:type1.obj
 0002:00003330       ??_C@_08EJAHIGCJ@Encoding@ 000000014021d330     freetype253:type1.obj
 0002:0000333c       ??_C@_05DHFNOCDJ@Subrs@    000000014021d33c     freetype253:type1.obj
 0002:00003348       ??_C@_0M@EKIFGBLL@CharStrings@ 000000014021d348     freetype253:type1.obj
 0002:00003358       ??_C@_07CFINJGKH@Private@  000000014021d358     freetype253:type1.obj
 0002:00003360       ??_C@_0BF@BEKHBPMN@BlendDesignPositions@ 000000014021d360     freetype253:type1.obj
 0002:00003378       ??_C@_0P@FPDIEJKK@BlendDesignMap@ 000000014021d378     freetype253:type1.obj
 0002:00003388       ??_C@_0P@LEAACMFJ@BlendAxisTypes@ 000000014021d388     freetype253:type1.obj
 0002:00003398       ??_C@_0N@JPPBHHHF@WeightVector@ 000000014021d398     freetype253:type1.obj
 0002:000033a8       ??_C@_0P@KEOGGALI@BuildCharArray@ 000000014021d3a8     freetype253:type1.obj
 0002:000033b8       ??_C@_09BJJLCLMA@closefile@ 000000014021d3b8     freetype253:type1.obj
 0002:000033c8       ??_C@_0O@CJLBGMNG@FontDirectory@ 000000014021d3c8     freetype253:type1.obj
 0002:000033d8       ??_C@_08MNGCAOLP@pshinter@ 000000014021d3d8     freetype253:type1.obj
 0002:000033e8       ??_C@_0BB@JIMLNENF@postscript?9cmaps@ 000000014021d3e8     freetype253:type1.obj
 0002:000033fc       ??_C@_05MNCLAAKB@psaux@    000000014021d3fc     freetype253:type1.obj
 0002:00003408       ??_C@_07FFHPBFOK@Regular@  000000014021d408     freetype253:type1.obj
 0002:00003410       ??_C@_04DIPHHIHJ@Bold@     000000014021d410     freetype253:type1.obj
 0002:00003418       ??_C@_05BPGNDIAE@Black@    000000014021d418     freetype253:type1.obj
 0002:00003420       ??_C@_06JCBOBHIA@Type?51@  000000014021d420     freetype253:type1.obj
 0002:00003428       ??_C@_0BA@EAOIOGJA@postscript?9info@ 000000014021d428     freetype253:type1.obj
 0002:00003480       cff_cmap_encoding_class_rec 000000014021d480     freetype253:cff.obj
 0002:000034d0       cff_cmap_unicode_class_rec 000000014021d4d0     freetype253:cff.obj
 0002:00003520       cff_driver_class           000000014021d520     freetype253:cff.obj
 0002:00004558       ??_C@_0BF@GIDENNON@darkening?9parameters@ 000000014021e558     freetype253:cff.obj
 0002:00004570       ??_C@_0P@DGAAAJJA@hinting?9engine@ 000000014021e570     freetype253:cff.obj
 0002:00004580       ??_C@_0BC@GFOLLGHN@no?9stem?9darkening@ 000000014021e580     freetype253:cff.obj
 0002:00004594       ??_C@_03IFCOMOMB@CFF@      000000014021e594     freetype253:cff.obj
 0002:00004598       ??_C@_03LMEEOLHO@CID@      000000014021e598     freetype253:cff.obj
 0002:000045a0       ??_C@_0CA@JGHPJJJF@?$CF?$CBPS?9Adobe?93?40?5Resource?9CIDFont@ 000000014021e5a0     freetype253:type1cid.obj
 0002:000045c0       ??_C@_09BFOLOCGO@StartData@ 000000014021e5c0     freetype253:type1cid.obj
 0002:000045cc       ??_C@_06EMLBPOPP@?1sfnts@  000000014021e5cc     freetype253:type1cid.obj
 0002:000045d4       ??_C@_05NPBNGLLN@?$CIHex?$CJ@ 000000014021e5d4     freetype253:type1cid.obj
 0002:00004f70       t1cid_driver_class         000000014021ef70     freetype253:type1cid.obj
 0002:000050b0       ??_C@_0M@CKCGNNAK@CIDFontName@ 000000014021f0b0     freetype253:type1cid.obj
 0002:000050c0       ??_C@_0P@FDOGBFAP@CIDFontVersion@ 000000014021f0c0     freetype253:type1cid.obj
 0002:000050d0       ??_C@_0M@IBCFBNHK@CIDFontType@ 000000014021f0d0     freetype253:type1cid.obj
 0002:000050e0       ??_C@_08EPBENDNC@Registry@ 000000014021f0e0     freetype253:type1cid.obj
 0002:000050f0       ??_C@_08HMKBFHBJ@Ordering@ 000000014021f0f0     freetype253:type1cid.obj
 0002:00005100       ??_C@_0L@EJNILPMC@Supplement@ 000000014021f100     freetype253:type1cid.obj
 0002:00005110       ??_C@_07CNNFHHEA@UIDBase@  000000014021f110     freetype253:type1cid.obj
 0002:00005118       ??_C@_0N@LBMCPKAC@CIDMapOffset@ 000000014021f118     freetype253:type1cid.obj
 0002:00005128       ??_C@_07NNGKIHHK@FDBytes@  000000014021f128     freetype253:type1cid.obj
 0002:00005130       ??_C@_07BBMAIHOE@GDBytes@  000000014021f130     freetype253:type1cid.obj
 0002:00005138       ??_C@_08LPCKMOBH@CIDCount@ 000000014021f138     freetype253:type1cid.obj
 0002:00005148       ??_C@_0O@DKIHOHFK@SubrMapOffset@ 000000014021f148     freetype253:type1cid.obj
 0002:00005158       ??_C@_07OJDBLIDF@SDBytes@  000000014021f158     freetype253:type1cid.obj
 0002:00005160       ??_C@_09NKAONILE@SubrCount@ 000000014021f160     freetype253:type1cid.obj
 0002:00005170       ??_C@_0BC@HBJENNOG@lenBuildCharArray@ 000000014021f170     freetype253:type1cid.obj
 0002:00005188       ??_C@_0BD@BGHMBBEO@ForceBoldThreshold@ 000000014021f188     freetype253:type1cid.obj
 0002:000051a0       ??_C@_07PEKDNLEP@FDArray@  000000014021f1a0     freetype253:type1cid.obj
 0002:000051a8       ??_C@_0BC@JBBEDJNJ@?$CFADOBeginFontDict@ 000000014021f1a8     freetype253:type1cid.obj
 0002:000051c0       ??_C@_0L@DDPIBKML@CID?5Type?51@ 000000014021f1c0     freetype253:type1cid.obj
 0002:000051cc       ??_C@_05CNMLIGFM@t1cid@    000000014021f1cc     freetype253:type1cid.obj
 0002:000052b0       pfr_cmap_class_rec         000000014021f2b0     freetype253:pfr.obj
 0002:00005300       pfr_driver_class           000000014021f300     freetype253:pfr.obj
 0002:000053a8       pfr_metrics_service_rec    000000014021f3a8     freetype253:pfr.obj
 0002:000053f0       ??_C@_0M@BAGPBJNL@pfr?9metrics@ 000000014021f3f0     freetype253:pfr.obj
 0002:000053fc       ??_C@_03OJCMOBOF@PFR@      000000014021f3fc     freetype253:pfr.obj
 0002:00005400       ??_C@_03OENHCMJJ@pfr@      000000014021f400     freetype253:pfr.obj
 0002:000057d0       t42_driver_class           000000014021f7d0     freetype253:type42.obj
 0002:00005910       ??_C@_05FJOKMJFH@sfnts@    000000014021f910     freetype253:type42.obj
 0002:00005918       ??_C@_05MDIJLHEA@known@    000000014021f918     freetype253:type42.obj
 0002:00005920       ??_C@_07GJBALKN@Type?542@  000000014021f920     freetype253:type42.obj
 0002:00005930       winfnt_driver_class        000000014021f930     freetype253:winfnt.obj
 0002:00005bd0       ??_C@_0M@DFCIIFPB@Bold?5Italic@ 000000014021fbd0     freetype253:winfnt.obj
 0002:00005bdc       ??_C@_06PPMHIBHB@Italic@   000000014021fbdc     freetype253:winfnt.obj
 0002:00005be8       ??_C@_0M@FPCOPFGH@Windows?5FNT@ 000000014021fbe8     freetype253:winfnt.obj
 0002:00005bf8       ??_C@_08NAMFKPDH@winfonts@ 000000014021fbf8     freetype253:winfnt.obj
 0002:00005d40       pcf_driver_class           000000014021fd40     freetype253:pcf.obj
 0002:00005df0       pcf_cmap_class             000000014021fdf0     freetype253:pcf.obj
 0002:00005e80       ??_C@_05NOFPJGIP@SLANT@    000000014021fe80     freetype253:pcf.obj
 0002:00005e88       ??_C@_07EGOIFKG@Oblique@   000000014021fe88     freetype253:pcf.obj
 0002:00005e90       ??_C@_0M@FCJHKPGH@WEIGHT_NAME@ 000000014021fe90     freetype253:pcf.obj
 0002:00005ea0       ??_C@_0O@DANCJNNA@SETWIDTH_NAME@ 000000014021fea0     freetype253:pcf.obj
 0002:00005eb0       ??_C@_0P@BLEODLOA@ADD_STYLE_NAME@ 000000014021feb0     freetype253:pcf.obj
 0002:00005ec0       ??_C@_0M@FBEHGJKE@FAMILY_NAME@ 000000014021fec0     freetype253:pcf.obj
 0002:00005ed0       ??_C@_0O@KPOPAFON@AVERAGE_WIDTH@ 000000014021fed0     freetype253:pcf.obj
 0002:00005ee0       ??_C@_0L@JCJJGPJF@POINT_SIZE@ 000000014021fee0     freetype253:pcf.obj
 0002:00005ef0       ??_C@_0L@CNGHIHBP@PIXEL_SIZE@ 000000014021fef0     freetype253:pcf.obj
 0002:00005f00       ??_C@_0N@NBDHNJFJ@RESOLUTION_X@ 000000014021ff00     freetype253:pcf.obj
 0002:00005f10       ??_C@_0N@MICMOIBI@RESOLUTION_Y@ 000000014021ff10     freetype253:pcf.obj
 0002:00005f20       ??_C@_0BB@OHIDJKBJ@CHARSET_REGISTRY@ 000000014021ff20     freetype253:pcf.obj
 0002:00005f38       ??_C@_0BB@OBJAMPOC@CHARSET_ENCODING@ 000000014021ff38     freetype253:pcf.obj
 0002:00005f4c       ??_C@_05FPAEEJJG@10646@    000000014021ff4c     freetype253:pcf.obj
 0002:00005f54       ??_C@_04LBDHIBCK@8859@     000000014021ff54     freetype253:pcf.obj
 0002:00005f5c       ??_C@_03DDONLALG@bdf@      000000014021ff5c     freetype253:pcf.obj
 0002:00005f60       ??_C@_03MBEJPEFL@PCF@      000000014021ff60     freetype253:pcf.obj
 0002:00005f64       ??_C@_03MMLCDJCH@pcf@      000000014021ff64     freetype253:pcf.obj
 0002:00005f70       ps_table_funcs             000000014021ff70     freetype253:psaux.obj
 0002:00005f90       ps_parser_funcs            000000014021ff90     freetype253:psaux.obj
 0002:00006000       t1_builder_funcs           0000000140220000     freetype253:psaux.obj
 0002:00006040       t1_decoder_funcs           0000000140220040     freetype253:psaux.obj
 0002:00006060       t1_cmap_standard_class_rec 0000000140220060     freetype253:psaux.obj
 0002:000060b0       t1_cmap_expert_class_rec   00000001402200b0     freetype253:psaux.obj
 0002:00006100       t1_cmap_custom_class_rec   0000000140220100     freetype253:psaux.obj
 0002:00006150       t1_cmap_unicode_class_rec  0000000140220150     freetype253:psaux.obj
 0002:000061a0       afm_parser_funcs           00000001402201a0     freetype253:psaux.obj
 0002:000061b8       t1_cmap_classes            00000001402201b8     freetype253:psaux.obj
 0002:00006210       psaux_module_class         0000000140220210     freetype253:psaux.obj
 0002:00006590       ??_C@_08NBPEBJDA@Ascender@ 0000000140220590     freetype253:psaux.obj
 0002:000065a0       ??_C@_09POOBGNPO@AxisLabel@ 00000001402205a0     freetype253:psaux.obj
 0002:000065b0       ??_C@_08KLONHBMG@AxisType@ 00000001402205b0     freetype253:psaux.obj
 0002:000065bc       ??_C@_01HMGJMAIH@B@        00000001402205bc     freetype253:psaux.obj
 0002:000065c0       ??_C@_01GFHCPBMG@C@        00000001402205c0     freetype253:psaux.obj
 0002:000065c4       ??_C@_02KJDGAJLC@CC@       00000001402205c4     freetype253:psaux.obj
 0002:000065c8       ??_C@_02EKMCNAHJ@CH@       00000001402205c8     freetype253:psaux.obj
 0002:000065d0       ??_C@_09JOCJHGEG@CapHeight@ 00000001402205d0     freetype253:psaux.obj
 0002:000065e0       ??_C@_09CGMEAFLF@CharWidth@ 00000001402205e0     freetype253:psaux.obj
 0002:000065f0       ??_C@_0N@LHPDLMAH@CharacterSet@ 00000001402205f0     freetype253:psaux.obj
 0002:00006600       ??_C@_0L@EMODJLOD@Characters@ 0000000140220600     freetype253:psaux.obj
 0002:00006610       ??_C@_09JMDLBBJN@Descender@ 0000000140220610     freetype253:psaux.obj
 0002:00006620       ??_C@_0P@JNPLONMI@EncodingScheme@ 0000000140220620     freetype253:psaux.obj
 0002:00006630       ??_C@_07DLEALFPL@EndAxis@  0000000140220630     freetype253:psaux.obj
 0002:00006638       ??_C@_0P@GFNMGKCM@EndCharMetrics@ 0000000140220638     freetype253:psaux.obj
 0002:00006648       ??_C@_0O@JABMALCH@EndComposites@ 0000000140220648     freetype253:psaux.obj
 0002:00006658       ??_C@_0N@FNMEONKF@EndDirection@ 0000000140220658     freetype253:psaux.obj
 0002:00006668       ??_C@_0P@FGFFCKLI@EndFontMetrics@ 0000000140220668     freetype253:psaux.obj
 0002:00006678       ??_C@_0M@HKHGIIOM@EndKernData@ 0000000140220678     freetype253:psaux.obj
 0002:00006688       ??_C@_0N@IJIACAAI@EndKernPairs@ 0000000140220688     freetype253:psaux.obj
 0002:00006698       ??_C@_0N@FEBBJBLC@EndTrackKern@ 0000000140220698     freetype253:psaux.obj
 0002:000066a8       ??_C@_07BNJNBMEL@EscChar@  00000001402206a8     freetype253:psaux.obj
 0002:000066b0       ??_C@_0L@PAHDJIHN@IsBaseFont@ 00000001402206b0     freetype253:psaux.obj
 0002:000066c0       ??_C@_09OIFAOJEJ@IsCIDFont@ 00000001402206c0     freetype253:psaux.obj
 0002:000066d0       ??_C@_0N@LNIFJEBO@IsFixedPitch@ 00000001402206d0     freetype253:psaux.obj
 0002:000066e0       ??_C@_08CHFNODLO@IsFixedV@ 00000001402206e0     freetype253:psaux.obj
 0002:000066ec       ??_C@_02MGMKBJJI@KP@       00000001402206ec     freetype253:psaux.obj
 0002:000066f0       ??_C@_03MGLCBEGC@KPH@      00000001402206f0     freetype253:psaux.obj
 0002:000066f4       ??_C@_03IMHAAGDD@KPX@      00000001402206f4     freetype253:psaux.obj
 0002:000066f8       ??_C@_03JFGLDHHC@KPY@      00000001402206f8     freetype253:psaux.obj
 0002:000066fc       ??_C@_01OCOKONAJ@L@        00000001402206fc     freetype253:psaux.obj
 0002:00006700       ??_C@_0O@NDBFHPJC@MappingScheme@ 0000000140220700     freetype253:psaux.obj
 0002:00006710       ??_C@_0M@PGHPLBFB@MetricsSets@ 0000000140220710     freetype253:psaux.obj
 0002:0000671c       ??_C@_01NANMIPIL@N@        000000014022071c     freetype253:psaux.obj
 0002:00006720       ??_C@_03LMDOAABO@PCC@      0000000140220720     freetype253:psaux.obj
 0002:00006728       ??_C@_09JMBADFPL@StartAxis@ 0000000140220728     freetype253:psaux.obj
 0002:00006738       ??_C@_0BB@JDMDJAID@StartCharMetrics@ 0000000140220738     freetype253:psaux.obj
 0002:00006750       ??_C@_0BA@DGMAPPPC@StartComposites@ 0000000140220750     freetype253:psaux.obj
 0002:00006760       ??_C@_0P@DNGHFPAA@StartDirection@ 0000000140220760     freetype253:psaux.obj
 0002:00006770       ??_C@_0BB@KAEKNABH@StartFontMetrics@ 0000000140220770     freetype253:psaux.obj
 0002:00006788       ??_C@_0O@GJEKPIHD@StartKernData@ 0000000140220788     freetype253:psaux.obj
 0002:00006798       ??_C@_0P@OJCDJCKN@StartKernPairs@ 0000000140220798     freetype253:psaux.obj
 0002:000067a8       ??_C@_0BA@HHMIMKDE@StartKernPairs0@ 00000001402207a8     freetype253:psaux.obj
 0002:000067b8       ??_C@_0BA@GONDPLHF@StartKernPairs1@ 00000001402207b8     freetype253:psaux.obj
 0002:000067c8       ??_C@_0P@DELCCDBH@StartTrackKern@ 00000001402207c8     freetype253:psaux.obj
 0002:000067d8       ??_C@_09DJCDMHFC@TrackKern@ 00000001402207d8     freetype253:psaux.obj
 0002:000067e4       ??_C@_02IEGOIODN@VV@       00000001402207e4     freetype253:psaux.obj
 0002:000067e8       ??_C@_07HFOFDFIM@VVector@  00000001402207e8     freetype253:psaux.obj
 0002:000067f0       ??_C@_07NGFJPNPN@Version@  00000001402207f0     freetype253:psaux.obj
 0002:000067f8       ??_C@_01ELNMCGJD@W@        00000001402207f8     freetype253:psaux.obj
 0002:000067fc       ??_C@_02LGALCICL@W0@       00000001402207fc     freetype253:psaux.obj
 0002:00006800       ??_C@_03NOGICFDE@W0X@      0000000140220800     freetype253:psaux.obj
 0002:00006804       ??_C@_03MHHDBEHF@W0Y@      0000000140220804     freetype253:psaux.obj
 0002:00006808       ??_C@_02KPBABJGK@W1@       0000000140220808     freetype253:psaux.obj
 0002:0000680c       ??_C@_03NPKKEPAD@W1X@      000000014022080c     freetype253:psaux.obj
 0002:00006810       ??_C@_03MGLBHOEC@W1Y@      0000000140220810     freetype253:psaux.obj
 0002:00006814       ??_C@_02BLCPMJIE@WX@       0000000140220814     freetype253:psaux.obj
 0002:00006818       ??_C@_02CDEPIMF@WY@        0000000140220818     freetype253:psaux.obj
 0002:00006820       ??_C@_07MIHJBPO@XHeight@   0000000140220820     freetype253:psaux.obj
 0002:00006830       psnames_module_class       0000000140220830     freetype253:psmodule.obj
 0002:00015bd0       ??_C@_07POODEHEH@psnames@  000000014022fbd0     freetype253:psmodule.obj
 0002:00015bf0       pshinter_module_class      000000014022fbf0     freetype253:pshinter.obj
 0002:00015c30       ft_standard_raster         000000014022fc30     freetype253:raster.obj
 0002:00015c60       ft_raster1_renderer_class  000000014022fc60     freetype253:raster.obj
 0002:00015cd0       ft_raster5_renderer_class  000000014022fcd0     freetype253:raster.obj
 0002:00015d38       ??_C@_07EFFNHEPH@raster1@  000000014022fd38     freetype253:raster.obj
 0002:00015d40       ??_C@_07CBDBLBPD@raster5@  000000014022fd40     freetype253:raster.obj
 0002:00015d50       tt_cmap13_class_rec        000000014022fd50     freetype253:sfnt.obj
 0002:00015dc0       tt_cmap14_class_rec        000000014022fdc0     freetype253:sfnt.obj
 0002:00015f58       sfnt_module_class          000000014022ff58     freetype253:sfnt.obj
 0002:000163f0       tt_cmap0_class_rec         00000001402303f0     freetype253:sfnt.obj
 0002:00016460       tt_cmap2_class_rec         0000000140230460     freetype253:sfnt.obj
 0002:000164d0       tt_cmap4_class_rec         00000001402304d0     freetype253:sfnt.obj
 0002:00016540       tt_cmap6_class_rec         0000000140230540     freetype253:sfnt.obj
 0002:000165b0       tt_cmap8_class_rec         00000001402305b0     freetype253:sfnt.obj
 0002:00016620       tt_cmap10_class_rec        0000000140230620     freetype253:sfnt.obj
 0002:00016690       tt_cmap12_class_rec        0000000140230690     freetype253:sfnt.obj
 0002:00016700       ft_grays_raster            0000000140230700     freetype253:smooth.obj
 0002:00016760       ft_smooth_renderer_class   0000000140230760     freetype253:smooth.obj
 0002:000167d0       ft_smooth_lcd_renderer_class 00000001402307d0     freetype253:smooth.obj
 0002:00016840       ft_smooth_lcdv_renderer_class 0000000140230840     freetype253:smooth.obj
 0002:000168a8       ??_C@_06INICNAFJ@smooth@   00000001402308a8     freetype253:smooth.obj
 0002:000168b0       ??_C@_0L@KCJBAIJI@smooth?9lcd@ 00000001402308b0     freetype253:smooth.obj
 0002:000168c0       ??_C@_0M@IHBDFEAO@smooth?9lcdv@ 00000001402308c0     freetype253:smooth.obj
 0002:000171a0       bdf_driver_class           00000001402311a0     freetype253:bdf.obj
 0002:00017250       bdf_cmap_class             0000000140231250     freetype253:bdf.obj
 0002:000172e0       ??_C@_0BC@DEIBICAG@AVG_CAPITAL_WIDTH@ 00000001402312e0     freetype253:bdf.obj
 0002:000172f8       ??_C@_0BE@FDPIDJIH@AVG_LOWERCASE_WIDTH@ 00000001402312f8     freetype253:bdf.obj
 0002:00017310       ??_C@_0L@IPPBEDCK@CAP_HEIGHT@ 0000000140231310     freetype253:bdf.obj
 0002:00017320       ??_C@_0BE@KNHMGHPI@CHARSET_COLLECTIONS@ 0000000140231320     freetype253:bdf.obj
 0002:00017338       ??_C@_07JEDAPFNH@COMMENT@  0000000140231338     freetype253:bdf.obj
 0002:00017340       ??_C@_09DJIAAPDG@COPYRIGHT@ 0000000140231340     freetype253:bdf.obj
 0002:00017350       ??_C@_0N@LOGJBDOF@DEFAULT_CHAR@ 0000000140231350     freetype253:bdf.obj
 0002:00017360       ??_C@_0M@LFJMPFGC@DESTINATION@ 0000000140231360     freetype253:bdf.obj
 0002:00017370       ??_C@_0BB@PJMJCLEI@DEVICE_FONT_NAME@ 0000000140231370     freetype253:bdf.obj
 0002:00017388       ??_C@_09GEIPNEKC@END_SPACE@ 0000000140231388     freetype253:bdf.obj
 0002:00017398       ??_C@_09DLOGKOHL@FACE_NAME@ 0000000140231398     freetype253:bdf.obj
 0002:000173a8       ??_C@_0N@LCIIJFB@FIGURE_WIDTH@ 00000001402313a8     freetype253:bdf.obj
 0002:000173b8       ??_C@_04IJMKNFPK@FONT@     00000001402313b8     freetype253:bdf.obj
 0002:000173c0       ??_C@_0BC@LNICJLFI@FONTNAME_REGISTRY@ 00000001402313c0     freetype253:bdf.obj
 0002:000173d8       ??_C@_0M@ECCDLGDC@FONT_ASCENT@ 00000001402313d8     freetype253:bdf.obj
 0002:000173e8       ??_C@_0N@BAIKBLGK@FONT_DESCENT@ 00000001402313e8     freetype253:bdf.obj
 0002:000173f8       ??_C@_07GMNLECKJ@FOUNDRY@  00000001402313f8     freetype253:bdf.obj
 0002:00017400       ??_C@_09IGHCOKHJ@FULL_NAME@ 0000000140231400     freetype253:bdf.obj
 0002:00017410       ??_C@_0N@LHJKBLMB@ITALIC_ANGLE@ 0000000140231410     freetype253:bdf.obj
 0002:00017420       ??_C@_09IDPFHPOD@MAX_SPACE@ 0000000140231420     freetype253:bdf.obj
 0002:00017430       ??_C@_09ICPJOFFH@MIN_SPACE@ 0000000140231430     freetype253:bdf.obj
 0002:00017440       ??_C@_0L@CKCFAFFG@NORM_SPACE@ 0000000140231440     freetype253:bdf.obj
 0002:0001744c       ??_C@_06FMPEGAHJ@NOTICE@   000000014023144c     freetype253:bdf.obj
 0002:00017458       ??_C@_0L@MANNMNIK@QUAD_WIDTH@ 0000000140231458     freetype253:bdf.obj
 0002:00017468       ??_C@_0L@CAMLDNCF@RAW_ASCENT@ 0000000140231468     freetype253:bdf.obj
 0002:00017478       ??_C@_0BC@LNOEENJF@RAW_AVERAGE_WIDTH@ 0000000140231478     freetype253:bdf.obj
 0002:00017490       ??_C@_0BG@PEMOHOIO@RAW_AVG_CAPITAL_WIDTH@ 0000000140231490     freetype253:bdf.obj
 0002:000174a8       ??_C@_0BI@BEKJFFLM@RAW_AVG_LOWERCASE_WIDTH@ 00000001402314a8     freetype253:bdf.obj
 0002:000174c0       ??_C@_0P@PDBKEGFB@RAW_CAP_HEIGHT@ 00000001402314c0     freetype253:bdf.obj
 0002:000174d0       ??_C@_0M@JDDLHGCG@RAW_DESCENT@ 00000001402314d0     freetype253:bdf.obj
 0002:000174e0       ??_C@_0O@FDGFBIGM@RAW_END_SPACE@ 00000001402314e0     freetype253:bdf.obj
 0002:000174f0       ??_C@_0BB@LHIJKBAI@RAW_FIGURE_WIDTH@ 00000001402314f0     freetype253:bdf.obj
 0002:00017508       ??_C@_0O@LEBPLDCN@RAW_MAX_SPACE@ 0000000140231508     freetype253:bdf.obj
 0002:00017518       ??_C@_0O@LFBDCJJJ@RAW_MIN_SPACE@ 0000000140231518     freetype253:bdf.obj
 0002:00017528       ??_C@_0P@FGMOAACN@RAW_NORM_SPACE@ 0000000140231528     freetype253:bdf.obj
 0002:00017538       ??_C@_0P@FBIMICGE@RAW_PIXEL_SIZE@ 0000000140231538     freetype253:bdf.obj
 0002:00017548       ??_C@_0P@OOHCGKOO@RAW_POINT_SIZE@ 0000000140231548     freetype253:bdf.obj
 0002:00017558       ??_C@_0O@HNFKKCGD@RAW_PIXELSIZE@ 0000000140231558     freetype253:bdf.obj
 0002:00017568       ??_C@_0O@FDNDDOFA@RAW_POINTSIZE@ 0000000140231568     freetype253:bdf.obj
 0002:00017578       ??_C@_0P@LMDGMIPB@RAW_QUAD_WIDTH@ 0000000140231578     freetype253:bdf.obj
 0002:00017588       ??_C@_0BD@HHNHPPKD@RAW_SMALL_CAP_SIZE@ 0000000140231588     freetype253:bdf.obj
 0002:000175a0       ??_C@_0BF@DLAIFMIE@RAW_STRIKEOUT_ASCENT@ 00000001402315a0     freetype253:bdf.obj
 0002:000175b8       ??_C@_0BG@DCPBCGDJ@RAW_STRIKEOUT_DESCENT@ 00000001402315b8     freetype253:bdf.obj
 0002:000175d0       ??_C@_0BD@FGAMCDPE@RAW_SUBSCRIPT_SIZE@ 00000001402315d0     freetype253:bdf.obj
 0002:000175e8       ??_C@_0BA@ICOMKGEO@RAW_SUBSCRIPT_X@ 00000001402315e8     freetype253:bdf.obj
 0002:000175f8       ??_C@_0BA@JLPHJHAP@RAW_SUBSCRIPT_Y@ 00000001402315f8     freetype253:bdf.obj
 0002:00017608       ??_C@_0BF@ILCJEECH@RAW_SUPERSCRIPT_SIZE@ 0000000140231608     freetype253:bdf.obj
 0002:00017620       ??_C@_0BC@EMCLOPNI@RAW_SUPERSCRIPT_X@ 0000000140231620     freetype253:bdf.obj
 0002:00017638       ??_C@_0BC@FFDANOJJ@RAW_SUPERSCRIPT_Y@ 0000000140231638     freetype253:bdf.obj
 0002:00017650       ??_C@_0BH@LIHCGIBB@RAW_UNDERLINE_POSITION@ 0000000140231650     freetype253:bdf.obj
 0002:00017668       ??_C@_0BI@OEPMFPAK@RAW_UNDERLINE_THICKNESS@ 0000000140231668     freetype253:bdf.obj
 0002:00017680       ??_C@_0N@LFICGJOL@RAW_X_HEIGHT@ 0000000140231680     freetype253:bdf.obj
 0002:00017690       ??_C@_0BC@JMGAMBDF@RELATIVE_SETWIDTH@ 0000000140231690     freetype253:bdf.obj
 0002:000176a8       ??_C@_0BA@NKHOPHOP@RELATIVE_WEIGHT@ 00000001402316a8     freetype253:bdf.obj
 0002:000176b8       ??_C@_0L@JGAABLGD@RESOLUTION@ 00000001402316b8     freetype253:bdf.obj
 0002:000176c8       ??_C@_0P@CJBLANOF@SMALL_CAP_SIZE@ 00000001402316c8     freetype253:bdf.obj
 0002:000176d8       ??_C@_07JKNGKIOL@SPACING@  00000001402316d8     freetype253:bdf.obj
 0002:000176e0       ??_C@_0BB@MOJIHJPL@STRIKEOUT_ASCENT@ 00000001402316e0     freetype253:bdf.obj
 0002:000176f8       ??_C@_0BC@PCLONKLB@STRIKEOUT_DESCENT@ 00000001402316f8     freetype253:bdf.obj
 0002:00017710       ??_C@_0P@IMANBLC@SUBSCRIPT_SIZE@ 0000000140231710     freetype253:bdf.obj
 0002:00017720       ??_C@_0M@EFEHOFPP@SUBSCRIPT_X@ 0000000140231720     freetype253:bdf.obj
 0002:00017730       ??_C@_0M@FMFMNELO@SUBSCRIPT_Y@ 0000000140231730     freetype253:bdf.obj
 0002:00017740       ??_C@_0BB@HOLJGBFI@SUPERSCRIPT_SIZE@ 0000000140231740     freetype253:bdf.obj
 0002:00017758       ??_C@_0O@FOCAKHKA@SUPERSCRIPT_X@ 0000000140231758     freetype253:bdf.obj
 0002:00017768       ??_C@_0O@EHDLJGOB@SUPERSCRIPT_Y@ 0000000140231768     freetype253:bdf.obj
 0002:00017778       ??_C@_0BD@FLNBCMPP@UNDERLINE_POSITION@ 0000000140231778     freetype253:bdf.obj
 0002:00017790       ??_C@_0BE@KDKNDDDB@UNDERLINE_THICKNESS@ 0000000140231790     freetype253:bdf.obj
 0002:000177a4       ??_C@_06CIAKHCPD@WEIGHT@   00000001402317a4     freetype253:bdf.obj
 0002:000177b0       ??_C@_08IHHFFHAA@X_HEIGHT@ 00000001402317b0     freetype253:bdf.obj
 0002:000177c0       ??_C@_0BG@NJJHMBCE@_MULE_BASELINE_OFFSET@ 00000001402317c0     freetype253:bdf.obj
 0002:000177d8       ??_C@_0BH@EGBLCDE@_MULE_RELATIVE_COMPOSE@ 00000001402317d8     freetype253:bdf.obj
 0002:000177f0       ??_C@_05HCHEPOAH@CHARS@    00000001402317f0     freetype253:bdf.obj
 0002:000177f8       ??_C@_02EOIDJNGE@?5?$CL@   00000001402317f8     freetype253:bdf.obj
 0002:00017800       ??_C@_07MLEKHHFJ@ENDFONT@  0000000140231800     freetype253:bdf.obj
 0002:00017808       ??_C@_07MDHLCACL@ENDCHAR@  0000000140231808     freetype253:bdf.obj
 0002:00017810       ??_C@_09BPKMEANO@STARTCHAR@ 0000000140231810     freetype253:bdf.obj
 0002:00017820       ??_C@_08LEFKDKKN@ENCODING@ 0000000140231820     freetype253:bdf.obj
 0002:0001782c       ??_C@_06HDKFFNNH@SWIDTH@   000000014023182c     freetype253:bdf.obj
 0002:00017834       ??_C@_06NBNMPPJH@DWIDTH@   0000000140231834     freetype253:bdf.obj
 0002:0001783c       ??_C@_03OONKDOKH@BBX@      000000014023183c     freetype253:bdf.obj
 0002:00017840       ??_C@_06PGFOEMDN@BITMAP@   0000000140231840     freetype253:bdf.obj
 0002:00017848       ??_C@_0O@JFDPHGFD@ENDPROPERTIES@ 0000000140231848     freetype253:bdf.obj
 0002:00017858       ??_C@_03OACELNE@?$CFhd@    0000000140231858     freetype253:bdf.obj
 0002:00017860       ??_C@_0BG@NDMEGDOA@_XFREE86_GLYPH_RANGES@ 0000000140231860     freetype253:bdf.obj
 0002:00017878       ??_C@_09BHJNBHKM@STARTFONT@ 0000000140231878     freetype253:bdf.obj
 0002:00017888       ??_C@_0BA@HGECMEMA@STARTPROPERTIES@ 0000000140231888     freetype253:bdf.obj
 0002:00017898       ??_C@_0BA@PIDAKDPC@FONTBOUNDINGBOX@ 0000000140231898     freetype253:bdf.obj
 0002:000178a8       ??_C@_04EMFHLKGI@SIZE@     00000001402318a8     freetype253:bdf.obj
 0002:000178b0       ??_C@_03DOBGHNMK@BDF@      00000001402318b0     freetype253:bdf.obj
 0002:000178c0       __xmm@00000008000000000000000100000001 00000001402318c0     freetype253:bdf.obj
 0002:00018c70       ??_C@_0CI@CGMOPDPD@oversubscribed?5dynamic?5bit?5leng@ 0000000140232c70     freetype253:ftgzip.obj
 0002:00018c98       ??_C@_0CE@LOHAHEGK@incomplete?5dynamic?5bit?5lengths?5@ 0000000140232c98     freetype253:ftgzip.obj
 0002:00018cc0       ??_C@_0CD@GJIDGCKE@oversubscribed?5literal?1length?5t@ 0000000140232cc0     freetype253:ftgzip.obj
 0002:00018ce8       ??_C@_0BP@NEEEJJNA@incomplete?5literal?1length?5tree@ 0000000140232ce8     freetype253:ftgzip.obj
 0002:00018d08       ??_C@_0BN@KBLCDIAI@oversubscribed?5distance?5tree@ 0000000140232d08     freetype253:ftgzip.obj
 0002:00018d28       ??_C@_0BJ@CBCPDPJF@incomplete?5distance?5tree@ 0000000140232d28     freetype253:ftgzip.obj
 0002:00018d48       ??_C@_0CB@KPKKKLFO@empty?5distance?5tree?5with?5length@ 0000000140232d48     freetype253:ftgzip.obj
 0002:00018d70       ??_C@_0BM@FFFLPBBC@invalid?5literal?1length?5code@ 0000000140232d70     freetype253:ftgzip.obj
 0002:00018d90       ??_C@_0BG@LBKINIKP@invalid?5distance?5code@ 0000000140232d90     freetype253:ftgzip.obj
 0002:00018da8       ??_C@_0BD@PJCBIDD@invalid?5block?5type@ 0000000140232da8     freetype253:ftgzip.obj
 0002:00018dc0       ??_C@_0BN@LGAADGOK@invalid?5stored?5block?5lengths@ 0000000140232dc0     freetype253:ftgzip.obj
 0002:00018de0       ??_C@_0CE@GMIGFPBB@too?5many?5length?5or?5distance?5sym@ 0000000140232de0     freetype253:ftgzip.obj
 0002:00018e08       ??_C@_0BK@BMMPFBBH@invalid?5bit?5length?5repeat@ 0000000140232e08     freetype253:ftgzip.obj
 0002:00018e24       ??_C@_05DOIEBMOI@1?41?44@  0000000140232e24     freetype253:ftgzip.obj
 0002:00018e30       ??_C@_0BL@IHKGDAEE@unknown?5compression?5method@ 0000000140232e30     freetype253:ftgzip.obj
 0002:00018e50       ??_C@_0BE@EMOGCLGO@invalid?5window?5size@ 0000000140232e50     freetype253:ftgzip.obj
 0002:00018e68       ??_C@_0BH@LIBMMIGA@incorrect?5header?5check@ 0000000140232e68     freetype253:ftgzip.obj
 0002:00018e80       ??_C@_0BA@MOKMMFOD@need?5dictionary@ 0000000140232e80     freetype253:ftgzip.obj
 0002:00018e90       ??_C@_0BF@MEIGEHBE@incorrect?5data?5check@ 0000000140232e90     freetype253:ftgzip.obj
 0002:00019020       __sz_OpenAL32_dll          0000000140233020     openal32:OpenAL32.dll
 0002:00019038       DETOUR_EXE_RESTORE_GUID    0000000140233038     detours:modules.obj
 0002:00019120       ??_C@_1BK@DBDEIDLH@?$AAK?$AAE?$AAR?$AAN?$AAE?$AAL?$AA3?$AA2?$AA?4?$AAD?$AAL?$AAL@ 0000000140233120     Delayimp:delayhlp.obj
 0002:00019140       ??_C@_0BI@OMNLIJDB@AcquireSRWLockExclusive@ 0000000140233140     Delayimp:delayhlp.obj
 0002:00019158       ??_C@_0BI@HMIEPCNJ@ReleaseSRWLockExclusive@ 0000000140233158     Delayimp:delayhlp.obj
 0002:00019170       __pfnDliNotifyHook2        0000000140233170     Delayimp:delayhk2.obj
 0002:00019178       __pfnDliFailureHook2       0000000140233178     Delayimp:delayhk1.obj
 0002:00019188       ??_7exception@std@@6B@     0000000140233188     libcpmt:cout.obj
 0002:000191a0       ??_7bad_alloc@std@@6B@     00000001402331a0     libcpmt:cout.obj
 0002:000191b8       ??_7bad_array_new_length@std@@6B@ 00000001402331b8     libcpmt:cout.obj
 0002:000191d0       ??_7runtime_error@std@@6B@ 00000001402331d0     libcpmt:cout.obj
 0002:000191e8       ??_7_System_error@std@@6B@ 00000001402331e8     libcpmt:cout.obj
 0002:00019200       ??_7system_error@std@@6B@  0000000140233200     libcpmt:cout.obj
 0002:00019218       ??_7_Iostream_error_category2@std@@6B@ 0000000140233218     libcpmt:cout.obj
 0002:00019250       ??_7bad_cast@std@@6B@      0000000140233250     libcpmt:cout.obj
 0002:00019268       ??_7_Facet_base@std@@6B@   0000000140233268     libcpmt:cout.obj
 0002:00019288       ??_7?$ctype@D@std@@6B@     0000000140233288     libcpmt:cout.obj
 0002:000192e8       ??_7failure@ios_base@std@@6B@ 00000001402332e8     libcpmt:cout.obj
 0002:00019300       ??_7ios_base@std@@6B@      0000000140233300     libcpmt:cout.obj
 0002:00019310       ??_7?$basic_ios@DU?$char_traits@D@std@@@std@@6B@ 0000000140233310     libcpmt:cout.obj
 0002:00019320       ??_7?$basic_ostream@DU?$char_traits@D@std@@@std@@6B@ 0000000140233320     libcpmt:cout.obj
 0002:00019328       ??_8?$basic_ostream@DU?$char_traits@D@std@@@std@@7B@ 0000000140233328     libcpmt:cout.obj
 0002:00019338       ??_7?$basic_streambuf@DU?$char_traits@D@std@@@std@@6B@ 0000000140233338     libcpmt:cout.obj
 0002:000193b8       ??_7?$basic_filebuf@DU?$char_traits@D@std@@@std@@6B@ 00000001402333b8     libcpmt:cout.obj
 0002:00019438       ??_7?$codecvt@DDU_Mbstatet@@@std@@6B@ 0000000140233438     libcpmt:cout.obj
 0002:00019488       ??_C@_0P@GHFPNOJB@bad?5allocation@ 0000000140233488     libcpmt:xthrow.obj
 0002:000194a0       ??_7logic_error@std@@6B@   00000001402334a0     libcpmt:xthrow.obj
 0002:000194b8       ??_7length_error@std@@6B@  00000001402334b8     libcpmt:xthrow.obj
 0002:000194d0       ??_7out_of_range@std@@6B@  00000001402334d0     libcpmt:xthrow.obj
 0002:00019c70       ??_C@_07IPNMCAN@success@   0000000140233c70     libcpmt:syserror.obj
 0002:00019c78       ??_C@_0BN@LKKBCCDB@address?5family?5not?5supported@ 0000000140233c78     libcpmt:syserror.obj
 0002:00019c98       ??_C@_0P@LDMLAFHI@address?5in?5use@ 0000000140233c98     libcpmt:syserror.obj
 0002:00019ca8       ??_C@_0BG@DHPCNBJB@address?5not?5available@ 0000000140233ca8     libcpmt:syserror.obj
 0002:00019cc0       ??_C@_0BC@DFIBIBIL@already?5connected@ 0000000140233cc0     libcpmt:syserror.obj
 0002:00019cd8       ??_C@_0BH@CAKOHOMI@argument?5list?5too?5long@ 0000000140233cd8     libcpmt:syserror.obj
 0002:00019cf0       ??_C@_0BH@CGIMPKIM@argument?5out?5of?5domain@ 0000000140233cf0     libcpmt:syserror.obj
 0002:00019d08       ??_C@_0M@KGHGGJGL@bad?5address@ 0000000140233d08     libcpmt:syserror.obj
 0002:00019d18       ??_C@_0BE@MPJPGCEO@bad?5file?5descriptor@ 0000000140233d18     libcpmt:syserror.obj
 0002:00019d30       ??_C@_0M@PMMIEFCP@bad?5message@ 0000000140233d30     libcpmt:syserror.obj
 0002:00019d40       ??_C@_0M@KPHOFDBE@broken?5pipe@ 0000000140233d40     libcpmt:syserror.obj
 0002:00019d50       ??_C@_0BD@MGNDDEGM@connection?5aborted@ 0000000140233d50     libcpmt:syserror.obj
 0002:00019d68       ??_C@_0BP@KAIHPOGN@connection?5already?5in?5progress@ 0000000140233d68     libcpmt:syserror.obj
 0002:00019d88       ??_C@_0BD@PJLIIJEL@connection?5refused@ 0000000140233d88     libcpmt:syserror.obj
 0002:00019da0       ??_C@_0BB@IECNJNOI@connection?5reset@ 0000000140233da0     libcpmt:syserror.obj
 0002:00019db8       ??_C@_0BC@PPHBOELF@cross?5device?5link@ 0000000140233db8     libcpmt:syserror.obj
 0002:00019dd0       ??_C@_0BN@KDMIFEIP@destination?5address?5required@ 0000000140233dd0     libcpmt:syserror.obj
 0002:00019df0       ??_C@_0BI@NGCEHDD@device?5or?5resource?5busy@ 0000000140233df0     libcpmt:syserror.obj
 0002:00019e08       ??_C@_0BE@JIDOCPHM@directory?5not?5empty@ 0000000140233e08     libcpmt:syserror.obj
 0002:00019e20       ??_C@_0BI@BNCLIGPB@executable?5format?5error@ 0000000140233e20     libcpmt:syserror.obj
 0002:00019e38       ??_C@_0M@MIDIAGJP@file?5exists@ 0000000140233e38     libcpmt:syserror.obj
 0002:00019e48       ??_C@_0P@DNAJLBJK@file?5too?5large@ 0000000140233e48     libcpmt:syserror.obj
 0002:00019e58       ??_C@_0BC@EJHOMAAK@filename?5too?5long@ 0000000140233e58     libcpmt:syserror.obj
 0002:00019e70       ??_C@_0BH@KEFGLDAF@function?5not?5supported@ 0000000140233e70     libcpmt:syserror.obj
 0002:00019e88       ??_C@_0BB@DHFDFGDM@host?5unreachable@ 0000000140233e88     libcpmt:syserror.obj
 0002:00019ea0       ??_C@_0BD@JPHBMONG@identifier?5removed@ 0000000140233ea0     libcpmt:syserror.obj
 0002:00019eb8       ??_C@_0BG@CDNPAGJK@illegal?5byte?5sequence@ 0000000140233eb8     libcpmt:syserror.obj
 0002:00019ed0       ??_C@_0CD@BNPLBMNA@inappropriate?5io?5control?5operat@ 0000000140233ed0     libcpmt:syserror.obj
 0002:00019ef8       ??_C@_0M@EGEKIIMP@interrupted@ 0000000140233ef8     libcpmt:syserror.obj
 0002:00019f08       ??_C@_0BB@FCMFBGOM@invalid?5argument@ 0000000140233f08     libcpmt:syserror.obj
 0002:00019f20       ??_C@_0N@OHAFKDEK@invalid?5seek@ 0000000140233f20     libcpmt:syserror.obj
 0002:00019f30       ??_C@_08GLNPIFBN@io?5error@ 0000000140233f30     libcpmt:syserror.obj
 0002:00019f40       ??_C@_0P@FLLDBIDK@is?5a?5directory@ 0000000140233f40     libcpmt:syserror.obj
 0002:00019f50       ??_C@_0N@IFLPBIOP@message?5size@ 0000000140233f50     libcpmt:syserror.obj
 0002:00019f60       ??_C@_0N@KIIEAAIO@network?5down@ 0000000140233f60     libcpmt:syserror.obj
 0002:00019f70       ??_C@_0O@FNPDBHEE@network?5reset@ 0000000140233f70     libcpmt:syserror.obj
 0002:00019f80       ??_C@_0BE@IFNCKGE@network?5unreachable@ 0000000140233f80     libcpmt:syserror.obj
 0002:00019f98       ??_C@_0BA@PFFCAOFK@no?5buffer?5space@ 0000000140233f98     libcpmt:syserror.obj
 0002:00019fa8       ??_C@_0BB@IEPBLJHK@no?5child?5process@ 0000000140233fa8     libcpmt:syserror.obj
 0002:00019fc0       ??_C@_07PLECNNKG@no?5link@ 0000000140233fc0     libcpmt:syserror.obj
 0002:00019fc8       ??_C@_0BC@NJECKMKE@no?5lock?5available@ 0000000140233fc8     libcpmt:syserror.obj
 0002:00019fe0       ??_C@_0BF@PBGGPKKE@no?5message?5available@ 0000000140233fe0     libcpmt:syserror.obj
 0002:00019ff8       ??_C@_0L@EDOLMPAK@no?5message@ 0000000140233ff8     libcpmt:syserror.obj
 0002:0001a008       ??_C@_0BD@EAMBFIDF@no?5protocol?5option@ 0000000140234008     libcpmt:syserror.obj
 0002:0001a020       ??_C@_0BD@IJDJKDEA@no?5space?5on?5device@ 0000000140234020     libcpmt:syserror.obj
 0002:0001a038       ??_C@_0BE@MKFDAFMP@no?5stream?5resources@ 0000000140234038     libcpmt:syserror.obj
 0002:0001a050       ??_C@_0BK@IMCPHCBI@no?5such?5device?5or?5address@ 0000000140234050     libcpmt:syserror.obj
 0002:0001a070       ??_C@_0P@FDINDDOK@no?5such?5device@ 0000000140234070     libcpmt:syserror.obj
 0002:0001a080       ??_C@_0BK@NDOCBPGE@no?5such?5file?5or?5directory@ 0000000140234080     libcpmt:syserror.obj
 0002:0001a0a0       ??_C@_0BA@ENLPPKBN@no?5such?5process@ 00000001402340a0     libcpmt:syserror.obj
 0002:0001a0b0       ??_C@_0BA@DOCPFFJG@not?5a?5directory@ 00000001402340b0     libcpmt:syserror.obj
 0002:0001a0c0       ??_C@_0N@POEIPGGF@not?5a?5socket@ 00000001402340c0     libcpmt:syserror.obj
 0002:0001a0d0       ??_C@_0N@LGAPMMPI@not?5a?5stream@ 00000001402340d0     libcpmt:syserror.obj
 0002:0001a0e0       ??_C@_0O@GLMIBBEG@not?5connected@ 00000001402340e0     libcpmt:syserror.obj
 0002:0001a0f0       ??_C@_0BC@ENOOLCNF@not?5enough?5memory@ 00000001402340f0     libcpmt:syserror.obj
 0002:0001a108       ??_C@_0O@NHEDABJP@not?5supported@ 0000000140234108     libcpmt:syserror.obj
 0002:0001a118       ??_C@_0BD@MOLBPMEA@operation?5canceled@ 0000000140234118     libcpmt:syserror.obj
 0002:0001a130       ??_C@_0BG@KDKHOPCO@operation?5in?5progress@ 0000000140234130     libcpmt:syserror.obj
 0002:0001a148       ??_C@_0BI@OHIEJAAB@operation?5not?5permitted@ 0000000140234148     libcpmt:syserror.obj
 0002:0001a160       ??_C@_0BI@LNEGIFLN@operation?5not?5supported@ 0000000140234160     libcpmt:syserror.obj
 0002:0001a178       ??_C@_0BG@OEMDKMEE@operation?5would?5block@ 0000000140234178     libcpmt:syserror.obj
 0002:0001a190       ??_C@_0L@BLPOFLNJ@owner?5dead@ 0000000140234190     libcpmt:syserror.obj
 0002:0001a1a0       ??_C@_0BC@CIJDGCDI@permission?5denied@ 00000001402341a0     libcpmt:syserror.obj
 0002:0001a1b8       ??_C@_0P@FNPOCJBE@protocol?5error@ 00000001402341b8     libcpmt:syserror.obj
 0002:0001a1c8       ??_C@_0BH@JPPPLHJB@protocol?5not?5supported@ 00000001402341c8     libcpmt:syserror.obj
 0002:0001a1e0       ??_C@_0BG@EICBIHDP@read?5only?5file?5system@ 00000001402341e0     libcpmt:syserror.obj
 0002:0001a1f8       ??_C@_0BO@BJBOMOEJ@resource?5deadlock?5would?5occur@ 00000001402341f8     libcpmt:syserror.obj
 0002:0001a218       ??_C@_0BP@LKNGHENJ@resource?5unavailable?5try?5again@ 0000000140234218     libcpmt:syserror.obj
 0002:0001a238       ??_C@_0BE@GOIPJJHG@result?5out?5of?5range@ 0000000140234238     libcpmt:syserror.obj
 0002:0001a250       ??_C@_0BG@MPLKFPAE@state?5not?5recoverable@ 0000000140234250     libcpmt:syserror.obj
 0002:0001a268       ??_C@_0P@DIIFGFCG@stream?5timeout@ 0000000140234268     libcpmt:syserror.obj
 0002:0001a278       ??_C@_0P@IPFDMIFL@text?5file?5busy@ 0000000140234278     libcpmt:syserror.obj
 0002:0001a288       ??_C@_09KJPPMAOI@timed?5out@ 0000000140234288     libcpmt:syserror.obj
 0002:0001a298       ??_C@_0BO@HACHBEKI@too?5many?5files?5open?5in?5system@ 0000000140234298     libcpmt:syserror.obj
 0002:0001a2b8       ??_C@_0BE@GHAFMPAH@too?5many?5files?5open@ 00000001402342b8     libcpmt:syserror.obj
 0002:0001a2d0       ??_C@_0P@HCOMKFCC@too?5many?5links@ 00000001402342d0     libcpmt:syserror.obj
 0002:0001a2e0       ??_C@_0BO@EFGOJEF@too?5many?5symbolic?5link?5levels@ 00000001402342e0     libcpmt:syserror.obj
 0002:0001a300       ??_C@_0BA@KGKGOOJA@value?5too?5large@ 0000000140234300     libcpmt:syserror.obj
 0002:0001a310       ??_C@_0BE@MIEJDDNH@wrong?5protocol?5type@ 0000000140234310     libcpmt:syserror.obj
 0002:0001a328       ??_C@_0O@BFJCFAAK@unknown?5error@ 0000000140234328     libcpmt:syserror.obj
 0002:0001a340       ??_7_Locimp@locale@std@@6B@ 0000000140234340     libcpmt:locale0.obj
 0002:0001a358       ?_BADOFF@std@@3_JB         0000000140234358     libcpmt:ios.obj
 0002:0001a408       ??_C@_01KDCPPGHE@r@        0000000140234408     libcpmt:fiopen.obj
 0002:0001a40c       ??_C@_01MCMALHOG@a@        000000014023440c     libcpmt:fiopen.obj
 0002:0001a410       ??_C@_02CBLLGHLK@r?$CL@    0000000140234410     libcpmt:fiopen.obj
 0002:0001a414       ??_C@_02CHHAKFFB@w?$CL@    0000000140234414     libcpmt:fiopen.obj
 0002:0001a418       ??_C@_02DPNLHKJD@a?$CL@    0000000140234418     libcpmt:fiopen.obj
 0002:0001a41c       ??_C@_03HMFOOINA@r?$CLb@   000000014023441c     libcpmt:fiopen.obj
 0002:0001a420       ??_C@_03ELIABIOC@w?$CLb@   0000000140234420     libcpmt:fiopen.obj
 0002:0001a424       ??_C@_03DOPCBAKB@a?$CLb@   0000000140234424     libcpmt:fiopen.obj
 0002:0001a428       ??_C@_02LGOGKLMG@wx@       0000000140234428     libcpmt:fiopen.obj
 0002:0001a42c       ??_C@_03PLKNOCDJ@w?$CLx@   000000014023442c     libcpmt:fiopen.obj
 0002:0001a430       ??_C@_03IEOGFEHG@wbx@      0000000140234430     libcpmt:fiopen.obj
 0002:0001a434       ??_C@_04KJKJPALC@w?$CLbx@  0000000140234434     libcpmt:fiopen.obj
 0002:0001a5e8       ??_7type_info@@6B@         00000001402345e8     MSVCRT:std_type_info_static.obj
 0002:0001a600       _load_config_used          0000000140234600     MSVCRT:loadcfg.obj
 0002:0001a740       ??_C@_0BJ@HFNMHALN@Out?5of?5memory?5?9?5aborting@ 0000000140234740     SDL2Main:SDL_windows_main.obj
 0002:0001a760       ??_C@_0M@HFFOIJBL@Fatal?5Error@ 0000000140234760     SDL2Main:SDL_windows_main.obj
 0002:0001a76c       _Asan_string_should_annotate 000000014023476c     libcpmt:asan_noop.obj
 0002:0001a76c       _Asan_string_should_annotate_default 000000014023476c     libcpmt:asan_noop.obj
 0002:0001a76d       _Asan_vector_should_annotate_default 000000014023476d     libcpmt:asan_noop.obj
 0002:0001a770       ??_C@_1MG@OMABOLKC@?$AAD?$AA?3?$AA?2?$AAs?$AAo?$AAu?$AAr?$AAc?$AAe?$AAs?$AAd?$AAk?$AA?2?$AAp?$AAa@ 0000000140234770     cbitset.obj
 0002:0001a838       ??_C@_04HDOCAJNK@?$CFs?$CFs@ 0000000140234838     cbitset.obj
 0002:0001a840       ??_C@_1BK@MJPHNBOB@?$AA?$CG?$AAl?$AAh?$AAs?$AA?5?$AA?$CB?$AA?$DN?$AA?5?$AA?$CG?$AAr?$AAh?$AAs@ 0000000140234840     cbitset.obj
 0002:0001a860       ??_C@_1ME@LIHLPJLK@?$AAD?$AA?3?$AA?2?$AAs?$AAo?$AAu?$AAr?$AAc?$AAe?$AAs?$AAd?$AAk?$AA?2?$AAp?$AAa@ 0000000140234860     cbitset.obj
 0002:0001a928       ??_C@_1CA@JPJGFIBD@?$AAp?$AAs?$AAr?$AAc?$AA?5?$AA?$CB?$AA?$DN?$AA?5?$AAn?$AAu?$AAl?$AAl?$AAp?$AAt?$AAr@ 0000000140234928     cbitset.obj
 0002:0001a948       ??_C@_1CC@NJLGPCEP@?$AAp?$AAd?$AAe?$AAs?$AAt?$AA?5?$AA?$CB?$AA?$DN?$AA?5?$AAn?$AAu?$AAl?$AAl?$AAp?$AAt@ 0000000140234948     cbitset.obj
 0002:0001a970       ??_C@_1CC@DIBAPLEO@?$AAp?$AAs?$AAt?$AAr?$AA1?$AA?5?$AA?$CB?$AA?$DN?$AA?5?$AAn?$AAu?$AAl?$AAl?$AAp?$AAt@ 0000000140234970     cbitset.obj
 0002:0001a998       ??_C@_1CC@MKEHBGLG@?$AAp?$AAs?$AAt?$AAr?$AA2?$AA?5?$AA?$CB?$AA?$DN?$AA?5?$AAn?$AAu?$AAl?$AAl?$AAp?$AAt@ 0000000140234998     cbitset.obj
 0002:0001a9c0       ??_C@_1CA@NHGFKLLC@?$AAp?$AAs?$AAt?$AAr?$AA?5?$AA?$CB?$AA?$DN?$AA?5?$AAn?$AAu?$AAl?$AAl?$AAp?$AAt?$AAr@ 00000001402349c0     cbitset.obj
 0002:0001a9e0       ??_C@_1CG@CMMINFPP@?$AAp?$AAs?$AAu?$AAb?$AAs?$AAt?$AAr?$AA?5?$AA?$CB?$AA?$DN?$AA?5?$AAn?$AAu?$AAl?$AAl@ 00000001402349e0     cbitset.obj
 0002:0001aa10       ??_C@_1LI@KIDALFOF@?$AAD?$AA?3?$AA?2?$AAs?$AAo?$AAu?$AAr?$AAc?$AAe?$AAs?$AAd?$AAk?$AA?2?$AAp?$AAa@ 0000000140234a10     cbuffer.obj
 0002:0001aac8       ??_C@_1CM@ECLBOOCF@?$AAm?$AA_?$AAb?$AAu?$AAf?$AAf?$AAe?$AAr?$AAA?$AAl?$AAl?$AAo?$AAc?$AAS?$AAi@ 0000000140234ac8     cbuffer.obj
 0002:0001ab00       ??_C@_1ME@FNPHJFBE@?$AAD?$AA?3?$AA?2?$AAs?$AAo?$AAu?$AAr?$AAc?$AAe?$AAs?$AAd?$AAk?$AA?2?$AAp?$AAa@ 0000000140234b00     cbuffer.obj
 0002:0001abc8       ??_C@_1CA@FLAFCDEE@?$AAn?$AA?5?$AA?$DM?$AA?5?$AAm?$AA_?$AAa?$AAr?$AAr?$AAa?$AAy?$AAS?$AAi?$AAz?$AAe@ 0000000140234bc8     cbuffer.obj
 0002:0001abf0       ??_C@_1ME@EJDDDIAD@?$AAD?$AA?3?$AA?2?$AAs?$AAo?$AAu?$AAr?$AAc?$AAe?$AAs?$AAd?$AAk?$AA?2?$AAp?$AAa@ 0000000140234bf0     common.obj
 0002:0001acb8       ??_C@_1M@DNEEJBBN@?$AAn?$AA?5?$AA?$DM?$AA?5?$AA3@ 0000000140234cb8     common.obj
 0002:0001acc8       ??_C@_07DLHCIBDH@default@  0000000140234cc8     common.obj
 0002:0001acd0       ??_C@_0M@EHAPGNAC@?$CFY?9?$CFm?9?$CFd?5?$CFX@ 0000000140234cd0     common.obj
 0002:0001acdc       ??_C@_01HCONENDN@?$HL@     0000000140234cdc     common.obj
 0002:0001ace0       ??_C@_01CELHOKLL@?$HN@     0000000140234ce0     common.obj
 0002:0001ace8       ??_C@_09CNJINBGN@classname@ 0000000140234ce8     common.obj
 0002:0001acf8       ??_C@_0L@BIFLFHPF@worldspawn@ 0000000140234cf8     common.obj
 0002:0001ad04       ??_C@_03GANHLHHC@wad@      0000000140234d04     common.obj
 0002:0001ad08       ??_C@_01ICJEACDI@?$DL@     0000000140234d08     common.obj
 0002:0001ad10       ??_C@_1CG@IBCBLMCJ@?$AAs?$AAi?$AAz?$AAe?$AA?5?$AA?$DO?$AA?5?$AAm?$AA_?$AAa?$AAr?$AAr?$AAa?$AAy?$AAS@ 0000000140234d10     common.obj
 0002:0001ad4c       ?BASICDRAW_CACHE_SIZE@CBasicDraw@@2IB 0000000140234d4c     r_basicdraw.obj
 0002:0001ad50       ?DEFAULT_FOLDER@CSentencesFile@@2QBDB 0000000140234d50     sentencesfile.obj
 0002:0001ad58       ?DEFAULT_MATERIAL_TYPE@CStepSound@@2QBDB 0000000140234d58     stepsound.obj
 0002:0001ad60       ?CONCRETE_MATERIAL_TYPE@CStepSound@@2QBDB 0000000140234d60     stepsound.obj
 0002:0001ad70       ?DEFAULT_FOOTSTEP_TYPE@CStepSound@@2QBDB 0000000140234d70     stepsound.obj
 0002:0001ad84       ?ANISOTROPY_OFF_VALUE@CTextureManager@@2IB 0000000140234d84     texturemanager.obj
 0002:0001afe0       ?g_pEAXMultipliers@CSoundEngine@@0QBMB 0000000140234fe0     cl_snd.obj
 0002:0001b068       ?SOUNDENGINE_CONFIG_GRP_NAME@CSoundEngine@@2QBDB 0000000140235068     cl_snd.obj
 0002:0001b080       ?g_pEAXEffects@CSoundEngine@@0QBUEFXEAXREVERBPROPERTIES@@B 0000000140235080     cl_snd.obj
 0002:0001bd08       ?SOUNDENGINE_HRTF_SETTING_NAME@CSoundEngine@@2QBDB 0000000140235d08     cl_snd.obj
 0002:0001bd48       ?TEXTBOX_TEXTSCHEMA_NAME@CConsole@@2QBDB 0000000140235d48     console.obj
 0002:0001bd58       ?TOGGLECONSOLE_CMD_NAME@CConsole@@2QBDB 0000000140235d58     console.obj
 0002:0001bdb0       ?MSG_BUFFER_ALLOC_SIZE@CNetworking@@2IB 0000000140235db0     networking.obj
 0002:0001bdb4       ?MSG_DATA_BUFFER_ALLOC_SIZE@CNetworking@@2IB 0000000140235db4     networking.obj
 0002:0001bdf0       ?g_cubemapResolutions@CCubemapManager@@0PAY01IA 0000000140235df0     r_cubemaps.obj
 0002:0001be48       ?DECAL_TEXTURE_PATH@CDecalManager@@2QBDB 0000000140235e48     r_decals.obj
 0002:0001c030       ?FLARE_HALO_DIST_SCALES@CLensFlareRenderer@@2QBMB 0000000140236030     r_lensflare.obj
 0002:0001c050       ?FLARE_HALO_ALPHAS@CLensFlareRenderer@@2QBMB 0000000140236050     r_lensflare.obj
 0002:0001c070       ?SUNGLARE_TEXTURE_PATH@CLensFlareRenderer@@2QBDB 0000000140236070     r_lensflare.obj
 0002:0001c088       ?FLARE_TEXTURE_PATH@CLensFlareRenderer@@2QBDB 0000000140236088     r_lensflare.obj
 0002:0001c0a0       ?FLARE_HALO_SCALES@CLensFlareRenderer@@2QBMB 00000001402360a0     r_lensflare.obj
 0002:0001c0c0       ?FLARE_HALO_TEXTURES@CLensFlareRenderer@@2QBHB 00000001402360c0     r_lensflare.obj
 0002:0001c100       ?SKY_TEXTURE_POSTFIXES@CSkyRenderer@@2PAPEBDA 0000000140236100     r_sky.obj
 0002:0001c130       ?SKYBOX_TEXTURE_DIR@CSkyRenderer@@2QBDB 0000000140236130     r_sky.obj
 0002:0001c190       ?TEXTURE_MATERIAL_ASSOCIATION_FILE_PATH@CWADTextureResource@@0QBDB 0000000140236190     r_wadtextures.obj
 0002:0001c1f0       ?g_monitorResolutions@@3PAY01IA 00000001402361f0     r_monitor.obj
 0002:0001c280       ?PARTICLE_RAMP3@CLegacyParticles@@2QBIB 0000000140236280     r_legacyparticles.obj
 0002:0001c2a0       ?PARTICLE_RAMP2@CLegacyParticles@@2QBIB 00000001402362a0     r_legacyparticles.obj
 0002:0001c2c0       ?PARTICLE_RAMP1@CLegacyParticles@@2QBIB 00000001402362c0     r_legacyparticles.obj
 0002:0001c2e0       ?PALETTE_FILEPATH@CLegacyParticles@@2QBDB 00000001402362e0     r_legacyparticles.obj
 0002:0001c300       ?PARTICLE_TEXTURE_FILEPATH@CLegacyParticles@@2QBDB 0000000140236300     r_legacyparticles.obj
 0002:0001c3e0       ?EYEGLINT_TEXTURE_PATH@CVBMRenderer@@2QBDB 00000001402363e0     r_vbm.obj
 0002:0001c410       ?WATER_SCRIPT_BASEPATH@CWaterShader@@2QBDB 0000000140236410     r_water.obj
 0002:0001c420       ?DEFAULT_WATER_SCRIPT_FILENAME@CWaterShader@@2QBDB 0000000140236420     r_water.obj
 0002:0001c440       ?WATER_NORMALMAP_PATH@CWaterShader@@2QBDB 0000000140236440     r_water.obj
 0002:0001c5a0       ?SCHEMA_FOLDER_PATH@CTextSchemas@@2QBDB 00000001402365a0     textschemas.obj
 0002:0001c5c0       ?SAVE_DIR_PATH@CSaveRestore@@2QBDB 00000001402365c0     saverestore.obj
 0002:0001c5fc       ?LIGHTMAP_WIDTH@CBSPRenderer@@2IB 00000001402365fc     r_bsp.obj
 0002:0001c608       ?MENU_BUTTON_TEXT_SCHEMA@CMenu@@2QBDB 0000000140236608     r_menu.obj
 0002:0001c614       ?MENU_BASE_WIDTH@CMenu@@2HB 0000000140236614     r_menu.obj
 0002:0001c618       ?MENU_MUSIC_FILE_INGAME@CMenu@@2QBDB 0000000140236618     r_menu.obj
 0002:0001c638       ?MENU_HOVER_SOUND@CMenu@@2QBDB 0000000140236638     r_menu.obj
 0002:0001c650       ?MENU_MUSIC_FILE_STARTUP@CMenu@@2QBDB 0000000140236650     r_menu.obj
 0002:0001c668       ?MENU_CLICK_SOUND@CMenu@@2QBDB 0000000140236668     r_menu.obj
 0002:0001c6f8       ?USER_CONFIG_FILENAME@CConfig@@2QBDB 00000001402366f8     config.obj
 0002:0001c710       ?SYSTEM_CONFIG_FILENAME@CConfig@@2QBDB 0000000140236710     config.obj
 0002:0001c720       ?USER_CONFIG_GRP_NAME@CConfig@@2QBDB 0000000140236720     config.obj
 0002:0001c730       ?KEYNAMES_FILE_PATH@CInput@@0QBDB 0000000140236730     input.obj
 0002:0001c82c       ?FONT_DIRECTORY@CText@@0QBDB 000000014023682c     r_text.obj
 0002:0001c870       ?DEFAULT_TEXT_SCHEMA@CUIManager@@2QBDB 0000000140236870     uimanager.obj
 0002:0001c898       ?MIN_SCREEN_HEIGHT@CWindow@@2IB 0000000140236898     window.obj
 0002:0001c8c0       ?EXECUTE_BUTTON_OBJ_NAME@CUIConsoleWindow@@0QBDB 00000001402368c0     uiconsolewindow.obj
 0002:0001c8d0       ?INPUT_TAB_OBJ_NAME@CUIConsoleWindow@@0QBDB 00000001402368d0     uiconsolewindow.obj
 0002:0001c8e0       ?WINDOW_OBJ_NAME@CUIConsoleWindow@@0QBDB 00000001402368e0     uiconsolewindow.obj
 0002:0001c8f0       ?HISTORY_TAB_OBJ_NAME@CUIConsoleWindow@@0QBDB 00000001402368f0     uiconsolewindow.obj
 0002:0001c900       ?WINDOW_DESC_FILE@CUIConsoleWindow@@0QBDB 0000000140236900     uiconsolewindow.obj
 0002:0001c920       ?CANCEL_BUTTON_OBJ_NAME@CUIDownloadWindow@@2QBDB 0000000140236920     uidownloadwindow.obj
 0002:0001c930       ?FILE_DOWNLOAD_PROGRESSBAR_OBJ_NAME@CUIDownloadWindow@@2QBDB 0000000140236930     uidownloadwindow.obj
 0002:0001c948       ?WINDOW_OBJ_NAME@CUIDownloadWindow@@2QBDB 0000000140236948     uidownloadwindow.obj
 0002:0001c958       ?TOTAL_PROGRESS_PROGRESSBAR_OBJ_NAME@CUIDownloadWindow@@2QBDB 0000000140236958     uidownloadwindow.obj
 0002:0001c970       ?TOTAL_PROGRESS_LABEL_OBJ_NAME@CUIDownloadWindow@@2QBDB 0000000140236970     uidownloadwindow.obj
 0002:0001c988       ?FILE_DOWNLOAD_LABEL_OBJ_NAME@CUIDownloadWindow@@2QBDB 0000000140236988     uidownloadwindow.obj
 0002:0001c9a0       ?WINDOW_DESC_FILE@CUIDownloadWindow@@2QBDB 00000001402369a0     uidownloadwindow.obj
 0002:0001c9c0       ?WINDOW_DESC_FILE@CUIExitWindow@@2QBDB 00000001402369c0     uiexitwindow.obj
 0002:0001c9d0       ?QUIT_TEXT_OBJ_NAME@CUIExitWindow@@2QBDB 00000001402369d0     uiexitwindow.obj
 0002:0001c9e0       ?CANCEL_BUTTON_OBJ_NAME@CUIExitWindow@@2QBDB 00000001402369e0     uiexitwindow.obj
 0002:0001c9f0       ?SAVE_AND_QUIT_BUTTON_OBJ_NAME@CUIExitWindow@@2QBDB 00000001402369f0     uiexitwindow.obj
 0002:0001ca08       ?INGAME_QUIT_TEXT_OBJ_NAME@CUIExitWindow@@2QBDB 0000000140236a08     uiexitwindow.obj
 0002:0001ca18       ?QUIT_BUTTON_OBJ_NAME@CUIExitWindow@@2QBDB 0000000140236a18     uiexitwindow.obj
 0002:0001ca28       ?WINDOW_OBJ_NAME@CUIExitWindow@@2QBDB 0000000140236a28     uiexitwindow.obj
 0002:0001ca40       ?WINDOW_OBJ_NAME@CUINewGameWindow@@2QBDB 0000000140236a40     uinewgamewindow.obj
 0002:0001ca50       ?NEW_GAME_NORMAL_BUTTON_OBJ_NAME@CUINewGameWindow@@2QBDB 0000000140236a50     uinewgamewindow.obj
 0002:0001ca68       ?NEW_GAME_EASY_BUTTON_OBJ_NAME@CUINewGameWindow@@2QBDB 0000000140236a68     uinewgamewindow.obj
 0002:0001ca80       ?WINDOW_DESC_FILE@CUINewGameWindow@@2QBDB 0000000140236a80     uinewgamewindow.obj
 0002:0001ca98       ?CANCEL_BUTTON_OBJ_NAME@CUINewGameWindow@@2QBDB 0000000140236a98     uinewgamewindow.obj
 0002:0001caa8       ?NEW_GAME_HARD_BUTTON_OBJ_NAME@CUINewGameWindow@@2QBDB 0000000140236aa8     uinewgamewindow.obj
 0002:0001cac8       ?WINDOW_DESC_FILE@CUISaveLoadWindow@@2QBDB 0000000140236ac8     uisaveloadwindow.obj
 0002:0001cae0       ?WINDOW_OBJ_NAME@CUISaveLoadWindow@@2QBDB 0000000140236ae0     uisaveloadwindow.obj
 0002:0001caf0       ?SAVE_GAME_BUTTON_OBJ_NAME@CUISaveLoadWindow@@2QBDB 0000000140236af0     uisaveloadwindow.obj
 0002:0001cb00       ?LOAD_GAME_BUTTON_OBJ_NAME@CUISaveLoadWindow@@2QBDB 0000000140236b00     uisaveloadwindow.obj
 0002:0001cb10       ?SAVELIST_OBJ_NAME@CUISaveLoadWindow@@2QBDB 0000000140236b10     uisaveloadwindow.obj
 0002:0001cb20       ?DELETE_SAVE_BUTTON_OBJ_NAME@CUISaveLoadWindow@@2QBDB 0000000140236b20     uisaveloadwindow.obj
 0002:0001cb50       ?CANCEL_BUTTON_OBJ_NAME@CUISaveLoadWindow@@2QBDB 0000000140236b50     uisaveloadwindow.obj
 0002:0001cb70       ?WINDOW_OBJ_NAME@CUISettingsWindow@@2QBDB 0000000140236b70     uisettingswindow.obj
 0002:0001cb80       ?AUDIO_TAB_SUBTITLES_LABEL_OBJ_NAME@CUISettingsWindow@@2QBDB 0000000140236b80     uisettingswindow.obj
 0002:0001cb90       ?VIDEOTAB_DISPLAY_DEVICE_LABEL_OBJ_NAME@CUISettingsWindow@@2QBDB 0000000140236b90     uisettingswindow.obj
 0002:0001cba8       ?MOUSE_TAB_FILTER_MOUSE_BOX_OBJ_NAME@CUISettingsWindow@@2QBDB 0000000140236ba8     uisettingswindow.obj
 0002:0001cbc0       ?APPLY_BUTTON_OBJ_NAME@CUISettingsWindow@@2QBDB 0000000140236bc0     uisettingswindow.obj
 0002:0001cbd0       ?BINDS_FILE_PATH@CUISettingsWindow@@2QBDB 0000000140236bd0     uisettingswindow.obj
 0002:0001cbe8       ?AUDIO_TAB_OCCLUSION_TICKBOX_OBJ_NAME@CUISettingsWindow@@2QBDB 0000000140236be8     uisettingswindow.obj
 0002:0001cc10       ?AUDIO_TAB_GAME_VOLUME_SLIDER_OBJ_NAME@CUISettingsWindow@@2QBDB 0000000140236c10     uisettingswindow.obj
 0002:0001cc38       ?MOUSE_TAB_SENSITIVITY_TAB_OBJ_NAME@CUISettingsWindow@@2QBDB 0000000140236c38     uisettingswindow.obj
 0002:0001cc50       ?VIDEOTAB_RESOLUTION_LABEL_OBJ_NAME@CUISettingsWindow@@2QBDB 0000000140236c50     uisettingswindow.obj
 0002:0001cc68       ?AUDIO_TAB_HRTF_TICKBOX_OBJ_NAME@CUISettingsWindow@@2QBDB 0000000140236c68     uisettingswindow.obj
 0002:0001cc78       ?MOUSE_TAB_AUTOAIM_LABEL_OBJ_NAME@CUISettingsWindow@@2QBDB 0000000140236c78     uisettingswindow.obj
 0002:0001cc88       ?GAMEPLAY_TAB_VIEWROLL_LABEL_OBJ_NAME@CUISettingsWindow@@2QBDB 0000000140236c88     uisettingswindow.obj
 0002:0001cc98       ?GAMEPLAY_TAB_LIST_OBJ_NAME@CUISettingsWindow@@2QBDB 0000000140236c98     uisettingswindow.obj
 0002:0001ccb8       ?AUDIO_TAB_HRTF_LABEL_OBJ_NAME@CUISettingsWindow@@2QBDB 0000000140236cb8     uisettingswindow.obj
 0002:0001ccc8       ?CANCEL_BUTTON_OBJ_NAME@CUISettingsWindow@@2QBDB 0000000140236cc8     uisettingswindow.obj
 0002:0001ccd8       ?SCROLLSURFACE_OPTION_LABEL_OBJ_NAME@CUISettingsWindow@@2QBDB 0000000140236cd8     uisettingswindow.obj
 0002:0001ccf8       ?AUDIO_TAB_GAME_VOLUME_LABEL_OBJ_NAME@CUISettingsWindow@@2QBDB 0000000140236cf8     uisettingswindow.obj
 0002:0001cd08       ?VIDEOTAB_ANISOTROPY_LABEL_OBJ_NAME@CUISettingsWindow@@2QBDB 0000000140236d08     uisettingswindow.obj
 0002:0001cd18       ?MOUSE_TAB_FILTER_FRAMES_TEXT_OBJ_NAME@CUISettingsWindow@@2QBDB 0000000140236d18     uisettingswindow.obj
 0002:0001cd30       ?GAMEPLAY_DESC_FILE@CUISettingsWindow@@2QBDB 0000000140236d30     uisettingswindow.obj
 0002:0001cd40       ?VIDEOTAB_DISPLAY_RESOLUTION_LIST_OBJ_NAME@CUISettingsWindow@@2QBDB 0000000140236d40     uisettingswindow.obj
 0002:0001cd68       ?MOUSE_TAB_FILTER_FRAMES_TAB_OBJ_NAME@CUISettingsWindow@@2QBDB 0000000140236d68     uisettingswindow.obj
 0002:0001cd80       ?MOUSE_TAB_AUTOAIM_BOX_OBJ_NAME@CUISettingsWindow@@2QBDB 0000000140236d80     uisettingswindow.obj
 0002:0001cd90       ?GAMEPLAY_TAB_VIEWROLL_TAB_OBJ_NAME@CUISettingsWindow@@2QBDB 0000000140236d90     uisettingswindow.obj
 0002:0001cda0       ?GAMEPLAY_TAB_VIEWBOB_LABEL_OBJ_NAME@CUISettingsWindow@@2QBDB 0000000140236da0     uisettingswindow.obj
 0002:0001cdb8       ?ADVANCED_DESC_FILE@CUISettingsWindow@@2QBDB 0000000140236db8     uisettingswindow.obj
 0002:0001cdc8       ?BINDSTAB_RESTORE_DEFAULTS_BTN_OBJ_NAME@CUISettingsWindow@@2QBDB 0000000140236dc8     uisettingswindow.obj
 0002:0001cde0       ?GAMEPLAY_TAB_VIEWBOB_TAB_OBJ_NAME@CUISettingsWindow@@2QBDB 0000000140236de0     uisettingswindow.obj
 0002:0001cdf0       ?AUDIO_TAB_SUBTITLES_TICKBOX_OBJ_NAME@CUISettingsWindow@@2QBDB 0000000140236df0     uisettingswindow.obj
 0002:0001ce08       ?MOUSE_TAB_SENSITIVITY_TEXT_OBJ_NAME@CUISettingsWindow@@2QBDB 0000000140236e08     uisettingswindow.obj
 0002:0001ce20       ?MOUSE_TAB_SENSITIVITY_LABEL_OBJ_NAME@CUISettingsWindow@@2QBDB 0000000140236e20     uisettingswindow.obj
 0002:0001ce38       ?MOUSE_TAB_FILTER_FRAMES_SLIDER_OBJ_NAME@CUISettingsWindow@@2QBDB 0000000140236e38     uisettingswindow.obj
 0002:0001ce50       ?MOUSE_TAB_REVERSE_MOUSE_LABEL_OBJ_NAME@CUISettingsWindow@@2QBDB 0000000140236e50     uisettingswindow.obj
 0002:0001ce68       ?GAMEPLAY_TAB_VIEWROLL_TEXT_OBJ_NAME@CUISettingsWindow@@2QBDB 0000000140236e68     uisettingswindow.obj
 0002:0001ce78       ?BINDSTAB_CLEAR_BTN_OBJ_NAME@CUISettingsWindow@@2QBDB 0000000140236e78     uisettingswindow.obj
 0002:0001ce90       ?VIDEOTAB_DISPLAY_WINDOWMODE_LIST_OBJ_NAME@CUISettingsWindow@@2QBDB 0000000140236e90     uisettingswindow.obj
 0002:0001cea0       ?GAMEPLAY_TAB_VIEWROLL_SLIDER_OBJ_NAME@CUISettingsWindow@@2QBDB 0000000140236ea0     uisettingswindow.obj
 0002:0001ceb0       ?AUDIO_TAB_MASTER_VOLUME_LABEL_OBJ_NAME@CUISettingsWindow@@2QBDB 0000000140236eb0     uisettingswindow.obj
 0002:0001ced8       ?GAMEPLAY_TAB_VIEWBOB_TEXT_OBJ_NAME@CUISettingsWindow@@2QBDB 0000000140236ed8     uisettingswindow.obj
 0002:0001cee8       ?BINDSTAB_LIST_OBJ_NAME@CUISettingsWindow@@2QBDB 0000000140236ee8     uisettingswindow.obj
 0002:0001cef8       ?VIDEOTAB_VERTICAL_SYNC_LABEL_OBJ_NAME@CUISettingsWindow@@2QBDB 0000000140236ef8     uisettingswindow.obj
 0002:0001cf20       ?MOUSE_TAB_REVERSE_MOUSE_BOX_OBJ_NAME@CUISettingsWindow@@2QBDB 0000000140236f20     uisettingswindow.obj
 0002:0001cf48       ?BINDSTAB_BIND_BTN_OBJ_NAME@CUISettingsWindow@@2QBDB 0000000140236f48     uisettingswindow.obj
 0002:0001cf58       ?AUDIO_TAB_OCCLUSION_LABEL_OBJ_NAME@CUISettingsWindow@@2QBDB 0000000140236f58     uisettingswindow.obj
 0002:0001cf70       ?VIDEOTAB_DISPLAY_DEVICE_LIST_OBJ_NAME@CUISettingsWindow@@2QBDB 0000000140236f70     uisettingswindow.obj
 0002:0001cf88       ?AUDIO_TAB_MUSIC_VOLUME_SLIDER_OBJ_NAME@CUISettingsWindow@@2QBDB 0000000140236f88     uisettingswindow.obj
 0002:0001cfa0       ?WINDOW_DESC_FILE@CUISettingsWindow@@2QBDB 0000000140236fa0     uisettingswindow.obj
 0002:0001cfc8       ?VIDEOTAB_ANTIALIAS_LABEL_OBJ_NAME@CUISettingsWindow@@2QBDB 0000000140236fc8     uisettingswindow.obj
 0002:0001cfd8       ?SCROLLSURFACE_OPTION_LIST_OBJ_NAME@CUISettingsWindow@@2QBDB 0000000140236fd8     uisettingswindow.obj
 0002:0001cff0       ?SETTINGS_TAB_OBJ_NAME@CUISettingsWindow@@2QBDB 0000000140236ff0     uisettingswindow.obj
 0002:0001d000       ?AUDIO_TAB_MASTER_VOLUME_SLIDER_OBJ_NAME@CUISettingsWindow@@2QBDB 0000000140237000     uisettingswindow.obj
 0002:0001d018       ?VIDEOTAB_WINDOW_MODE_LABEL_OBJ_NAME@CUISettingsWindow@@2QBDB 0000000140237018     uisettingswindow.obj
 0002:0001d028       ?SCROLLSURFACE_OPTION_TAB_OBJ_NAME@CUISettingsWindow@@2QBDB 0000000140237028     uisettingswindow.obj
 0002:0001d050       ?VIDEOTAB_VERTICAL_SYNC_LIST_OBJ_NAME@CUISettingsWindow@@2QBDB 0000000140237050     uisettingswindow.obj
 0002:0001d068       ?VIDEOTAB_GAMMA_SLIDER_OBJ_NAME@CUISettingsWindow@@2QBDB 0000000140237068     uisettingswindow.obj
 0002:0001d078       ?GAMEPLAY_TAB_VIEWBOB_SLIDER_OBJ_NAME@CUISettingsWindow@@2QBDB 0000000140237078     uisettingswindow.obj
 0002:0001d090       ?MOUSE_TAB_FILTER_MOUSE_LABEL_OBJ_NAME@CUISettingsWindow@@2QBDB 0000000140237090     uisettingswindow.obj
 0002:0001d0a8       ?VIDEOTAB_GAMMA_LABEL_OBJ_NAME@CUISettingsWindow@@2QBDB 00000001402370a8     uisettingswindow.obj
 0002:0001d0b8       ?MOUSE_TAB_SENSITIVITY_SLIDER_OBJ_NAME@CUISettingsWindow@@2QBDB 00000001402370b8     uisettingswindow.obj
 0002:0001d0e0       ?AUDIO_TAB_MUSIC_VOLUME_LABEL_OBJ_NAME@CUISettingsWindow@@2QBDB 00000001402370e0     uisettingswindow.obj
 0002:0001d0f8       ?ADVANCED_TAB_LIST_OBJ_NAME@CUISettingsWindow@@2QBDB 00000001402370f8     uisettingswindow.obj
 0002:0001d118       ?MOUSE_TAB_FILTER_FRAMES_LABEL_OBJ_NAME@CUISettingsWindow@@2QBDB 0000000140237118     uisettingswindow.obj
 0002:0001d130       ?VIDEOTAB_ANISOTROPY_LIST_OBJ_NAME@CUISettingsWindow@@2QBDB 0000000140237130     uisettingswindow.obj
 0002:0001d140       ?DEFAULT_BINDS_FILENAME@CUISettingsWindow@@2QBDB 0000000140237140     uisettingswindow.obj
 0002:0001d150       _residue_P                 0000000140237150     libvorbis_static:registry.obj
 0002:0001d170       _floor_P                   0000000140237170     libvorbis_static:registry.obj
 0002:0001d180       _mapping_P                 0000000140237180     libvorbis_static:registry.obj
 0002:0002b0c0       floor0_exportbundle        00000001402450c0     libvorbis_static:floor0.obj
 0002:0002b0f8       mapping0_exportbundle      00000001402450f8     libvorbis_static:mapping0.obj
 0002:0002b120       residue0_exportbundle      0000000140245120     libvorbis_static:res0.obj
 0002:0002b160       residue2_exportbundle      0000000140245160     libvorbis_static:res0.obj
 0002:0002b1a0       residue1_exportbundle      00000001402451a0     libvorbis_static:res0.obj
 0002:0002b1e0       floor1_exportbundle        00000001402451e0     libvorbis_static:floor1.obj
 0002:0002bef4       ?PRINT_BOX_BAR_COLOR@CConsole@@2Ucolor32_t@@B 0000000140245ef4     console.obj
 0002:0002bf04       ?PRINT_BOX_BACKGROUND_COLOR@CConsole@@2Ucolor32_t@@B 0000000140245f04     console.obj
 0002:000314d8       ??_C@_0CD@IPGNCIH@?$CFs?5is?5not?5a?5power?5of?5two?5textur@ 000000014024b4d8     dds.obj
 0002:00031500       ??_C@_0BN@EBDPJCPC@Incorrect?5DDS?5format?5on?5?$CFs?4?6@ 000000014024b500     dds.obj
 0002:00031520       ??_C@_0IN@LFEMPGOE@Incorrect?5compression?5on?3?5?$CFs?4?5S@ 000000014024b520     dds.obj
 0002:000315b0       ??_C@_1BK@OHDNMJCB@?$AA?$CG?$AAs?$AAt?$AAr?$AA?5?$AA?$CB?$AA?$DN?$AA?5?$AAt?$AAh?$AAi?$AAs@ 000000014024b5b0     logfile.obj
 0002:000315d0       ??_C@_1DA@NDJHEFMP@?$AAb?$AAe?$AAg?$AAi?$AAn?$AA?5?$AA?$DM?$AA?$DN?$AA?5?$AAm?$AA_?$AAs?$AAt?$AAr?$AAi@ 000000014024b5d0     logfile.obj
 0002:00031600       ??_C@_0CK@LHJPBJIF@Failed?5to?5delete?5previous?5log?5f@ 000000014024b600     logfile.obj
 0002:00031630       ??_C@_0CB@IILNMOL@Deleted?5previous?5log?5file?5?8?$CFs?8?4@ 000000014024b630     logfile.obj
 0002:00031658       ??_C@_0O@KIAHLLOA@Log?5started?3?5@ 000000014024b658     logfile.obj
 0002:00031668       ??_C@_01JLIPDDHJ@?3@       000000014024b668     logfile.obj
 0002:00031670       ??_C@_0L@ICGNOKCJ@Log?5file?3?5@ 000000014024b670     logfile.obj
 0002:00031680       ??_C@_0CB@OBFFIPGM@Failed?5to?5write?5to?5log?5file?5?$CFs?4@ 000000014024b680     logfile.obj
 0002:000316a4       ??_C@_03NLJIHOMM@?5?9?5@   000000014024b6a4     logfile.obj
 0002:000316b0       ??_C@_1LG@MELEJNBL@?$AAD?$AA?3?$AA?2?$AAs?$AAo?$AAu?$AAr?$AAc?$AAe?$AAs?$AAd?$AAk?$AA?2?$AAp?$AAa@ 000000014024b6b0     matrix.obj
 0002:00031768       ??_C@_1DG@DMFCIEBK@?$AAm?$AA_?$AAp?$AAM?$AAa?$AAt?$AAr?$AAi?$AAx?$AAH?$AAe?$AAa?$AAd?$AAe?$AAr@ 000000014024b768     matrix.obj
 0002:000317a8       ??_7CMatrix@@6B@           000000014024b7a8     matrix.obj
 0002:000317b0       ??_C@_00CNPNBAHC@@         000000014024b7b0     md5.obj
 0002:000317b4       ??_C@_04NOJCDH@?$CF02x@    000000014024b7b4     md5.obj
 0002:000317c0       ??_C@_1LM@PEEBDDGO@?$AAD?$AA?3?$AA?2?$AAs?$AAo?$AAu?$AAr?$AAc?$AAe?$AAs?$AAd?$AAk?$AA?2?$AAp?$AAa@ 000000014024b7c0     r_common.obj
 0002:00031880       ??_C@_1CA@EBJGOAOJ@?$AAt?$AAy?$AAp?$AAe?$AA?5?$AA?$DN?$AA?$DN?$AA?5?$AAM?$AAO?$AAD?$AA_?$AAV?$AAB?$AAM@ 000000014024b880     r_common.obj
 0002:000318a0       ??_C@_0BN@EKFBEPOH@R_CheckShaderVertexAttribute@ 000000014024b8a0     r_common.obj
 0002:000318c0       ??_C@_0CH@KINHKMMB@?6Error?5initializing?5vertex?5attr@ 000000014024b8c0     r_common.obj
 0002:000318e8       ??_C@_0P@ONKHIBPA@?8?5for?5shader?5?8@ 000000014024b8e8     r_common.obj
 0002:000318f8       ??_C@_01GEODFPGF@?8@       000000014024b8f8     r_common.obj
 0002:00031900       ??_C@_0BK@CCOGAIAJ@R_CheckShaderDeterminator@ 000000014024b900     r_common.obj
 0002:00031920       ??_C@_0CD@OPCDOPAC@?6Error?5initializing?5determinato@ 000000014024b920     r_common.obj
 0002:00031948       ??_C@_0BF@PHAJCMBK@R_CheckShaderUniform@ 000000014024b948     r_common.obj
 0002:00031960       ??_C@_0BO@LFNCHGOE@?6Error?5initializing?5uniform?5?8@ 000000014024b960     r_common.obj
 0002:00031980       ??_C@_0FO@BNDMNLCF@?$CFs?5is?5using?5a?5non?9supported?5for@ 000000014024b980     tga.obj
 0002:000319e0       ??_C@_0CG@DBPOOODP@TGA?5?$CFs?5uses?5an?5unsupported?5data@ 000000014024b9e0     tga.obj
 0002:00031a08       ??_C@_09LJBGOIFP@TGA_Write@ 000000014024ba08     tga.obj
 0002:00031a18       ??_C@_0BK@CGILIEDJ@?$CFs?5?9?5Failed?5to?5write?5?$CFs?4?6@ 000000014024ba18     tga.obj
 0002:00031a40       ??_C@_1ME@EOGGMNCE@?$AAD?$AA?3?$AA?2?$AAs?$AAo?$AAu?$AAr?$AAc?$AAe?$AAs?$AAd?$AAk?$AA?2?$AAp?$AAa@ 000000014024ba40     r_basicdraw.obj
 0002:00031b10       ??_C@_1FK@LNOBCDBP@?$AAi?$AAn?$AAd?$AAe?$AAx?$AA?5?$AA?$DO?$AA?$DN?$AA?5?$AA0?$AA?5?$AA?$CG?$AA?$CG?$AA?5?$AAi@ 000000014024bb10     r_basicdraw.obj
 0002:00031b70       ??_C@_0O@LLGIOEBB@basicdraw?4bss@ 000000014024bb70     r_basicdraw.obj
 0002:00031b80       ??_C@_0BD@JHHOPFKH@CBasicDraw?3?3InitGL@ 000000014024bb80     r_basicdraw.obj
 0002:00031b98       ??_C@_0CD@KGIMFFBE@?$CFs?5?9?5Could?5not?5compile?5shader?3?5@ 000000014024bb98     r_basicdraw.obj
 0002:00031bc0       ??_C@_09FHHBBPAC@modelview@ 000000014024bbc0     r_basicdraw.obj
 0002:00031bd0       ??_C@_0L@PPHAJBEH@projection@ 000000014024bbd0     r_basicdraw.obj
 0002:00031be0       ??_C@_08CNIDOFM@texture0@  000000014024bbe0     r_basicdraw.obj
 0002:00031bf0       ??_C@_0L@JMILLNLL@rectangle0@ 000000014024bbf0     r_basicdraw.obj
 0002:00031c00       ??_C@_0L@NBOAACKH@multiplier@ 000000014024bc00     r_basicdraw.obj
 0002:00031c10       ??_C@_08MLCFJBLJ@fogcolor@ 000000014024bc10     r_basicdraw.obj
 0002:00031c20       ??_C@_09PCCNFJDC@fogparams@ 000000014024bc20     r_basicdraw.obj
 0002:00031c30       ??_C@_0M@ICPGNOKG@in_position@ 000000014024bc30     r_basicdraw.obj
 0002:00031c40       ??_C@_0M@DBAMMFBI@in_texcoord@ 000000014024bc40     r_basicdraw.obj
 0002:00031c50       ??_C@_08EDLKLFMD@in_color@ 000000014024bc50     r_basicdraw.obj
 0002:00031c60       ??_C@_08OAGMDKAF@position@ 000000014024bc60     r_basicdraw.obj
 0002:00031c70       ??_C@_08FDJGCBLL@texcoord@ 000000014024bc70     r_basicdraw.obj
 0002:00031c7c       ??_C@_05PEENBMOG@color@    000000014024bc7c     r_basicdraw.obj
 0002:00031c88       ??_C@_07JDHEGGGP@texture@  000000014024bc88     r_basicdraw.obj
 0002:00031c90       ??_C@_09KEGCCCGI@rectangle@ 000000014024bc90     r_basicdraw.obj
 0002:00031c9c       ??_C@_03KJMBPJEB@fog@      000000014024bc9c     r_basicdraw.obj
 0002:00031ca0       ??_C@_04DJCABLIL@?$CFs?$CFc@ 000000014024bca0     sentencesfile.obj
 0002:00031ca8       ??_C@_02HAOIJKIC@?$CFc@    000000014024bca8     sentencesfile.obj
 0002:00031cac       ??_C@_02DPKJAMEF@?$CFd@    000000014024bcac     sentencesfile.obj
 0002:00031cb0       ??_C@_02DKCKIIND@?$CFs@    000000014024bcb0     sentencesfile.obj
 0002:00031cb4       ??_C@_02CBLDBPFN@?1?1@     000000014024bcb4     sentencesfile.obj
 0002:00031cb8       ??_C@_0BF@LBMAACDL@CSentencesFile?3?3Init@ 000000014024bcb8     sentencesfile.obj
 0002:00031cd0       ??_C@_0BL@KLOKFGFE@?5?9?5Unexpected?5end?5of?5line?5@ 000000014024bcd0     sentencesfile.obj
 0002:00031cec       ??_C@_01DCLJPIOD@?$CB@     000000014024bcec     sentencesfile.obj
 0002:00031cf0       ??_C@_02HHAEMJFE@?2?1@     000000014024bcf0     sentencesfile.obj
 0002:00031cf4       ??_C@_01ODHLEDKK@?$CI@     000000014024bcf4     sentencesfile.obj
 0002:00031cf8       ??_C@_0BC@BHPDLAHJ@?5?9?5Error?5on?5line?5@ 000000014024bcf8     sentencesfile.obj
 0002:00031d10       ??_C@_0BH@ELJMBOOP@?0?5unexpected?5?8?$CJ?8?5token@ 000000014024bd10     sentencesfile.obj
 0002:00031d28       ??_C@_0CG@LFBJNLND@CSentencesFile?3?3Init?5?9?5Error?5on@ 000000014024bd28     sentencesfile.obj
 0002:00031d50       ??_C@_0BH@NMNCFAKG@?5while?5parsing?5options@ 000000014024bd50     sentencesfile.obj
 0002:00031d68       ??_C@_0BC@EGGLKKLG@?5?9?5Token?5on?5line?5@ 000000014024bd68     sentencesfile.obj
 0002:00031d80       ??_C@_09NKIMOLPO@?5too?5long@ 000000014024bd80     sentencesfile.obj
 0002:00031d90       ??_C@_0CB@LKDAAJEP@CSentencesFile?3?3ParseOptionToke@ 000000014024bd90     sentencesfile.obj
 0002:00031db8       ??_C@_0CP@KNNLHFCL@?5?9?5Error?5in?5option?5declaration?0@ 000000014024bdb8     sentencesfile.obj
 0002:00031de8       ??_C@_0BI@NIOHPODA@?5?9?5Unrecognized?5option?5@ 000000014024bde8     sentencesfile.obj
 0002:00031e00       ??_C@_04IBLEHOMF@?4wav@    000000014024be00     sentencesfile.obj
 0002:00031e08       ??_C@_04GPMDFGEJ@type@     000000014024be08     stepsound.obj
 0002:00031e10       ??_C@_02NJPGOMH@?$CFf@     000000014024be10     texturemanager.obj
 0002:00031e18       ??_C@_1DA@IPGEJOKE@?$AAo?$AAf?$AAf?$AAs?$AAe?$AAt?$AA?5?$AA?$DM?$AA?5?$AAm?$AA_?$AAs?$AAt?$AAr?$AAi@ 000000014024be18     texturemanager.obj
 0002:00031e50       ??_C@_1HM@EOKGFDGO@?$AAb?$AAe?$AAg?$AAi?$AAn?$AA?5?$AA?$DM?$AA?5?$AAm?$AA_?$AAs?$AAt?$AAr?$AAi?$AAn@ 000000014024be50     texturemanager.obj
 0002:00031ed0       ??_C@_0CC@INDAGEHJ@CTextureManager?3?3DeleteAllocati@ 000000014024bed0     texturemanager.obj
 0002:00031ef8       ??_C@_0DE@DKFKMJKC@?$CFs?5?9?5Allocation?5is?5tied?5to?5a?5te@ 000000014024bef8     texturemanager.obj
 0002:00031f2c       ??_C@_05JLNEMJLN@dummy@    000000014024bf2c     texturemanager.obj
 0002:00031f34       ??_C@_03LJIJAGL@tga@       000000014024bf34     texturemanager.obj
 0002:00031f38       ??_C@_03CBDDAJHO@dds@      000000014024bf38     texturemanager.obj
 0002:00031f3c       ??_C@_03NNHBJLDF@png@      000000014024bf3c     texturemanager.obj
 0002:00031f40       ??_C@_07KFBPAAO@diffuse@   000000014024bf40     texturemanager.obj
 0002:00031f48       ??_C@_09GEJJOHHL@normalmap@ 000000014024bf48     texturemanager.obj
 0002:00031f54       ??_C@_06IKLLLDHL@normal@   000000014024bf54     texturemanager.obj
 0002:00031f5c       ??_C@_06EENFNEPD@detail@   000000014024bf5c     texturemanager.obj
 0002:00031f68       ??_C@_08DPLIAGAA@specular@ 000000014024bf68     texturemanager.obj
 0002:00031f78       ??_C@_09CHBEBDMN@luminance@ 000000014024bf78     texturemanager.obj
 0002:00031f88       ??_C@_09OJHOCBK@heightmap@ 000000014024bf88     texturemanager.obj
 0002:00031f98       ??_C@_0CG@GCEKKDAN@Failed?5to?5load?5material?5script?5@ 000000014024bf98     texturemanager.obj
 0002:00031fc0       ??_C@_0BJ@ELBEHFOJ@Unexpected?5EOF?5in?5?8?$CFs?8?4?6@ 000000014024bfc0     texturemanager.obj
 0002:00031fdc       ??_C@_06MNCCEIBG@$alias@   000000014024bfdc     texturemanager.obj
 0002:00031fe8       ??_C@_08MPECHOAH@$texture@ 000000014024bfe8     texturemanager.obj
 0002:00031ff8       ??_C@_0DO@MKNKICCI@Expected?5$texture?5or?5$alias?5tok@ 000000014024bff8     texturemanager.obj
 0002:00032040       ??_C@_0FH@EIKMAOCA@Could?5not?5load?5?8?$CFs?8?0?5because?5it@ 000000014024c040     texturemanager.obj
 0002:00032098       ??_C@_0CN@LFMJKEMJ@Expected?5?$HL?5token?0?5got?5?8?$CFs?8?5inst@ 000000014024c098     texturemanager.obj
 0002:000320c8       ??_C@_0DB@FIHLJHKM@Unexpected?5EOF?5in?5?8?$CFs?8?0?5missing@ 000000014024c0c8     texturemanager.obj
 0002:00032100       ??_C@_0M@KGDMAKGL@$scriptfile@ 000000014024c100     texturemanager.obj
 0002:00032110       ??_C@_0DH@MINMBDMC@Expected?5$scriptfile?5token?0?5got@ 000000014024c110     texturemanager.obj
 0002:00032148       ??_C@_0DJ@IEMGHFNG@Parameter?5specification?5for?5?8?$CFs@ 000000014024c148     texturemanager.obj
 0002:00032188       ??_C@_09CNFGLEGM@$cubemaps@ 000000014024c188     texturemanager.obj
 0002:00032198       ??_C@_0M@GPIIABBO@$fullbright@ 000000014024c198     texturemanager.obj
 0002:000321a8       ??_C@_08BFANNOFL@$nodecal@ 000000014024c1a8     texturemanager.obj
 0002:000321b8       ??_C@_0L@OMKAMLJA@$alphatest@ 000000014024c1b8     texturemanager.obj
 0002:000321c8       ??_C@_0L@CPABIJC@$nomipmaps@ 000000014024c1c8     texturemanager.obj
 0002:000321d4       ??_C@_06GHGJGLFF@$clamp@   000000014024c1d4     texturemanager.obj
 0002:000321e0       ??_C@_09CAKBFOMO@$eyeglint@ 000000014024c1e0     texturemanager.obj
 0002:000321f0       ??_C@_07BMKAEBO@$chrome@   000000014024c1f0     texturemanager.obj
 0002:000321f8       ??_C@_09BHPCEMGH@$additive@ 000000014024c1f8     texturemanager.obj
 0002:00032208       ??_C@_0M@ENCODADO@$alphablend@ 000000014024c208     texturemanager.obj
 0002:00032214       ??_C@_06CFHLFPBL@$scope@   000000014024c214     texturemanager.obj
 0002:00032220       ??_C@_0M@LIMOMLKP@$noimpactfx@ 000000014024c220     texturemanager.obj
 0002:00032230       ??_C@_0N@MMLMBAJE@$nostepsound@ 000000014024c230     texturemanager.obj
 0002:00032240       ??_C@_0M@GGPKOAJC@$nofacecull@ 000000014024c240     texturemanager.obj
 0002:00032250       ??_C@_0P@PKIPIPKE@$nopenetration@ 000000014024c250     texturemanager.obj
 0002:00032260       ??_C@_0N@KCKJEBJG@$bulletproof@ 000000014024c260     texturemanager.obj
 0002:00032270       ??_C@_0L@HEMADOMO@$dt_scalex@ 000000014024c270     texturemanager.obj
 0002:00032280       ??_C@_0L@GNNLAPIP@$dt_scaley@ 000000014024c280     texturemanager.obj
 0002:00032290       ??_C@_0L@COHEKIMM@$int_width@ 000000014024c290     texturemanager.obj
 0002:000322a0       ??_C@_0M@IFMHFGFN@$int_height@ 000000014024c2a0     texturemanager.obj
 0002:000322ac       ??_C@_06JHBGBLFP@$alpha@   000000014024c2ac     texturemanager.obj
 0002:000322b8       ??_C@_0L@LHBKLBBK@$phong_exp@ 000000014024c2b8     texturemanager.obj
 0002:000322c8       ??_C@_0P@HBAHKGPN@$parallaxscale@ 000000014024c2c8     texturemanager.obj
 0002:000322d8       ??_C@_05HIBBCFA@$spec@     000000014024c2d8     texturemanager.obj
 0002:000322e0       ??_C@_0M@LNPAKBAD@$scopescale@ 000000014024c2e0     texturemanager.obj
 0002:000322f0       ??_C@_0BB@FNLNNNEO@$cubemapstrength@ 000000014024c2f0     texturemanager.obj
 0002:00032308       ??_C@_0L@BJBHFOLN@$container@ 000000014024c308     texturemanager.obj
 0002:00032318       ??_C@_08GBJHEDOP@$scrollu@ 000000014024c318     texturemanager.obj
 0002:00032328       ??_C@_08EKLKBACM@$scrollv@ 000000014024c328     texturemanager.obj
 0002:00032338       ??_C@_0CM@HLCHKNN@Invalid?5value?5?8?$CFs?8?5for?5field?5?8?$CF@ 000000014024c338     texturemanager.obj
 0002:00032368       ??_C@_0CJ@CCLIOKMD@$texture?5command?5is?5incomplete?5@ 000000014024c368     texturemanager.obj
 0002:00032398       ??_C@_0CJ@FPCCBHFE@Unknown?5$texture?5typename?5?8?$CFs?8?5@ 000000014024c398     texturemanager.obj
 0002:000323c8       ??_C@_09OONBBGLO@$material@ 000000014024c3c8     texturemanager.obj
 0002:000323d8       ??_C@_0CK@DCNEENIC@$material?5command?5is?5incomplete@ 000000014024c3d8     texturemanager.obj
 0002:00032408       ??_C@_0BB@NAFPDBGM@$fullbrightcolor@ 000000014024c408     texturemanager.obj
 0002:00032420       ??_C@_0BN@CKJJAMFB@Unknown?5field?5?8?$CFs?8?5in?5?8?$CFs?8?4?6@ 000000014024c420     texturemanager.obj
 0002:00032440       ??_C@_0CE@MCLPGEMO@CTextureManager?3?3LoadMaterialSc@ 000000014024c440     texturemanager.obj
 0002:00032470       ??_C@_0EE@KLNJDPJG@?$CFs?5?9?5Invalid?5y?5detail?5texture?5s@ 000000014024c470     texturemanager.obj
 0002:000324c0       ??_C@_0EE@IJNKIMIG@?$CFs?5?9?5Invalid?5x?5detail?5texture?5s@ 000000014024c4c0     texturemanager.obj
 0002:00032508       ??_C@_0CK@PHDCNCBE@Invalid?5resource?5level?5for?5text@ 000000014024c508     texturemanager.obj
 0002:00032540       ??_C@_0FM@BEGKKJIF@Could?5not?5load?5?$CFs?5?9?5Rectangle?5t@ 000000014024c540     texturemanager.obj
 0002:0003259c       ??_C@_04LIKELABK@?4dds@    000000014024c59c     texturemanager.obj
 0002:000325a4       ??_C@_04LFFPHNGG@?4DDS@    000000014024c5a4     texturemanager.obj
 0002:000325ac       ??_C@_04JCAPCJAP@?4tga@    000000014024c5ac     texturemanager.obj
 0002:000325b4       ??_C@_04JPPEOEHD@?4TGA@    000000014024c5b4     texturemanager.obj
 0002:000325c0       ??_C@_0BO@MMAFOAFM@Failed?5to?5load?5texture?5?8?$CFs?8?4?6@ 000000014024c5c0     texturemanager.obj
 0002:000325e0       ??_C@_0CN@JLKOBMOF@Unknown?5or?5unsupported?5file?5for@ 000000014024c5e0     texturemanager.obj
 0002:00032610       ??_C@_0CF@HFHBEFDC@Failed?5to?5load?5TGA?5image?5file?5?8@ 000000014024c610     texturemanager.obj
 0002:00032638       ??_C@_0CF@INJAFADJ@Failed?5to?5load?5DDS?5image?5file?5?8@ 000000014024c638     texturemanager.obj
 0002:00032660       ??_C@_0CF@BHNLMBAP@Failed?5to?5load?5PNG?5image?5file?5?8@ 000000014024c660     texturemanager.obj
 0002:00032688       ??_C@_0CG@PIAGFGOB@Unsupported?5file?5format?5?$CFd?5for?5@ 000000014024c688     texturemanager.obj
 0002:000326b0       ??_C@_0CM@GKFDBABE@Invalid?5texture?5properties?5give@ 000000014024c6b0     texturemanager.obj
 0002:000326e0       ??_C@_1MG@FEDEICKN@?$AAD?$AA?3?$AA?2?$AAs?$AAo?$AAu?$AAr?$AAc?$AAe?$AAs?$AAd?$AAk?$AA?2?$AAp?$AAa@ 000000014024c6e0     texturemanager.obj
 0002:000327b0       ??_C@_1GA@HPHPOPJD@?$AAs?$AAe?$AAt?$AAt?$AAi?$AAn?$AAg?$AAI?$AAn?$AAd?$AAe?$AAx?$AA?5?$AA?$DM?$AA?5@ 000000014024c7b0     texturemanager.obj
 0002:00032810       ??_C@_0L@NOBGFDHD@?7$cubemaps@ 000000014024c810     texturemanager.obj
 0002:00032820       ??_C@_0N@JMLMILBL@?7$fullbright@ 000000014024c820     texturemanager.obj
 0002:00032830       ??_C@_09OMJLIJEJ@?7$nodecal@ 000000014024c830     texturemanager.obj
 0002:00032840       ??_C@_0M@GBFLIGIC@?7$alphatest@ 000000014024c840     texturemanager.obj
 0002:00032850       ??_C@_0M@IPALFFIA@?7$nomipmaps@ 000000014024c850     texturemanager.obj
 0002:00032860       ??_C@_07IAGIHAGJ@?7$clamp@ 000000014024c860     texturemanager.obj
 0002:00032868       ??_C@_0L@NDOBLJNB@?7$eyeglint@ 000000014024c868     texturemanager.obj
 0002:00032878       ??_C@_08COECHJIC@?7$chrome@ 000000014024c878     texturemanager.obj
 0002:00032888       ??_C@_0L@OELCKLHI@?7$additive@ 000000014024c888     texturemanager.obj
 0002:00032898       ??_C@_0N@LOBKLKDL@?7$alphablend@ 000000014024c898     texturemanager.obj
 0002:000328a8       ??_C@_07MCHKEECH@?7$scope@ 000000014024c8a8     texturemanager.obj
 0002:000328b0       ??_C@_0N@ELPKEBKK@?7$noimpactfx@ 000000014024c8b0     texturemanager.obj
 0002:000328c0       ??_C@_0O@LMCFNAJB@?7$nostepsound@ 000000014024c8c0     texturemanager.obj
 0002:000328d0       ??_C@_0N@JFMOGKJH@?7$nofacecull@ 000000014024c8d0     texturemanager.obj
 0002:000328e0       ??_C@_0N@BKBIIBCO@?7$dt_scalex?5@ 000000014024c8e0     texturemanager.obj
 0002:000328f0       ??_C@_0N@BLNKOLBJ@?7$dt_scaley?5@ 000000014024c8f0     texturemanager.obj
 0002:00032900       ??_C@_0N@PEEMFEJE@?7$int_width?5@ 000000014024c900     texturemanager.obj
 0002:00032910       ??_C@_0O@PAECAOLI@?7$int_height?5@ 000000014024c910     texturemanager.obj
 0002:00032920       ??_C@_08EBEPADEA@?7$alpha?5@ 000000014024c920     texturemanager.obj
 0002:00032930       ??_C@_0N@JLGFENGM@?7$phong_exp?5@ 000000014024c930     texturemanager.obj
 0002:00032940       ??_C@_07BJOJOPHI@?7$spec?5@ 000000014024c940     texturemanager.obj
 0002:00032948       ??_C@_0O@HMKJEFLM@?7$scopescale?5@ 000000014024c948     texturemanager.obj
 0002:00032958       ??_C@_0BD@GHONGOBH@?7$cubemapstrength?5@ 000000014024c958     texturemanager.obj
 0002:00032970       ??_C@_0BB@BCBLJDJA@?7$parallaxscale?5@ 000000014024c970     texturemanager.obj
 0002:00032988       ??_C@_0N@NDHJHGMI@?7$container?5@ 000000014024c988     texturemanager.obj
 0002:00032998       ??_C@_0M@DEEICGCN@?7$material?5@ 000000014024c998     texturemanager.obj
 0002:000329a8       ??_C@_0BD@KJFMANHB@?7$texture?5diffuse?5@ 000000014024c9a8     texturemanager.obj
 0002:000329c0       ??_C@_0BF@LINOIKEG@?7$texture?5normalmap?5@ 000000014024c9c0     texturemanager.obj
 0002:000329d8       ??_C@_0BC@GAOIKAPK@?7$texture?5detail?5@ 000000014024c9d8     texturemanager.obj
 0002:000329f0       ??_C@_0BE@KJGDBCCA@?7$texture?5specular?5@ 000000014024c9f0     texturemanager.obj
 0002:00032a08       ??_C@_0BF@JKJPBBAL@?7$texture?5luminance?5@ 000000014024ca08     texturemanager.obj
 0002:00032a20       ??_C@_0BF@ICABNFIN@?7$texture?5heightmap?5@ 000000014024ca20     texturemanager.obj
 0002:00032a38       ??_C@_09CBPMOBF@textures?1@ 000000014024ca38     texturemanager.obj
 0002:00032a48       ??_C@_1CE@HHABPFPG@?$AAt?$AAy?$AAp?$AAe?$AA?5?$AA?$DN?$AA?$DN?$AA?5?$AAM?$AAO?$AAD?$AA_?$AAB?$AAR?$AAU@ 000000014024ca48     ald.obj
 0002:00032a70       ??_C@_08FFHDJNFG@ALD_Load@ 000000014024ca70     ald.obj
 0002:00032a80       ??_C@_0CA@HNLGLANF@?$CFs?5?9?5Couldn?8t?5get?5world?5model?4?6@ 000000014024ca80     ald.obj
 0002:00032aa0       ??_C@_04KPILAJPA@?4bsp@    000000014024caa0     ald.obj
 0002:00032aa8       ??_C@_04IEOKJFAG@?4ald@    000000014024caa8     ald.obj
 0002:00032ab0       ??_C@_0DF@JMFJCPDK@?$CFs?5?9?5ALD?5file?5?8?$CFs?8?5is?5older?5tha@ 000000014024cab0     ald.obj
 0002:00032ae8       ??_C@_0BN@EGMIIMH@?$CFs?5?9?5Invalid?5ALD?5file?5?8?$CFs?8?4?6@ 000000014024cae8     ald.obj
 0002:00032b10       ??_C@_0EL@IKFNLAKF@?$CFs?5?9?5ALD?5lump?5of?5type?5?$CFd?5incons@ 000000014024cb10     ald.obj
 0002:00032b60       ??_C@_0BE@NMAJIBHN@ALD_ExportLightmaps@ 000000014024cb60     ald.obj
 0002:00032b78       ??_C@_0BM@PDPOOJDC@?$CFs?5?9?5Failed?5to?5write?5?8?$CFs?8?4?6@ 000000014024cb78     ald.obj
 0002:00032b98       ??_C@_0BG@JEKOAFMA@VIS?5buffer?5overflow?4?6@ 000000014024cb98     brushmodel.obj
 0002:00032bb0       ??_C@_1CK@INIHLNL@?$AAm?$AA_?$AAp?$AAS?$AAt?$AAr?$AAi?$AAn?$AAg?$AA?5?$AA?$CB?$AA?$DN?$AA?5?$AAn?$AAu@ 000000014024cbb0     bspv30.obj
 0002:00032be0       ??_C@_1CO@MLNJMAEM@?$AAn?$AA?5?$AA?$DM?$AA?5?$AAq?$AAs?$AAt?$AAr?$AAl?$AAe?$AAn?$AA?$CI?$AAm?$AA_?$AAp@ 000000014024cbe0     bspv30.obj
 0002:00032c10       ??_C@_0BE@BNBCNGKM@BSPV30_LoadVertexes@ 000000014024cc10     bspv30.obj
 0002:00032c28       ??_C@_0CG@MJHFKJOA@?$CFs?5?9?5Inconsistent?5lump?5size?5in?5@ 000000014024cc28     bspv30.obj
 0002:00032c50       ??_C@_0BB@PBELLKGH@BSPV30_LoadEdges@ 000000014024cc50     bspv30.obj
 0002:00032c68       ??_C@_0BF@HGHFLODI@BSPV30_LoadSurfedges@ 000000014024cc68     bspv30.obj
 0002:00032c80       ??_C@_0BE@JIMJNGIC@BSPV30_LoadTextures@ 000000014024cc80     bspv30.obj
 0002:00032c98       ??_C@_0CD@COLIMGEM@?$CFs?5?9?5No?5textures?5present?5in?5?8?$CFs@ 000000014024cc98     bspv30.obj
 0002:00032cc0       ??_C@_0BN@GDDBPHJN@Bad?5animating?5texture?5?8?$CFs?8?4?6@ 000000014024ccc0     bspv30.obj
 0002:00032ce0       ??_C@_0CK@GADJKEPB@Missing?5frame?5?$CFd?5animating?5text@ 000000014024cce0     bspv30.obj
 0002:00032d10       ??_C@_0BE@KFHPMMPJ@BSPV30_LoadLighting@ 000000014024cd10     bspv30.obj
 0002:00032d28       ??_C@_0BC@EOGKAJBD@BSPV30_LoadPlanes@ 000000014024cd28     bspv30.obj
 0002:00032d40       ??_C@_0BD@CMFCHOEP@BSPV30_LoadTexinfo@ 000000014024cd40     bspv30.obj
 0002:00032d58       ??_C@_0CF@BHMKNHOM@Invalid?5texture?5index?5?8?$CFd?8?5in?5?8@ 000000014024cd58     bspv30.obj
 0002:00032d80       ??_C@_0BB@DAFNNAOO@BSPV30_LoadFaces@ 000000014024cd80     bspv30.obj
 0002:00032d94       ??_C@_03BNEOMJOP@sky@      000000014024cd94     bspv30.obj
 0002:00032d98       ??_C@_0BI@GBFEDBPK@BSPV30_LoadMarksurfaces@ 000000014024cd98     bspv30.obj
 0002:00032db0       ??_C@_0CH@GKMADLEA@BSPV30_LoadFaces?5?9?5Bad?5surface?5@ 000000014024cdb0     bspv30.obj
 0002:00032dd8       ??_C@_0BB@MMAJCDJK@BSPV30_LoadLeafs@ 000000014024cdd8     bspv30.obj
 0002:00032df0       ??_C@_0BB@POOJNEFL@BSPV30_LoadNodes@ 000000014024cdf0     bspv30.obj
 0002:00032e08       ??_C@_0BF@HLMFCBEP@BSPV30_LoadClipnodes@ 000000014024ce08     bspv30.obj
 0002:00032e20       ??_C@_0BF@MIKALIL@BSPV30_LoadSubmodels@ 000000014024ce20     bspv30.obj
 0002:00032e38       ??_C@_0BK@DIKGMKLH@BSPV30_CalcSurfaceExtents@ 000000014024ce38     bspv30.obj
 0002:00032e58       ??_C@_0BK@LOBDECLL@?$CFs?3?5Bad?5surface?5extents?4?6@ 000000014024ce58     bspv30.obj
 0002:00032e78       ??_C@_0CE@ELIDOGMA@Connect?5to?5a?5server?5at?5an?5addre@ 000000014024ce78     cl_cmd.obj
 0002:00032ea0       ??_C@_07KAIBNCHO@connect@  000000014024cea0     cl_cmd.obj
 0002:00032ea8       ??_C@_0CE@MDAGEPNA@Disconnect?5from?5the?5active?5serv@ 000000014024cea8     cl_cmd.obj
 0002:00032ed0       ??_C@_0L@KKPFIJOL@disconnect@ 000000014024ced0     cl_cmd.obj
 0002:00032ee0       ??_C@_0CC@BCFHMNDL@Download?5a?5file?5from?5the?5server@ 000000014024cee0     cl_cmd.obj
 0002:00032f08       ??_C@_08HNIAHLMM@download@ 000000014024cf08     cl_cmd.obj
 0002:00032f18       ??_C@_0BP@PLNJHFFA@Check?5server?5response?5status?4?6@ 000000014024cf18     cl_cmd.obj
 0002:00032f38       ??_C@_09NCPIAHOP@heartbeat@ 000000014024cf38     cl_cmd.obj
 0002:00032f48       ??_C@_0BP@NMBHPFHO@Connection?5attempt?5cancelled?4?6@ 000000014024cf48     cl_cmd.obj
 0002:00032f68       ??_C@_0BF@NOINFGFP@connect?3?5?$DMhost?5ip?$DO?4?6@ 000000014024cf68     cl_cmd.obj
 0002:00032f80       ??_C@_0BB@IHCIEHKB@No?5active?5game?4?6@ 000000014024cf80     cl_cmd.obj
 0002:00032f98       ??_C@_0BH@PPHFJGBF@download?3?5?$DMfilename?$DO?4?6@ 000000014024cf98     cl_cmd.obj
 0002:00032fb0       ??_C@_0BO@JIEEFCNB@download?3?5no?5file?5specified?4?6@ 000000014024cfb0     cl_cmd.obj
 0002:00032fd0       ??_C@_0BB@ELDNKJIM@Cmd_DownloadFile@ 000000014024cfd0     cl_cmd.obj
 0002:00032fe8       ??_C@_0CA@HPMCJKGH@?$CFs?5?9?5Failed?5to?5download?5files?4?6@ 000000014024cfe8     cl_cmd.obj
 0002:00033008       ??_C@_0BE@DMOHDPOL@CL_AllocEntityLight@ 000000014024d008     cl_efx.obj
 0002:00033020       ??_C@_0CD@JOGLMBAE@?$CFs?5?9?5Attachment?5index?5is?5invali@ 000000014024d020     cl_efx.obj
 0002:00033048       ??_C@_0BG@IAOLKFBL@Failed?5to?5load?5?8?$CFs?8?4?6@ 000000014024d048     cl_main.obj
 0002:00033060       ??_C@_0P@JAGFHGLJ@ClientDLL_Init@ 000000014024d060     cl_main.obj
 0002:00033070       ??_C@_0DA@CIEANBH@Failed?5to?5hook?5?8ClientDLL_Init?8@ 000000014024d070     cl_main.obj
 0002:000330a0       ??_C@_0BM@LNMGANMP@Failed?5to?5init?5client?5dll?4?6@ 000000014024d0a0     cl_main.obj
 0002:000330c0       ??_C@_0BN@POELNMEB@Default?5field?5of?5view?5value?4@ 000000014024d0c0     cl_main.obj
 0002:000330e0       ??_C@_0BP@GJOOKNNE@Reference?5field?5of?5view?5value?4@ 000000014024d0e0     cl_main.obj
 0002:00033100       ??_C@_0P@KICNIOCE@Player?8s?5name?4@ 000000014024d100     cl_main.obj
 0002:00033110       ??_C@_0O@FHCNLPF@Chris?5Cornell@ 000000014024d110     cl_main.obj
 0002:00033120       ??_C@_04MEMAJGDJ@name@     000000014024d120     cl_main.obj
 0002:00033128       ??_C@_0BL@IGELHIBJ@Toggles?5player?5prediction?4@ 000000014024d128     cl_main.obj
 0002:00033144       ??_C@_01HIHLOKLC@1@        000000014024d144     cl_main.obj
 0002:00033148       ??_C@_0L@JPLOLKIH@cl_predict@ 000000014024d148     cl_main.obj
 0002:00033158       ??_C@_0N@GKADFOBH@Game?5reset?4?6@ 000000014024d158     cl_main.obj
 0002:00033168       ??_C@_0BI@POKNABFE@Worldmodel?5not?5loaded?4?6@ 000000014024d168     cl_main.obj
 0002:00033180       ??_C@_0M@FPJLJIOH@CL_InitGame@ 000000014024d180     cl_main.obj
 0002:00033190       ??_C@_0CH@DBNAKNAN@?$CFs?5?9?5Failed?5to?5get?5WAD?5list?5for@ 000000014024d190     cl_main.obj
 0002:000331b8       ??_C@_0BF@KEAGBNIB@Loading?5WAD?5files?4?4?4@ 000000014024d1b8     cl_main.obj
 0002:000331d0       ??_C@_0CK@EFHKBCDL@?$CFs?5?9?5Failed?5to?5initialize?5WAD?5r@ 000000014024d1d0     cl_main.obj
 0002:00033200       ??_C@_0BF@BGJCHGJD@Game?5initialized?5on?5@ 000000014024d200     cl_main.obj
 0002:00033218       ??_C@_02MIICKFIN@?4?6@     000000014024d218     cl_main.obj
 0002:00033220       ??_C@_0BE@GPIPKOE@No?5host?5specified?4?6@ 000000014024d220     cl_main.obj
 0002:00033238       ??_C@_0BG@EFIOGAJ@Retrying?5connection?4?6@ 000000014024d238     cl_main.obj
 0002:00033250       ??_C@_0BE@OJKLJNKK@Failed?5to?5connect?4?6@ 000000014024d250     cl_main.obj
 0002:00033268       ??_C@_09IPAEKDAI@localhost@ 000000014024d268     cl_main.obj
 0002:00033278       ??_C@_0BD@OGBLFPCO@Connecting?5to?5?$CFs?4?6@ 000000014024d278     cl_main.obj
 0002:00033290       ??_C@_0BA@BDJAFLKE@Not?5connected?4?6@ 000000014024d290     cl_main.obj
 0002:000332a0       ??_C@_0CA@JEMNKPOA@Disconnected?5from?5server?5?9?5?$CFs?4?6@ 000000014024d2a0     cl_main.obj
 0002:000332c0       ??_C@_0BL@BCGMMPDP@Disconnected?5from?5server?4?6@ 000000014024d2c0     cl_main.obj
 0002:000332e0       ??_C@_0P@BFDNJMKP@Disconnected?4?6@ 000000014024d2e0     cl_main.obj
 0002:000332f0       ??_C@_0CB@DNHIJKGO@Failure?5at?5game?5initialization?4@ 000000014024d2f0     cl_main.obj
 0002:00033318       ??_C@_0BG@POEDFPLM@CL_PrecacheFlexScript@ 000000014024d318     cl_main.obj
 0002:00033330       ??_C@_0CF@GCJBNHDD@?$CFs?5?9?5Flex?5manager?5not?5initializ@ 000000014024d330     cl_main.obj
 0002:00033358       ??_C@_0CB@PHAMMEHA@?$CFs?5?9?5Failed?5to?5load?5script?3?5?$CFs?4@ 000000014024d358     cl_main.obj
 0002:00033380       ??_C@_0BB@NONPCHOJ@CL_SetFlexScript@ 000000014024d380     cl_main.obj
 0002:00033398       ??_C@_0CM@KNKFAKDD@?$CFs?5?9?5Could?5not?5get?5entity?5for?5s@ 000000014024d398     cl_main.obj
 0002:000333c8       ??_C@_0DG@FNIMIFKE@?$CFs?5?9?5Could?5not?5get?5entity?5extra@ 000000014024d3c8     cl_main.obj
 0002:00033400       ??_C@_0BB@PLGPMHEM@CL_ClientCommand@ 000000014024d400     cl_main.obj
 0002:00033418       ??_C@_0BG@CADOJEMJ@?$CFs?5?9?5No?5active?5game?4?6@ 000000014024d418     cl_main.obj
 0002:00033430       ??_C@_0BB@NLCMJIIN@CL_ServerCommand@ 000000014024d430     cl_main.obj
 0002:00033444       ??_C@_04PEFJGNPP@cmd?5@    000000014024d444     cl_main.obj
 0002:00033450       ??_C@_0BL@MGPCFJOI@CL_LinkMapTextureMaterials@ 000000014024d450     cl_main.obj
 0002:00033470       ??_C@_0DL@NIBPNBCB@?$CFs?5?9?5Failed?5to?5find?5material?5fi@ 000000014024d470     cl_main.obj
 0002:000334b0       ??_C@_0L@CFOCDAO@Short?5read@ 000000014024d4b0     cl_msg.obj
 0002:000334c0       ??_C@_0BO@HFDEAHOH@Read?5out?5of?5bounds?5on?5message@ 000000014024d4c0     cl_msg.obj
 0002:000334e0       ??_C@_1ME@CCJDECDP@?$AAD?$AA?3?$AA?2?$AAs?$AAo?$AAu?$AAr?$AAc?$AAe?$AAs?$AAd?$AAk?$AA?2?$AAp?$AAa@ 000000014024d4e0     cl_msg.obj
 0002:000335a8       ??_C@_1CO@POBEKLP@?$AAp?$AAn?$AAe?$AAt?$AAw?$AAo?$AAr?$AAk?$AAi?$AAn?$AAg?$AA?5?$AA?$CB?$AA?$DN?$AA?5@ 000000014024d5a8     cl_msg.obj
 0002:000335d8       ??_C@_0BA@NFFPGCGP@CL_ReadMessages@ 000000014024d5d8     cl_msg.obj
 0002:000335e8       ??_C@_0CB@HLEDEMKI@?$CFs?5?9?5Error?5reading?5message?3?5?$CFs?4@ 000000014024d5e8     cl_msg.obj
 0002:00033610       ??_C@_0P@DODEFNPN@?$CFs?5?9?5svc_bad?4?6@ 000000014024d610     cl_msg.obj
 0002:00033620       ??_C@_0BC@DBKHKJCF@CL_ParseHeartBeat@ 000000014024d620     cl_msg.obj
 0002:00033638       ??_C@_0BN@OHJFFEEK@Sever?5response?5time?3?5?$CFd?5ms?4?6@ 000000014024d638     cl_msg.obj
 0002:00033658       ??_C@_0BF@COJPHCMO@CL_ParseAddAVelocity@ 000000014024d658     cl_msg.obj
 0002:00033670       ??_C@_0BG@DCADEKNC@CL_ParseViewSetAngles@ 000000014024d670     cl_msg.obj
 0002:00033688       ??_C@_0BG@DPAJAFPB@CL_ParseClientCommand@ 000000014024d688     cl_msg.obj
 0002:000336a0       ??_C@_0BD@LDKDACNN@CL_ParseServerInfo@ 000000014024d6a0     cl_msg.obj
 0002:000336b8       ??_C@_0BA@OMCLDODJ@CL_ReadMoveVars@ 000000014024d6b8     cl_msg.obj
 0002:000336c8       ??_C@_0BC@DGCFFBNK@CL_ReadClientData@ 000000014024d6c8     cl_msg.obj
 0002:000336e0       ??_C@_0P@EFPJIDKC@Rejected?3?5?$CFs?4?6@ 000000014024d6e0     cl_msg.obj
 0002:000336f0       ??_C@_0BG@ICOODPKD@Dropped?5from?5server?4?6@ 000000014024d6f0     cl_msg.obj
 0002:00033708       ??_C@_0BB@BPPFHNLM@CL_DisconnectMsg@ 000000014024d708     cl_msg.obj
 0002:00033720       ??_C@_0BG@DDAOLGOP@CL_ReadPacketEntities@ 000000014024d720     cl_msg.obj
 0002:00033738       ??_C@_0CC@LPBOFDJD@CL_ReadPacketEntities?5?9?5svc_bad@ 000000014024d738     cl_msg.obj
 0002:00033760       ??_C@_0BG@LFKBMFJE@CL_FileConsistencyMsg@ 000000014024d760     cl_msg.obj
 0002:00033778       ??_C@_0BL@DDOPNNAJ@?$CFs?5?9?5Could?5not?5load?5?8?$CFs?8?4?6@ 000000014024d778     cl_msg.obj
 0002:00033798       ??_C@_0BD@KEEJOMHJ@CL_ReadUserMessage@ 000000014024d798     cl_msg.obj
 0002:000337b0       ??_C@_0CJ@LDBMILPH@?$CFs?5?9?5Message?5with?5bogus?5id?5?$CFd?5r@ 000000014024d7b0     cl_msg.obj
 0002:000337e0       ??_C@_0DB@CHHHOFFF@?$CFs?5?9?5Message?5?8?$CFs?8?5function?5not?5@ 000000014024d7e0     cl_msg.obj
 0002:00033818       ??_C@_0DC@EPCHNAIB@?$CFs?5?9?5Client?5returned?5error?5on?5m@ 000000014024d818     cl_msg.obj
 0002:00033850       ??_C@_0BP@GLHIFMOJ@CL_ReadParticlePrecacheMessage@ 000000014024d850     cl_msg.obj
 0002:00033870       ??_C@_0BM@KMGBPMP@CL_ReadDecalPrecacheMessage@ 000000014024d870     cl_msg.obj
 0002:00033890       ??_C@_0BH@HAANOIJF@CL_RegisterUserMessage@ 000000014024d890     cl_msg.obj
 0002:000338b0       ??_C@_0EM@GIKAMNOD@?$CFs?5?9?5Mismatch?5with?5user?5message@ 000000014024d8b0     cl_msg.obj
 0002:00033900       ??_C@_08BOJNNJAF@MsgFunc_@ 000000014024d900     cl_msg.obj
 0002:00033910       ??_C@_0CJ@HDPCPBDJ@?$CFs?5?9?5Function?5?8?$CFs?8?5not?5found?5on@ 000000014024d910     cl_msg.obj
 0002:00033940       ??_C@_0BK@HBCEKIOP@CL_ReadSoundEngineMessage@ 000000014024d940     cl_msg.obj
 0002:00033960       ??_C@_0EA@KJJEGIME@?$CFs?5?9?5Invalid?5volume?5?$CFf?5for?5ambi@ 000000014024d960     cl_msg.obj
 0002:000339a0       ??_C@_0DP@LAJFOFCJ@?$CFs?5?9?5Invalid?5volume?5?$CFf?5for?5soun@ 000000014024d9a0     cl_msg.obj
 0002:000339e0       ??_C@_0BP@CFLBFJEJ@?$CFs?5?9?5Unknown?5message?5type?5?$CFd?4?6@ 000000014024d9e0     cl_msg.obj
 0002:00033a00       ??_C@_0BI@NDPLDIAD@CL_ClientUserMessageEnd@ 000000014024da00     cl_msg.obj
 0002:00033a18       ??_C@_0CE@FGICLHKO@?$CFs?5?9?5Invalid?5message?5send?5attem@ 000000014024da18     cl_msg.obj
 0002:00033a40       ??_C@_0EI@JBLGALNB@?$CFs?5?9?5User?5message?5?8?$CFs?8?5mismatch@ 000000014024da40     cl_msg.obj
 0002:00033a88       ??_C@_0CO@IPMIBCAJ@?$CFs?5?9?5Bogus?5message?5size?5?$CFd?5for?5@ 000000014024da88     cl_msg.obj
 0002:00033ab8       ??_C@_0BO@IFBNCFDP@CL_ClientRegisterUserMessages@ 000000014024dab8     cl_msg.obj
 0002:00033ad8       ??_C@_0CL@CPHFMJCD@?$CFs?5?9?5Client?5is?5not?5connected?5to@ 000000014024dad8     cl_msg.obj
 0002:00033b08       ??_C@_0P@JEPMMBNJ@CL_PlayerTrace@ 000000014024db08     cl_pmove.obj
 0002:00033b18       ??_C@_0BL@PIGLHHBP@?$CFs?5?9?5Bogus?5hull?5index?5?$CFd?4?6@ 000000014024db18     cl_pmove.obj
 0002:00033b38       ??_C@_0O@IDILNLGF@CL_HullForBSP@ 000000014024db38     cl_pmove.obj
 0002:00033b50       ??_C@_0EG@PIMOJKGK@?$CFs?5called?5with?5an?5pentity?5?$CFd?5th@ 000000014024db50     cl_pmove.obj
 0002:00033b98       ??_C@_0O@BHNJKHNL@CL_TraceModel@ 000000014024db98     cl_pmove.obj
 0002:00033ba8       ??_C@_0BA@KGIAAPBD@CL_TraceTexture@ 000000014024dba8     cl_pmove.obj
 0002:00033bb8       ??_C@_0BN@NCJPAFO@?$CFs?5?9?5Bogus?5entity?5index?5?$CFd?4?6@ 000000014024dbb8     cl_pmove.obj
 0002:00033bd8       ??_C@_0CN@HFOFLEDC@?$CFs?5?9?5Called?5on?5entity?5?$CFd?5with?5n@ 000000014024dbd8     cl_pmove.obj
 0002:00033c10       ??_C@_1MG@NKAOHELE@?$AAD?$AA?3?$AA?2?$AAs?$AAo?$AAu?$AAr?$AAc?$AAe?$AAs?$AAd?$AAk?$AA?2?$AAp?$AAa@ 000000014024dc10     cl_resource.obj
 0002:00033cd8       ??_C@_1CE@FPBIILMK@?$AAi?$AAn?$AAd?$AAe?$AAx?$AA?5?$AA?$DM?$AA?5?$AAm?$AA_?$AAn?$AAu?$AAm?$AAB?$AAi@ 000000014024dcd8     cl_resource.obj
 0002:00033d00       ??_C@_1FC@DMIMAEBE@?$AAm?$AA_?$AAp?$AAD?$AAa?$AAt?$AAa?$AAA?$AAr?$AAr?$AAa?$AAy?$AA?5?$AA?$CB?$AA?$DN@ 000000014024dd00     cl_resource.obj
 0002:00033d58       ??_C@_0BF@KJCFCBEM@Download?5cancelled?4?6@ 000000014024dd58     cl_resource.obj
 0002:00033d70       ??_C@_0BL@MMIHLIAI@CL_GetResourceAbsolutePath@ 000000014024dd70     cl_resource.obj
 0002:00033d90       ??_C@_0CH@PKNNPOFB@?$CFs?5?9?5Invalid?5resource?5type?5?$CFd?5f@ 000000014024dd90     cl_resource.obj
 0002:00033db8       ??_C@_0CB@PMEMIDLB@Beginning?5download?5of?5?$CFd?5files?4@ 000000014024ddb8     cl_resource.obj
 0002:00033de0       ??_C@_0CA@IAFCHIAA@Beginning?5download?5of?5?$CFd?5file?4?6@ 000000014024dde0     cl_resource.obj
 0002:00033e00       ??_C@_0BG@CLBJBGPF@CL_BeginFilesDownload@ 000000014024de00     cl_resource.obj
 0002:00033e18       ??_C@_0DF@JJBGPIBM@?$CFs?5?9?5Download?5initiated?5with?5no@ 000000014024de18     cl_resource.obj
 0002:00033e50       ??_C@_0BP@EGDNAOOD@Failed?5to?5create?5exit?5window?4?6@ 000000014024de50     cl_resource.obj
 0002:00033e70       ??_C@_0BA@CMDECMBH@CL_ReadFileInfo@ 000000014024de70     cl_resource.obj
 0002:00033e80       ??_C@_0EH@HNFCFFIC@?$CFs?5?9?5File?5?8?$CFs?8?5data?5received?5do@ 000000014024de80     cl_resource.obj
 0002:00033ec8       ??_C@_0BB@DFOAPCOK@CL_LoadResources@ 000000014024dec8     cl_resource.obj
 0002:00033ee0       ??_C@_0DD@DLPLDGKL@?$CFs?5?9?5No?5resources?5were?5retreive@ 000000014024dee0     cl_resource.obj
 0002:00033f18       ??_C@_0BN@HJHKFLBA@?$CFs?5?9?5Failed?5to?5precache?5?$CFs?4?6@ 000000014024df18     cl_resource.obj
 0002:00033f38       ??_C@_0BN@EMLPEOFE@?$CFs?5?9?5Could?5not?5precache?5?$CFs?4?6@ 000000014024df38     cl_resource.obj
 0002:00033f58       ??_C@_0BI@KLFBHEJA@CL_FinishDownloadedFile@ 000000014024df58     cl_resource.obj
 0002:00033f70       ??_C@_0CE@KGKFLPMG@?$CFs?5?9?5Invalid?5filesize?5?$CFd?5for?5?8?$CF@ 000000014024df70     cl_resource.obj
 0002:00033f98       ??_C@_0DD@KDIINOHI@?$CFs?5?9?5Overindexing?5on?5file?5buffe@ 000000014024df98     cl_resource.obj
 0002:00033fcc       ??_C@_01KMDKNFGN@?1@       000000014024dfcc     cl_resource.obj
 0002:00033fd0       ??_C@_01LFCBOECM@?4@       000000014024dfd0     cl_resource.obj
 0002:00033fd8       ??_C@_0CB@GCCNILA@?$CFs?5?9?5Failed?5to?5write?5file?5?8?$CFs?8?4@ 000000014024dfd8     cl_resource.obj
 0002:00034000       ??_C@_0BC@BEMCFBOC@Downloaded?5?8?$CFs?8?4?6@ 000000014024e000     cl_resource.obj
 0002:00034018       ??_C@_0BB@GIEDEHAH@CL_ReadFileChunk@ 000000014024e018     cl_resource.obj
 0002:00034030       ??_C@_0DH@HDDFOMAK@?$CFs?5?9?5Mismatch?5in?5file?5ID?4?5Recei@ 000000014024e030     cl_resource.obj
 0002:00034068       ??_C@_0BE@PIIIBCOG@CL_ReadResourceList@ 000000014024e068     cl_resource.obj
 0002:00034080       ??_C@_0BH@FJFKLDPA@CL_ReadResourceMessage@ 000000014024e080     cl_resource.obj
 0002:000340a0       ??_C@_1LC@HJFHNGB@?$AAD?$AA?3?$AA?2?$AAs?$AAo?$AAu?$AAr?$AAc?$AAe?$AAs?$AAd?$AAk?$AA?2?$AAp?$AAa@ 000000014024e0a0     cl_snd.obj
 0002:00034158       ??_C@_1DK@LPFHLHGB@?$AAi?$AAn?$AAd?$AAe?$AAx?$AA?5?$AA?$DO?$AA?$DN?$AA?5?$AA0?$AA?5?$AA?$CG?$AA?$CG?$AA?5?$AAi@ 000000014024e158     cl_snd.obj
 0002:000341a0       ??_C@_0FI@GOENBBPO@playmusic?5usage?3?5playmusic?5?$DMfil@ 000000014024e1a0     cl_snd.obj
 0002:000341f8       ??_C@_04GKOOIABA@loop@     000000014024e1f8     cl_snd.obj
 0002:00034200       ??_C@_04PEGFANN@stop@      000000014024e200     cl_snd.obj
 0002:00034208       ??_C@_0BA@GKKALKNG@Failed?5to?5load?5@ 000000014024e208     cl_snd.obj
 0002:00034218       ??_C@_05NAOIJFC@Error@     000000014024e218     cl_snd.obj
 0002:00034220       ??_C@_0BD@INKOBHLP@CSoundEngine?3?3Init@ 000000014024e220     cl_snd.obj
 0002:00034238       ??_C@_0BM@HDEMBNCI@?$CFs?5?9?5alcOpenDevice?5failed?4?6@ 000000014024e238     cl_snd.obj
 0002:00034258       ??_C@_0CI@NCADFHFK@Sound?5engine?5failed?5to?5create?5c@ 000000014024e258     cl_snd.obj
 0002:00034280       ??_C@_0N@CKLHBBDJ@alGenEffects@ 000000014024e280     cl_snd.obj
 0002:00034290       ??_C@_0BA@FFPPLMJO@alDeleteEffects@ 000000014024e290     cl_snd.obj
 0002:000342a0       ??_C@_09FADHGDNE@alEffecti@ 000000014024e2a0     cl_snd.obj
 0002:000342b0       ??_C@_09NHKPHPBL@alEffectf@ 000000014024e2b0     cl_snd.obj
 0002:000342c0       ??_C@_0L@PDNHLIOD@alEffectfv@ 000000014024e2c0     cl_snd.obj
 0002:000342d0       ??_C@_0BK@HCDNPKBJ@alGenAuxiliaryEffectSlots@ 000000014024e2d0     cl_snd.obj
 0002:000342f0       ??_C@_0BN@JBMKABOK@alDeleteAuxiliaryEffectSlots@ 000000014024e2f0     cl_snd.obj
 0002:00034310       ??_C@_0BH@FGDDECAJ@alAuxiliaryEffectSloti@ 000000014024e310     cl_snd.obj
 0002:00034328       ??_C@_0BH@NBKLFOMG@alAuxiliaryEffectSlotf@ 000000014024e328     cl_snd.obj
 0002:00034340       ??_C@_0EO@FCKOFBON@Sound?5engine?5failed?5to?5load?5fun@ 000000014024e340     cl_snd.obj
 0002:00034390       ??_C@_0BI@BNHEFALP@Controls?5master?5volume?4@ 000000014024e390     cl_snd.obj
 0002:000343a8       ??_C@_0BG@CKOBHMBG@Controls?5game?5volume?4@ 000000014024e3a8     cl_snd.obj
 0002:000343c0       ??_C@_0BH@FNKIJGOP@Controls?5music?5volume?4@ 000000014024e3c0     cl_snd.obj
 0002:000343d8       ??_C@_0CC@BEFHMNJP@Controls?5sound?5occlusion?5dimmin@ 000000014024e3d8     cl_snd.obj
 0002:00034400       ??_C@_0M@HAIOFEPD@s_occlusion@ 000000014024e400     cl_snd.obj
 0002:00034410       ??_C@_0BK@DOCNOIMP@Draws?5sound?5debug?5points?4@ 000000014024e410     cl_snd.obj
 0002:0003442c       ??_C@_01GBGANLPD@0@        000000014024e42c     cl_snd.obj
 0002:00034430       ??_C@_07EGIBPCJJ@s_debug@  000000014024e430     cl_snd.obj
 0002:00034438       ??_C@_0CD@EOPFEIPH@Load?5larger?5audio?5files?5on?9dema@ 000000014024e438     cl_snd.obj
 0002:00034460       ??_C@_0L@HLDMMGNE@s_ondemand@ 000000014024e460     cl_snd.obj
 0002:00034470       ??_C@_0BK@DHAFIMAO@Error?5loading?5sentences?4?6@ 000000014024e470     cl_snd.obj
 0002:00034490       ??_C@_0BE@GGEBGCCG@Plays?5a?5music?5track@ 000000014024e490     cl_snd.obj
 0002:000344a8       ??_C@_09MANOOBPO@playmusic@ 000000014024e4a8     cl_snd.obj
 0002:000344b8       ??_C@_0BH@MOGPLMPI@Stops?5any?5music?5tracks@ 000000014024e4b8     cl_snd.obj
 0002:000344d0       ??_C@_0BB@IKFGLMFE@Set?5HRTF?5setting@ 000000014024e4d0     cl_snd.obj
 0002:000344e8       ??_C@_09MPCJMFGF@s_sethrtf@ 000000014024e4e8     cl_snd.obj
 0002:000344f8       ??_C@_0BN@ODMHECB@OpenAL?5version?5?$CFs?5detected?4?6@ 000000014024e4f8     cl_snd.obj
 0002:00034518       ??_C@_0CN@GCHFCHDO@Sound?5engine?5initialization?5was@ 000000014024e518     cl_snd.obj
 0002:00034548       ??_C@_0DE@EGBDFNNM@Head?9related?5transfer?5function?5@ 000000014024e548     cl_snd.obj
 0002:00034580       ??_C@_0DD@BNKAOLFJ@Head?9related?5transfer?5function?5@ 000000014024e580     cl_snd.obj
 0002:000345b8       ??_C@_0DC@BIPJLAJF@Head?9related?5transfer?5function?5@ 000000014024e5b8     cl_snd.obj
 0002:000345f0       ??_C@_0EC@ODIFFPAO@Head?9related?5transfer?5function?5@ 000000014024e5f0     cl_snd.obj
 0002:00034640       ??_C@_0FF@PAMBJKGD@Head?9related?5transfer?5function?5@ 000000014024e640     cl_snd.obj
 0002:00034698       ??_C@_0BD@MCAADFCE@Shader?5error?3?5?$CFs?4?6@ 000000014024e698     cl_snd.obj
 0002:000346b0       ??_C@_0BJ@GIIEPCJP@CSoundEngine?3?3ClearCache@ 000000014024e6b0     cl_snd.obj
 0002:000346d0       ??_C@_0EH@NDEMHGAA@?$CFs?5?9?5Effect?5with?5entity?5?$CFd?0?5ser@ 000000014024e6d0     cl_snd.obj
 0002:00034718       ??_C@_06PFKKMJJD@sound?2@  000000014024e718     cl_snd.obj
 0002:00034720       ??_C@_0BM@NJIEPPCN@CSoundEngine?3?3LoadSoundData@ 000000014024e720     cl_snd.obj
 0002:00034740       ??_C@_0BO@LELGJDDC@?$CFs?5?9?5Could?5not?5precache?3?5?$CFs?4?6@ 000000014024e740     cl_snd.obj
 0002:00034760       ??_C@_04EPCGJKAP@RIFF@     000000014024e760     cl_snd.obj
 0002:00034768       ??_C@_0CD@EAFFHAMJ@?$CFs?5?9?5?$CFs?5is?5not?5a?5valid?5?4WAV?5fil@ 000000014024e768     cl_snd.obj
 0002:0003478c       ??_C@_04CAJPEBPP@fmt?5@    000000014024e78c     cl_snd.obj
 0002:00034794       ??_C@_04GADGHILI@cue?5@    000000014024e794     cl_snd.obj
 0002:0003479c       ??_C@_04PJOLNDGD@data@     000000014024e79c     cl_snd.obj
 0002:000347a8       ??_C@_0CM@LNBBODMJ@?$CFs?5?9?5Sound?5?8?$CFs?8?5marked?5for?5on?9d@ 000000014024e7a8     cl_snd.obj
 0002:000347d4       ??_C@_04IMEPLDLJ@?4WAV@    000000014024e7d4     cl_snd.obj
 0002:000347dc       ??_C@_04EDENFOBH@?4ogg@    000000014024e7dc     cl_snd.obj
 0002:000347e4       ??_C@_04EOLGJDGL@?4OGG@    000000014024e7e4     cl_snd.obj
 0002:000347f0       ??_C@_0CC@BMGKICBK@CSoundEngine?3?3PrecacheServerSou@ 000000014024e7f0     cl_snd.obj
 0002:00034818       ??_C@_0BO@OFKOLMLK@?$CFs?5?9?5Unknown?5file?5type?5?8?$CFs?8?4?6@ 000000014024e818     cl_snd.obj
 0002:00034838       ??_C@_0BM@DPFIHMJO@CSoundEngine?3?3GetSoundCache@ 000000014024e838     cl_snd.obj
 0002:00034858       ??_C@_0CB@ECDNCOLC@?$CFs?5?9?5Invalid?5sentence?5index?5?$CFd?4@ 000000014024e858     cl_snd.obj
 0002:00034880       ??_C@_0DA@NIAHMJPP@?$CFs?5?9Failed?5to?5cache?5server?5soun@ 000000014024e880     cl_snd.obj
 0002:000348b0       ??_C@_0BK@IBCEPPIP@CSoundEngine?3?3UpdateSound@ 000000014024e8b0     cl_snd.obj
 0002:000348d0       ??_C@_0CP@GJKHBBJC@?$CFs?5?9?5Non?9update?5call?5recieved?5f@ 000000014024e8d0     cl_snd.obj
 0002:00034900       ??_C@_0DN@EKIMEJJH@?$CFs?5?9?5Couldn?8t?5update?5sound?5?8?$CFs?8@ 000000014024e900     cl_snd.obj
 0002:00034940       ??_C@_0BI@MLKMBMLM@CSoundEngine?3?3PlaySound@ 000000014024e940     cl_snd.obj
 0002:00034960       ??_C@_0EE@NFJCMBJL@?$CFs?5?9?5Attempted?5to?5play?5game?5sou@ 000000014024e960     cl_snd.obj
 0002:000349b0       ??_C@_0FE@NEPDDDLL@?$CFs?5?9?5Attempted?5to?5play?5game?5sou@ 000000014024e9b0     cl_snd.obj
 0002:00034a08       ??_C@_0DJ@BKJFKHBP@?$CFs?5?9?5Invalid?5volume?5?$CFf?5for?5soun@ 000000014024ea08     cl_snd.obj
 0002:00034a48       ??_C@_0CL@KEAHLLG@?$CFs?5?9?5Update?5call?5recieved?5for?5s@ 000000014024ea48     cl_snd.obj
 0002:00034a78       ??_C@_0DM@IADBIMMB@?$CFs?5?9?5Could?5not?5allocate?5sound?5s@ 000000014024ea78     cl_snd.obj
 0002:00034ab8       ??_C@_0CG@KAMFAPDL@?$CFs?5?9?5Playing?5sound?5?$CFs?5for?5entit@ 000000014024eab8     cl_snd.obj
 0002:00034ae0       ??_C@_0DN@BFMNCPDB@Warning?3?5Sound?5?$CFs?5with?5small?5ra@ 000000014024eae0     cl_snd.obj
 0002:00034b20       ??_C@_0BF@OHLOHKPH@CSoundEngine?3?3Stream@ 000000014024eb20     cl_snd.obj
 0002:00034b40       ??_C@_0EB@OGBLICBL@?$CFs?5?9?5Error?5streaming?5?8?$CFs?8?4?5Corr@ 000000014024eb40     cl_snd.obj
 0002:00034b88       ??_C@_0DF@MNDDMDDN@?$CFs?5?9?5Error?5streaming?5?8?$CFs?8?4?5Inva@ 000000014024eb88     cl_snd.obj
 0002:00034bc0       ??_C@_0DE@JHKDOLDC@?$CFs?5?9?5Error?5streaming?5?8?$CFs?8?4?5Stre@ 000000014024ebc0     cl_snd.obj
 0002:00034bf8       ??_C@_0BF@KNAJBDDN@CSoundEngine?3?3Update@ 000000014024ebf8     cl_snd.obj
 0002:00034c10       ??_C@_0DF@GJKLKJED@?$CFs?5?9?5Playing?5chunk?5?$CFs?5of?5senten@ 000000014024ec10     cl_snd.obj
 0002:00034c48       ??_C@_0L@GHIHOBPC@Bip01?5Head@ 000000014024ec48     cl_snd.obj
 0002:00034c58       ??_C@_0BN@BEMBAJIP@?$CFs?5?9?5Sound?5system?5overflow?$CB?6@ 000000014024ec58     cl_snd.obj
 0002:00034c78       ??_C@_0BG@LOBEKGIC@CSoundEngine?3?3PlayOgg@ 000000014024ec78     cl_snd.obj
 0002:00034c90       ??_C@_0CM@BGGGOOIB@?$CFs?5?9?5Invalid?5music?5channel?5?8?$CFd?8@ 000000014024ec90     cl_snd.obj
 0002:00034cc0       ??_C@_0CI@ONCIEPME@?$CFs?5?9?5Decode?5error?5on?5music?5trac@ 000000014024ecc0     cl_snd.obj
 0002:00034ce8       ??_C@_0DK@PNIEKDKM@?$CFs?5?9?5Bad?5time?5offset?5?$CFf?5on?5file@ 000000014024ece8     cl_snd.obj
 0002:00034d28       ??_C@_0CO@LOGBIIDH@?$CFs?5?9?5Bad?5seek?5on?5file?5?8?$CFs?8?5with@ 000000014024ed28     cl_snd.obj
 0002:00034d58       ??_C@_0BK@EKGOKGLL@CSoundEngine?3?3StopOggFade@ 000000014024ed58     cl_snd.obj
 0002:00034d80       ??_C@_0FB@OLBHBAME@?$CFs?5?9?5Called?5with?5incorrect?5file@ 000000014024ed80     cl_snd.obj
 0002:00034dd8       ??_C@_0BG@FDLAHAMJ@CSoundEngine?3?3StopOgg@ 000000014024edd8     cl_snd.obj
 0002:00034df0       ??_C@_0BD@HKEMMNLN@Failed?5to?5load?5?$CFs?6@ 000000014024edf0     cl_snd.obj
 0002:00034e08       ??_C@_0BP@FAGMDLHN@CSoundEngine?3?3ApplySoundEffect@ 000000014024ee08     cl_snd.obj
 0002:00034e28       ??_C@_0DH@DBJKILNN@?$CFs?5?9?5Couldn?8t?5find?5sound?5file?5w@ 000000014024ee28     cl_snd.obj
 0002:00034e60       ??_C@_0CO@JKEJJLPL@?$CFs?5?9?5Invalid?5entity?5index?5?$CFd?5fo@ 000000014024ee60     cl_snd.obj
 0002:00034e90       ??_C@_0EB@PIJIBEKI@?$CFs?5?9?5No?5duration?5specified?5for?5@ 000000014024ee90     cl_snd.obj
 0002:00034ed8       ??_C@_0DJ@GAFNMPDD@?$CFs?5?9?5Unknown?5effect?5type?5?8?$CFd?8?5s@ 000000014024eed8     cl_snd.obj
 0002:00034f18       ??_C@_0BM@CBOBAOFB@CSoundEngine?3?3LoadSentences@ 000000014024ef18     cl_snd.obj
 0002:00034f38       ??_C@_0CA@MCJODJIN@?$CFs?5?9?5Failed?5to?5init?5sentences?4?6@ 000000014024ef38     cl_snd.obj
 0002:00034f58       ??_C@_0DK@LMNJENOC@s_sethrtf?5usage?5?9?5s_sethrtf?5?$DM0?5@ 000000014024ef58     cl_snd.obj
 0002:00034f98       ??_C@_0DP@DDDGLPFJ@HRTF?5setting?5will?5only?5take?5eff@ 000000014024ef98     cl_snd.obj
 0002:00034fd8       ??_C@_0BL@NCKBKLCE@HRTF?5setting?5not?5changed?4?6@ 000000014024efd8     cl_snd.obj
 0002:00034ff8       ??_C@_0L@FKMMBKBD@sv_gravity@ 000000014024eff8     cl_tempentities.obj
 0002:00035008       ??_C@_0BJ@HDOGMKJC@CTempEntityManager?3?3Init@ 000000014024f008     cl_tempentities.obj
 0002:00035028       ??_C@_0CH@MJLCLPPI@?$CFs?5?9?5Failed?5to?5get?5cvar?5?8sv_gra@ 000000014024f028     cl_tempentities.obj
 0002:00035050       ??_C@_0O@FNHPFKJA@glass_clatter@ 000000014024f050     cl_tempentities.obj
 0002:00035060       ??_C@_0O@LMFJLHGA@metal_clatter@ 000000014024f060     cl_tempentities.obj
 0002:00035070       ??_C@_0P@FNBKBEGJ@flesh_splatter@ 000000014024f070     cl_tempentities.obj
 0002:00035080       ??_C@_0N@LBMBEGMG@wood_clatter@ 000000014024f080     cl_tempentities.obj
 0002:00035090       ??_C@_05OOLEAMGB@shell@    000000014024f090     cl_tempentities.obj
 0002:00035098       ??_C@_0BB@CKHCJDGJ@concrete_clatter@ 000000014024f098     cl_tempentities.obj
 0002:000350b0       ??_C@_09FHNFJOLM@shotshell@ 000000014024f0b0     cl_tempentities.obj
 0002:000350c0       ??_C@_0CI@BALODJIN@CTempEntityManager?3?3PlayTempEnt@ 000000014024f0c0     cl_tempentities.obj
 0002:000350e8       ??_C@_0BP@GCKPGGJK@?$CFs?5?9?5Unknown?5sound?5type?5?8?$CFd?8?4?6@ 000000014024f0e8     cl_tempentities.obj
 0002:00035108       ??_C@_0CB@LAKIILLC@CTempEntityManager?3?3CreateFunne@ 000000014024f108     cl_tempentities.obj
 0002:00035130       ??_C@_0BK@DLGAKCIL@?$CFs?5?9?5No?5model?5specified?4?6@ 000000014024f130     cl_tempentities.obj
 0002:00035150       ??_C@_0CF@MPIGNAF@?$CFs?5?9?5?$CFd?5is?5not?5a?5valid?5model?5in@ 000000014024f150     cl_tempentities.obj
 0002:00035178       ??_C@_0CA@MLCABNJH@?$CFs?5?9?5?$CFd?5is?5not?5a?5sprite?5model?4?6@ 000000014024f178     cl_tempentities.obj
 0002:00035198       ??_C@_0CF@EKGJBDPB@CTempEntityManager?3?3CreateBreak@ 000000014024f198     cl_tempentities.obj
 0002:000351c0       ??_C@_0CC@GFGMAHJL@CTempEntityManager?3?3CreateBubbl@ 000000014024f1c0     cl_tempentities.obj
 0002:000351e8       ??_C@_0CG@PPBADBP@CTempEntityManager?3?3CreateBubbl@ 000000014024f1e8     cl_tempentities.obj
 0002:00035210       ??_C@_0CE@GPBKADPP@CTempEntityManager?3?3CreateTempM@ 000000014024f210     cl_tempentities.obj
 0002:00035238       ??_C@_0BN@LNFBAHF@?$CFs?5?9?5?$CFd?5is?5not?5a?5vbm?5model?4?6@ 000000014024f238     cl_tempentities.obj
 0002:00035258       ??_C@_0CF@EHMFBCOD@CTempEntityManager?3?3CreateTempS@ 000000014024f258     cl_tempentities.obj
 0002:00035280       ??_C@_0CG@HBAENJOB@CTempEntityManager?3?3CreateSpher@ 000000014024f280     cl_tempentities.obj
 0002:000352a8       ??_C@_0BB@OAOPFDFN@CL_PrecacheSound@ 000000014024f2a8     cl_utils.obj
 0002:000352c0       ??_C@_0BP@FIBMLNEC@?$CFs?5?9?5Could?5not?5precache?5?8?$CFs?8?4?6@ 000000014024f2c0     cl_utils.obj
 0002:000352e0       ??_C@_0BB@BILGFIDD@CL_GetAttachment@ 000000014024f2e0     cl_utils.obj
 0002:000352f8       ??_C@_0CB@CDGMIBBF@?$CFs?5?9?5Bogus?5attachment?5index?5?$CFd?4@ 000000014024f2f8     cl_utils.obj
 0002:00035320       ??_C@_0BD@HJKFKFPK@CL_GetBonePosition@ 000000014024f320     cl_utils.obj
 0002:00035338       ??_C@_0CN@JKNDINOF@?$CFs?5?9?5Failed?5to?5get?5bone?5?8?$CFs?8?5fo@ 000000014024f338     cl_utils.obj
 0002:00035368       ??_C@_0BE@DBKCLMCE@Toggles?5the?5console@ 000000014024f368     console.obj
 0002:00035380       ??_C@_0BL@JKOGLGC@Clears?5the?5console?5history@ 000000014024f380     console.obj
 0002:0003539c       ??_C@_05MEHLAELG@clear@    000000014024f39c     console.obj
 0002:000353a8       ??_C@_0DG@BCCJBKAO@Prints?5the?5list?5of?5cvars?5to?5the@ 000000014024f3a8     console.obj
 0002:000353e0       ??_C@_08HKAEGNIC@cvarlist@ 000000014024f3e0     console.obj
 0002:000353f0       ??_C@_0DH@DFCDICJK@Prints?5a?5list?5of?5commands?5to?5th@ 000000014024f3f0     console.obj
 0002:00035428       ??_C@_07LKLFKPJJ@cmdlist@  000000014024f428     console.obj
 0002:00035430       ??_C@_0CF@BEHKDKCH@Dumps?5the?5console?5contents?5to?5a@ 000000014024f430     console.obj
 0002:00035458       ??_C@_07NENKHFEO@condump@  000000014024f458     console.obj
 0002:00035460       ??_C@_0CB@MAEAEPEP@Draws?5recent?5console?5history?5bo@ 000000014024f460     console.obj
 0002:00035488       ??_C@_0P@MHJJJBGA@con_historybox@ 000000014024f488     console.obj
 0002:00035498       ??_C@_0CC@CCNGBHPN@Failed?5to?5create?5console?5window@ 000000014024f498     console.obj
 0002:000354c0       ??_C@_0BL@MLHHBMCP@CVar?5?$CFs?5is?5already?5added?4?6@ 000000014024f4c0     console.obj
 0002:000354e0       ??_C@_0CF@NKDBHIGC@Unknown?5cvar?5type?5specified?5for@ 000000014024f4e0     console.obj
 0002:00035508       ??_C@_0CO@JBPFMCAI@Failed?5to?5set?5userconfig?5data?5f@ 000000014024f508     console.obj
 0002:00035538       ??_C@_0CN@OEKPGNCP@Invalid?5value?5?8?$CFs?8?5set?5for?5floa@ 000000014024f538     console.obj
 0002:00035568       ??_C@_0CP@ILLDNDF@Duplicate?5entry?5for?5?$CFs?5in?5conso@ 000000014024f568     console.obj
 0002:00035598       ??_C@_01CLKCMJKC@?5@       000000014024f598     console.obj
 0002:000355a0       ??_C@_0P@NHHAJOOL@The?5value?5of?5?8@ 000000014024f5a0     console.obj
 0002:000355b0       ??_C@_06GAAFMMGO@?8?5is?5?8@ 000000014024f5b0     console.obj
 0002:000355b8       ??_C@_02MHFDJOAC@?8?6@     000000014024f5b8     console.obj
 0002:000355c0       ??_C@_0CI@GFEOOKAL@?$CFs?5can?5only?5be?5modified?5by?5the?5@ 000000014024f5c0     console.obj
 0002:000355e8       ??_C@_0BL@DGDIPCDL@Failed?5to?5set?5cvar?5value?4?6@ 000000014024f5e8     console.obj
 0002:00035608       ??_C@_0BD@LKAAPMKK@?8?$CFs?8?5set?5to?5?8?$CFf?8?4?6@ 000000014024f608     console.obj
 0002:00035620       ??_C@_0BD@BCAAOEFI@?8?$CFs?8?5set?5to?5?8?$CFs?8?4?6@ 000000014024f620     console.obj
 0002:00035638       ??_C@_0CJ@DGCAFIKA@Failed?5to?5set?5userconfig?5for?5cv@ 000000014024f638     console.obj
 0002:00035668       ??_C@_08BPLPECIC@commands@ 000000014024f668     console.obj
 0002:00035678       ??_C@_0BC@NPBCKGD@console?5variables@ 000000014024f678     console.obj
 0002:0003568c       ??_C@_01OGPIMHDM@?$DP@     000000014024f68c     console.obj
 0002:00035690       ??_C@_0BL@FKGBNHF@?$CFs?5?9?5Prints?5a?5list?5of?5?$CFs?4?6@ 000000014024f690     console.obj
 0002:000356ac       ??_C@_06PHNONPAL@Usage?3@  000000014024f6ac     console.obj
 0002:000356b8       ??_C@_0DI@KEIGOLCN@?7?$CFs?5?$FLpartial?$FN?5?9?5Lists?5all?5?$CFs?5be@ 000000014024f6b8     console.obj
 0002:000356f0       ??_C@_0EE@EKLDIGKN@?7?$CFs?5?$FL?$CKpartial?$FN?5?9?5Lists?5all?5?$CFs?5c@ 000000014024f6f0     console.obj
 0002:00035740       ??_C@_0FK@INMHJJHI@?7?$CFs?5log?5?$FLpartial?$FN?5?9?5Writes?5all?5@ 000000014024f740     console.obj
 0002:000357a0       ??_C@_0GM@PCCNBJFD@?7?$CFs?5log?5?$FL?$CKpartial?$FN?5?9?5Writes?5all@ 000000014024f7a0     console.obj
 0002:00035810       ??_C@_0BC@LKCPFLEJ@?$CFs?5?$DP?5for?5syntax?4?6@ 000000014024f810     console.obj
 0002:00035824       ??_C@_03MGHMBJCF@log@      000000014024f824     console.obj
 0002:00035828       ??_C@_0BI@MIBJHDOJ@Console?5variables?5list?4@ 000000014024f828     console.obj
 0002:00035840       ??_C@_0O@OMFLFDMK@Command?5list?4@ 000000014024f840     console.obj
 0002:00035850       ??_C@_0BA@PJCADNHP@?9?9?9?9?9?9?9?9?9?9?9?9?9?9?9@ 000000014024f850     console.obj
 0002:00035860       ??_C@_0BJ@CDPBKLCF@Console?5variables?5list?4?6@ 000000014024f860     console.obj
 0002:00035880       ??_C@_0P@IBLCJIHH@Command?5list?4?6@ 000000014024f880     console.obj
 0002:00035890       ??_C@_0BB@DKKMKEBK@?9?9?9?9?9?9?9?9?9?9?9?9?9?9?9?6@ 000000014024f890     console.obj
 0002:000358a4       ??_C@_03OFAPEBGM@?$CFs?6@  000000014024f8a4     console.obj
 0002:000358a8       ??_C@_0BD@JGGGFKFF@?5console?5variables@ 000000014024f8a8     console.obj
 0002:000358c0       ??_C@_0N@LFNFNDEG@cvarlist?4log@ 000000014024f8c0     console.obj
 0002:000358d0       ??_C@_09FFGBDNIK@?5commands@ 000000014024f8d0     console.obj
 0002:000358e0       ??_C@_0M@MGFMBMLP@cmdlist?4log@ 000000014024f8e0     console.obj
 0002:000358f0       ??_C@_0BH@DAFAIAOJ@?$CFd?5console?5variables?4?6@ 000000014024f8f0     console.obj
 0002:00035908       ??_C@_0O@HMNLPDAE@?$CFd?5commands?4?6@ 000000014024f908     console.obj
 0002:00035918       ??_C@_04LCMACLFG@?4txt@    000000014024f918     console.obj
 0002:00035920       ??_C@_0BC@EOODALEL@Unknown?5exception@ 000000014024f920     discordrpcsystem.obj
 0002:00035938       ??_C@_0BF@KINCDENJ@bad?5array?5new?5length@ 000000014024f938     discordrpcsystem.obj
 0002:00035950       ??_C@_0BA@JFNIOLAK@string?5too?5long@ 000000014024f950     discordrpcsystem.obj
 0002:00035960       ??_C@_02LMMGGCAJ@?3?5@     000000014024f960     discordrpcsystem.obj
 0002:00035968       ??_C@_08LLGCOLLL@iostream@ 000000014024f968     discordrpcsystem.obj
 0002:00035978       ??_C@_0BF@PHHKMMFD@ios_base?3?3badbit?5set@ 000000014024f978     discordrpcsystem.obj
 0002:00035990       ??_C@_0BG@FMKFHCIL@ios_base?3?3failbit?5set@ 000000014024f990     discordrpcsystem.obj
 0002:000359a8       ??_C@_0BF@OOHOMBOF@ios_base?3?3eofbit?5set@ 000000014024f9a8     discordrpcsystem.obj
 0002:000359c0       ??_C@_0BE@MOBJCPLK@Discord?3?5connected?6@ 000000014024f9c0     discordrpcsystem.obj
 0002:000359d8       ??_C@_0BE@GLLNANDC@1235165455237255238@ 000000014024f9d8     discordrpcsystem.obj
 0002:000359ec       ??_C@_05HBJBFCNN@maps?1@   000000014024f9ec     discordrpcsystem.obj
 0002:000359f8       ??_C@_0O@MHINCEJE@Playing?5Map?3?5@ 000000014024f9f8     discordrpcsystem.obj
 0002:00035a08       ??_C@_07MMLADLIO@In?5Menu@ 000000014024fa08     discordrpcsystem.obj
 0002:00035a10       ??_C@_0BL@BKDAJLJL@Developing?5Parallax?5Engine@ 000000014024fa10     discordrpcsystem.obj
 0002:00035a30       ??_C@_0BI@CFPLBAOH@invalid?5string?5position@ 000000014024fa30     discordrpcsystem.obj
 0002:00035a48       ?_Iostream_error@?4??message@_Iostream_error_category2@std@@UEBA?AV?$basic_string@DU?$char_traits@D@std@@V?$allocator@D@2@@3@H@Z@4QBDB 000000014024fa48     discordrpcsystem.obj
 0002:00035a60       ??_C@_02JDPG@rb@           000000014024fa60     dllexports.obj
 0002:00035a68       ??_C@_0BN@LDHCJKML@Map?5entity?5data?5is?5invalid?4?6@ 000000014024fa68     edictmanager.obj
 0002:00035a88       ??_C@_0L@MICAPEB@rendertype@ 000000014024fa88     edictmanager.obj
 0002:00035a98       ??_C@_0DH@PBCKLGEM@Entity?5property?5?8rendertype?8?5no@ 000000014024fa98     edictmanager.obj
 0002:00035ad0       ??_C@_05NCCFOPHA@model@    000000014024fad0     edictmanager.obj
 0002:00035ad8       ??_C@_09LELCMKMF@modelname@ 000000014024fad8     edictmanager.obj
 0002:00035ae4       ??_C@_05FECBCJJD@angle@    000000014024fae4     edictmanager.obj
 0002:00035aec       ??_C@_06DNDLPIFN@0?5?$CFf?50@ 000000014024faec     edictmanager.obj
 0002:00035af8       ??_C@_07BHMOBHIL@?990?50?50@ 000000014024faf8     edictmanager.obj
 0002:00035b00       ??_C@_06INPDGABL@90?50?50@ 000000014024fb00     edictmanager.obj
 0002:00035b08       ??_C@_06GNEAMJOC@angles@   000000014024fb08     edictmanager.obj
 0002:00035b10       ??_C@_0DC@CJDLHJBI@Failed?5to?5allocate?5private?5data@ 000000014024fb10     edictmanager.obj
 0002:00035b48       ??_C@_0CG@BNBBDBJL@Entity?5?$CFs?5?9?5Unhandled?5keyvalue?5@ 000000014024fb48     edictmanager.obj
 0002:00035b70       ??_C@_0BM@MPOELLGC@CEdictManager?3?3LoadEntities@ 000000014024fb70     edictmanager.obj
 0002:00035b90       ??_C@_0L@LOCKCKGL@?5?9?5Entity?5@ 000000014024fb90     edictmanager.obj
 0002:00035b9c       ??_C@_01PKGAHCOL@?$CJ@     000000014024fb9c     edictmanager.obj
 0002:00035ba0       ??_C@_0BL@LHLLEJJG@?5returned?5error?5on?5spawn?4?6@ 000000014024fba0     edictmanager.obj
 0002:00035bc0       ??_C@_0DJ@BJMHFEBG@Bogus?5player?5index?5?$CFd?5specified@ 000000014024fbc0     edictmanager.obj
 0002:00035bfc       ??_C@_06BALNJMNP@player@   000000014024fbfc     edictmanager.obj
 0002:00035c08       ??_C@_0CF@LEPIDLKE@Failed?5to?5initialize?5player?5ent@ 000000014024fc08     edictmanager.obj
 0002:00035c30       ??_C@_0BK@GLPBHOB@CEdictManager?3?3AllocEdict@ 000000014024fc30     edictmanager.obj
 0002:00035c50       ??_C@_0BL@CKOBADJM@?$CFs?5?9?5No?5free?5edicts?5left?4?6@ 000000014024fc50     edictmanager.obj
 0002:00035c70       ??_C@_1MC@NNIFMIL@?$AAD?$AA?3?$AA?2?$AAs?$AAo?$AAu?$AAr?$AAc?$AAe?$AAs?$AAd?$AAk?$AA?2?$AAp?$AAa@ 000000014024fc70     edictmanager.obj
 0002:00035d38       ??_C@_1BK@KPHOHBEK@?$AAp?$AAe?$AAd?$AAi?$AAc?$AAt?$AA?9?$AA?$DO?$AAf?$AAr?$AAe?$AAe@ 000000014024fd38     edictmanager.obj
 0002:00035d58       ??_C@_1CM@OPANLCKN@?$AA?$CB?$AAp?$AAe?$AAd?$AAi?$AAc?$AAt?$AA?9?$AA?$DO?$AAp?$AAp?$AAr?$AAi?$AAv?$AAa@ 000000014024fd58     edictmanager.obj
 0002:00035d88       ??_C@_1CM@HFPAGFKG@?$AA?$CB?$AAp?$AAe?$AAd?$AAi?$AAc?$AAt?$AA?9?$AA?$DO?$AAp?$AAv?$AAb?$AAm?$AAh?$AAu@ 000000014024fd88     edictmanager.obj
 0002:00035db8       ??_C@_0BL@DIEMBOGB@Invalid?5edict?5index?5?8?$CFd?8?4?6@ 000000014024fdb8     edictmanager.obj
 0002:00035dd8       ??_C@_0BJ@EPFPIPHI@Engine_GetCvarFloatValue@ 000000014024fdd8     enginefuncs.obj
 0002:00035df8       ??_C@_0BJ@DKFPFBJH@?$CFs?5?9?5No?5such?5cvar?5?8?$CFs?8?4?6@ 000000014024fdf8     enginefuncs.obj
 0002:00035e18       ??_C@_0CF@CALIEELI@?$CFs?5?9?5?8?$CFs?8?5is?5not?5a?5float?5type?5c@ 000000014024fe18     enginefuncs.obj
 0002:00035e40       ??_C@_0BK@JMKKOFIF@Engine_GetCvarStringValue@ 000000014024fe40     enginefuncs.obj
 0002:00035e60       ??_C@_0CG@DGABKMME@?$CFs?5?9?5?8?$CFs?8?5is?5not?5a?5string?5type?5@ 000000014024fe60     enginefuncs.obj
 0002:00035e88       ??_C@_0O@HNOJGGIG@Opening?5file?5@ 000000014024fe88     file.obj
 0002:00035e98       ??_C@_0N@OHOLGMEN@?5for?5writing@ 000000014024fe98     file.obj
 0002:00035ea8       ??_C@_0L@HPLCNOC@?5to?5append@ 000000014024fea8     file.obj
 0002:00035eb8       ??_C@_0O@PPLOBIJ@?$FLGAME?5ACTIVE?$FN@ 000000014024feb8     file.obj
 0002:00035ec8       ??_C@_0P@JAOGBACH@?$FLGAME?5LOADING?$FN@ 000000014024fec8     file.obj
 0002:00035ed8       ??_C@_0BA@GJICJOIM@?$FLGAME?5INACTIVE?$FN@ 000000014024fed8     file.obj
 0002:00035ee8       ??_C@_02BOGAIONP@ab@       000000014024fee8     file.obj
 0002:00035eec       ??_C@_02GMLFBBN@wb@        000000014024feec     file.obj
 0002:00035ef0       ??_C@_0CE@DIHAPHDO@Failed?5to?5open?5?$CFs?5for?5writing?3?5@ 000000014024fef0     file.obj
 0002:00035f18       ??_C@_0BI@FJJPLEFO@Wrote?5?$CFd?5bytes?5for?5?$CFs?4?6@ 000000014024ff18     file.obj
 0002:00035f30       ??_C@_0N@IBMBNFIG@?5for?5reading@ 000000014024ff30     file.obj
 0002:00035f40       ??_C@_0O@EDIKIIIL@Read?5file?5in?5@ 000000014024ff40     file.obj
 0002:00035f50       ??_C@_0L@LJOBILBD@?5seconds?0?5@ 000000014024ff50     file.obj
 0002:00035f60       ??_C@_07OLFNNBO@?5bytes?4@ 000000014024ff60     file.obj
 0002:00035f68       ??_C@_0BH@MGDCDODE@?5to?5check?5if?5it?5exists@ 000000014024ff68     file.obj
 0002:00035f80       ??_C@_0P@EGLBCDJF@Deleting?5file?5@ 000000014024ff80     file.obj
 0002:00035f90       ??_C@_0BN@LHEJBAHA@?$CFs?5?9?5Could?5not?5delete?5?8?$CFs?8?4?6@ 000000014024ff90     file.obj
 0002:00035fb0       ??_C@_0BE@DHCDACAD@Creating?5directory?5@ 000000014024ffb0     file.obj
