 pathos_x64

 Timestamp is 6682afc0 (Mon Jul  1 16:31:44 2024)

 Preferred load address is 0000000140000000

 Start         Length     Name                   Class
 0001:00000000 000086f0H .text                   CODE
 0001:000086f0 00000e00H .text$di                CODE
 0001:000094f0 0021c590H .text$mn                CODE
 0001:00225a80 00000040H .text$mn$00             CODE
 0001:00225ac0 00008370H .text$x                 CODE
 0001:0022de30 00001320H .text$yd                CODE
 0002:00000000 00000940H .idata$5                DATA
 0002:00000940 00000038H .00cfg                  DATA
 0002:00000978 00000008H .CRT$XCA                DATA
 0002:00000980 00000008H .CRT$XCAA               DATA
 0002:00000988 00000038H .CRT$XCC                DATA
 0002:000009c0 00000010H .CRT$XCL                DATA
 0002:000009d0 000001a8H .CRT$XCU                DATA
 0002:00000b78 00000008H .CRT$XCZ                DATA
 0002:00000b80 00000008H .CRT$XIA                DATA
 0002:00000b88 00000008H .CRT$XIAA               DATA
 0002:00000b90 00000008H .CRT$XIAC               DATA
 0002:00000b98 00000008H .CRT$XIZ                DATA
 0002:00000ba0 00000008H .CRT$XLA                DATA
 0002:00000ba8 00000008H .CRT$XLZ                DATA
 0002:00000bb0 00000008H .CRT$XPA                DATA
 0002:00000bb8 00000008H .CRT$XPZ                DATA
 0002:00000bc0 00000008H .CRT$XTA                DATA
 0002:00000bc8 00000018H .CRT$XTZ                DATA
 0002:00000bd0 00000000H .gehcont$y              DATA
 0002:00000bd0 00000000H .gfids$y                DATA
 0002:00000be0 0005bb20H .rdata                  DATA
 0002:0005c700 00000000H .rdata$CastGuardVftablesA DATA
 0002:0005c700 00000000H .rdata$CastGuardVftablesC DATA
 0002:0005c700 00000030H .rdata$T                DATA
 0002:0005c730 000036dcH .rdata$r                DATA
 0002:0005fe0c 00000344H .rdata$voltmd           DATA
 0002:00060150 000000e0H .rdata$zzz              DATA
 0002:00060230 00000508H .rdata$zzzdbg           DATA
 0002:00060738 00000008H .rtc$IAA                DATA
 0002:00060740 00000008H .rtc$IZZ                DATA
 0002:00060748 00000008H .rtc$TAA                DATA
 0002:00060750 00000008H .rtc$TZZ                DATA
 0002:00060758 00000004H .tls                    DATA
 0002:0006075c 00000004H .tls$                   DATA
 0002:00060760 00000008H .tls$ZZZ                DATA
 0002:00060768 00025110H .xdata                  DATA
 0002:00085878 0000036cH .xdata$x                DATA
 0002:00085be4 00000040H .didat$2                DATA
 0002:00085c24 00000024H .didat$3                DATA
 0002:00085c48 000002b8H .didat$4                DATA
 0002:00085f00 000005c0H .didat$6                DATA
 0002:000864c0 00000400H .didat$7                DATA
 0002:000868c0 00000084H .edata                  DATA
 0002:00086944 00000190H .idata$2                DATA
 0002:00086ad4 00000014H .idata$3                DATA
 0002:00086ae8 00000940H .idata$4                DATA
 0002:00087428 00001244H .idata$6                DATA
 0003:00000000 00032010H .data                   DATA
 0003:00032010 000001d0H .data$r                 DATA
 0003:000321e0 000011b0H .data$rs                DATA
 0003:00033390 000002d0H .didat$5                DATA
 0003:00033660 0afe0830H .bss                    DATA
 0004:00000000 000155c4H .pdata                  DATA
 0005:00000000 00000018H .detourd                DATA
 0006:00000000 000021f0H .detourc                DATA
 0007:00000000 000001e0H .rsrc$01                DATA
 0007:000001e0 0002a6d8H .rsrc$02                DATA

  Address         Publics by Value              Rva+Base               Lib:Object

 0000:00000000       __AbsoluteZero             0000000000000000     <absolute>
 0000:00000000       ___safe_se_handler_count   0000000000000000     <absolute>
 0000:00000000       ___safe_se_handler_table   0000000000000000     <absolute>
 0000:00000000       __arm64x_extra_rfe_table   0000000000000000     <absolute>
 0000:00000000       __arm64x_extra_rfe_table_size 0000000000000000     <absolute>
 0000:00000000       __arm64x_native_entrypoint 0000000000000000     <absolute>
 0000:00000000       __arm64x_redirection_metadata 0000000000000000     <absolute>
 0000:00000000       __arm64x_redirection_metadata_count 0000000000000000     <absolute>
 0000:00000000       __dynamic_value_reloc_table 0000000000000000     <absolute>
 0000:00000000       __enclave_config           0000000000000000     <absolute>
 0000:00000000       __guard_check_icall_a64n_fptr 0000000000000000     <absolute>
 0000:00000000       __guard_eh_cont_count      0000000000000000     <absolute>
 0000:00000000       __guard_eh_cont_table      0000000000000000     <absolute>
 0000:00000000       __guard_fids_count         0000000000000000     <absolute>
 0000:00000000       __guard_fids_table         0000000000000000     <absolute>
 0000:00000000       __guard_iat_count          0000000000000000     <absolute>
 0000:00000000       __guard_iat_table          0000000000000000     <absolute>
 0000:00000000       __guard_longjmp_count      0000000000000000     <absolute>
 0000:00000000       __guard_longjmp_table      0000000000000000     <absolute>
 0000:00000000       __hybrid_auxiliary_delayload_iat 0000000000000000     <absolute>
 0000:00000000       __hybrid_auxiliary_delayload_iat_copy 0000000000000000     <absolute>
 0000:00000000       __hybrid_auxiliary_iat     0000000000000000     <absolute>
 0000:00000000       __hybrid_auxiliary_iat_copy 0000000000000000     <absolute>
 0000:00000000       __hybrid_code_map          0000000000000000     <absolute>
 0000:00000000       __hybrid_code_map_count    0000000000000000     <absolute>
 0000:00000000       __hybrid_image_info_bitfield 0000000000000000     <absolute>
 0000:00000000       __x64_code_ranges_to_entry_points 0000000000000000     <absolute>
 0000:00000000       __x64_code_ranges_to_entry_points_count 0000000000000000     <absolute>
 0000:00000100       __guard_flags              0000000000000100     <absolute>
 0000:00000000       __ImageBase                0000000140000000     <linker-defined>
 0001:00000000       enet_initialize            0000000140001000 f   enet64:win32.o
 0001:00000070       enet_deinitialize          0000000140001070 f   enet64:win32.o
 0001:00000090       enet_host_random_seed      0000000140001090 f   enet64:win32.o
 0001:000000a0       enet_time_get              00000001400010a0 f   enet64:win32.o
 0001:000000c0       enet_time_set              00000001400010c0 f   enet64:win32.o
 0001:000000e0       enet_address_set_host_ip   00000001400010e0 f   enet64:win32.o
 0001:00000290       enet_address_set_host      0000000140001290 f   enet64:win32.o
 0001:00000480       enet_address_get_host_ip   0000000140001480 f   enet64:win32.o
 0001:000004d0       enet_address_get_host      00000001400014d0 f   enet64:win32.o
 0001:00000560       enet_socket_bind           0000000140001560 f   enet64:win32.o
 0001:000005e0       enet_socket_get_address    00000001400015e0 f   enet64:win32.o
 0001:00000630       enet_socket_listen         0000000140001630 f   enet64:win32.o
 0001:00000660       enet_socket_create         0000000140001660 f   enet64:win32.o
 0001:00000680       enet_socket_set_option     0000000140001680 f   enet64:win32.o
 0001:000007e0       enet_socket_get_option     00000001400017e0 f   enet64:win32.o
 0001:00000830       enet_socket_connect        0000000140001830 f   enet64:win32.o
 0001:000008c0       enet_socket_accept         00000001400018c0 f   enet64:win32.o
 0001:00000930       enet_socket_shutdown       0000000140001930 f   enet64:win32.o
 0001:00000950       enet_socket_destroy        0000000140001950 f   enet64:win32.o
 0001:00000970       enet_socket_send           0000000140001970 f   enet64:win32.o
 0001:00000a50       enet_socket_receive        0000000140001a50 f   enet64:win32.o
 0001:00000b20       enet_socketset_select      0000000140001b20 f   enet64:win32.o
 0001:00000b70       enet_socket_wait           0000000140001b70 f   enet64:win32.o
 0001:00000c70       enet_host_create           0000000140001c70 f   enet64:host.o
 0001:00001000       enet_host_destroy          0000000140002000 f   enet64:host.o
 0001:000010b0       enet_host_connect          00000001400020b0 f   enet64:host.o
 0001:000012f0       enet_host_broadcast        00000001400022f0 f   enet64:host.o
 0001:00001370       enet_host_compress         0000000140002370 f   enet64:host.o
 0001:000013f0       enet_host_channel_limit    00000001400023f0 f   enet64:host.o
 0001:00001410       enet_host_bandwidth_limit  0000000140002410 f   enet64:host.o
 0001:00001420       enet_host_bandwidth_throttle 0000000140002420 f   enet64:host.o
 0001:00001790       enet_peer_throttle_configure 0000000140002790 f   enet64:peer.o
 0001:00001980       enet_peer_throttle         0000000140002980 f   enet64:peer.o
 0001:00001a10       enet_peer_receive          0000000140002a10 f   enet64:peer.o
 0001:00001a90       enet_peer_reset_queues     0000000140002a90 f   enet64:peer.o
 0001:00001df0       enet_peer_on_connect       0000000140002df0 f   enet64:peer.o
 0001:00001e20       enet_peer_on_disconnect    0000000140002e20 f   enet64:peer.o
 0001:00001e50       enet_peer_reset            0000000140002e50 f   enet64:peer.o
 0001:00001f70       enet_peer_ping             0000000140002f70 f   enet64:peer.o
 0001:00002110       enet_peer_ping_interval    0000000140003110 f   enet64:peer.o
 0001:00002130       enet_peer_timeout          0000000140003130 f   enet64:peer.o
 0001:00002170       enet_peer_disconnect       0000000140003170 f   enet64:peer.o
 0001:000024e0       enet_peer_queue_acknowledgement 00000001400034e0 f   enet64:peer.o
 0001:000025b0       enet_peer_setup_outgoing_command 00000001400035b0 f   enet64:peer.o
 0001:00002720       enet_peer_disconnect_later 0000000140003720 f   enet64:peer.o
 0001:00002860       enet_peer_send             0000000140003860 f   enet64:peer.o
 0001:00002b90       enet_peer_disconnect_now   0000000140003b90 f   enet64:peer.o
 0001:00002d60       enet_peer_queue_outgoing_command 0000000140003d60 f   enet64:peer.o
 0001:00002f60       enet_peer_dispatch_incoming_unreliable_commands 0000000140003f60 f   enet64:peer.o
 0001:000031a0       enet_peer_dispatch_incoming_reliable_commands 00000001400041a0 f   enet64:peer.o
 0001:00003280       enet_peer_queue_incoming_command 0000000140004280 f   enet64:peer.o
 0001:000046a0       enet_protocol_command_size 00000001400056a0 f   enet64:protocol.o
 0001:000046b0       enet_host_flush            00000001400056b0 f   enet64:protocol.o
 0001:00004ff0       enet_host_check_events     0000000140005ff0 f   enet64:protocol.o
 0001:00005160       enet_host_service          0000000140006160 f   enet64:protocol.o
 0001:00006f00       enet_packet_create         0000000140007f00 f   enet64:packet.o
 0001:00006fb0       enet_packet_destroy        0000000140007fb0 f   enet64:packet.o
 0001:00007000       enet_packet_resize         0000000140008000 f   enet64:packet.o
 0001:00007070       enet_crc32                 0000000140008070 f   enet64:packet.o
 0001:00007260       enet_initialize_with_callbacks 0000000140008260 f   enet64:callbacks.o
 0001:000072d0       enet_linked_version        00000001400082d0 f   enet64:callbacks.o
 0001:000072e0       enet_malloc                00000001400082e0 f   enet64:callbacks.o
 0001:00007310       enet_free                  0000000140008310 f   enet64:callbacks.o
 0001:00007320       enet_list_clear            0000000140008320 f   enet64:list.o
 0001:00007330       enet_list_insert           0000000140008330 f   enet64:list.o
 0001:00007350       enet_list_remove           0000000140008350 f   enet64:list.o
 0001:00007370       enet_list_move             0000000140008370 f   enet64:list.o
 0001:000073a0       enet_list_size             00000001400083a0 f   enet64:list.o
 0001:000073c0       DetourEnumerateExports     00000001400083c0 f   detours:modules.obj
 0001:000076a0       ?CopyBytes@CDetourDis@@IEAAPEAEPEBUCOPYENTRY@1@PEAE1@Z 00000001400086a0 f   detours:disasm.obj
 0001:000079a0       ?CopyBytesPrefix@CDetourDis@@IEAAPEAEPEBUCOPYENTRY@1@PEAE1@Z 00000001400089a0 f   detours:disasm.obj
 0001:00007a20       ?CopyBytesSegment@CDetourDis@@IEAAPEAEPEBUCOPYENTRY@1@PEAE1@Z 0000000140008a20 f   detours:disasm.obj
 0001:00007a70       ?CopyBytesRax@CDetourDis@@IEAAPEAEPEBUCOPYENTRY@1@PEAE1@Z 0000000140008a70 f   detours:disasm.obj
 0001:00007ac0       ?CopyBytesJump@CDetourDis@@IEAAPEAEPEBUCOPYENTRY@1@PEAE1@Z 0000000140008ac0 f   detours:disasm.obj
 0001:00007c10       ?AdjustTarget@CDetourDis@@IEAAPEAEPEAE0III@Z 0000000140008c10 f   detours:disasm.obj
 0001:00007de0       ?Invalid@CDetourDis@@IEAAPEAEPEBUCOPYENTRY@1@PEAE1@Z 0000000140008de0 f   detours:disasm.obj
 0001:00007e00       ?Copy0F@CDetourDis@@IEAAPEAEPEBUCOPYENTRY@1@PEAE1@Z 0000000140008e00 f   detours:disasm.obj
 0001:00007e80       ?Copy0F78@CDetourDis@@IEAAPEAEPEBUCOPYENTRY@1@PEAE1@Z 0000000140008e80 f   detours:disasm.obj
 0001:00007f00       ?Copy66@CDetourDis@@IEAAPEAEPEBUCOPYENTRY@1@PEAE1@Z 0000000140008f00 f   detours:disasm.obj
 0001:00007f50       ?Copy67@CDetourDis@@IEAAPEAEPEBUCOPYENTRY@1@PEAE1@Z 0000000140008f50 f   detours:disasm.obj
 0001:00007fa0       ?CopyF2@CDetourDis@@IEAAPEAEPEBUCOPYENTRY@1@PEAE1@Z 0000000140008fa0 f   detours:disasm.obj
 0001:00007ff0       ?CopyF3@CDetourDis@@IEAAPEAEPEBUCOPYENTRY@1@PEAE1@Z 0000000140008ff0 f   detours:disasm.obj
 0001:00008040       ?CopyF6@CDetourDis@@IEAAPEAEPEBUCOPYENTRY@1@PEAE1@Z 0000000140009040 f   detours:disasm.obj
 0001:000080b0       ?CopyF7@CDetourDis@@IEAAPEAEPEBUCOPYENTRY@1@PEAE1@Z 00000001400090b0 f   detours:disasm.obj
 0001:00008120       ?CopyFF@CDetourDis@@IEAAPEAEPEBUCOPYENTRY@1@PEAE1@Z 0000000140009120 f   detours:disasm.obj
 0001:00008250       ?CopyVexEvexCommon@CDetourDis@@IEAAPEAEEPEAE0E@Z 0000000140009250 f   detours:disasm.obj
 0001:00008370       ?CopyVexCommon@CDetourDis@@IEAAPEAEEPEAE0@Z 0000000140009370 f   detours:disasm.obj
 0001:000083d0       ?CopyVex3@CDetourDis@@IEAAPEAEPEBUCOPYENTRY@1@PEAE1@Z 00000001400093d0 f   detours:disasm.obj
 0001:00008490       ?CopyVex2@CDetourDis@@IEAAPEAEPEBUCOPYENTRY@1@PEAE1@Z 0000000140009490 f   detours:disasm.obj
 0001:00008500       ?CopyEvex@CDetourDis@@IEAAPEAEPEBUCOPYENTRY@1@PEAE1@Z 0000000140009500 f   detours:disasm.obj
 0001:00008630       ?CopyXop@CDetourDis@@IEAAPEAEPEBUCOPYENTRY@1@PEAE1@Z 0000000140009630 f   detours:disasm.obj
 0001:000094f0       __local_stdio_printf_options 000000014000a4f0 f i bmp.obj
 0001:00009500       sprintf                    000000014000a500 f i bmp.obj
 0001:00009560       ?Append@CString@@QEAAXPEBD@Z 000000014000a560 f i bmp.obj
 0001:00009610       ?c_str@CString@@QEBAPEBDXZ 000000014000a610 f i bmp.obj
 0001:00009620       ?qstrlen@@YAIPEBD@Z        000000014000a620 f i bmp.obj
 0001:00009640       ?qstrcpy@@YAPEADPEADPEBD@Z 000000014000a640 f i bmp.obj
 0001:000096d0       ?qstrcmp@@YAHPEBD0@Z       000000014000a6d0 f i bmp.obj
 0001:00009760       ??_ECString@@QEAAPEAXI@Z   000000014000a760 f i bmp.obj
 0001:000097a0       ?resize@CBitSet@@QEAAXI@Z  000000014000a7a0 f i cbitset.obj
 0001:00009820       ?append@CBuffer@@QEAA_NPEBXI@Z 000000014000a820 f i cbuffer.obj
 0001:00009a80       ??1?$CArray@H@@QEAA@XZ     000000014000aa80 f i texturemanager.obj
 0001:00009a80       ??1?$CArray@I@@QEAA@XZ     000000014000aa80 f i cl_main.obj
 0001:00009a80       ??1?$CArray@PEAPEAX@@QEAA@XZ 000000014000aa80 f i cbuffer.obj
 0001:00009a80       ??1?$CArray@PEAUbsp_decal_t@@@@QEAA@XZ 000000014000aa80 f i r_bsp.obj
 0001:00009a80       ??1?$CArray@PEAUdetail_association_t@@@@QEAA@XZ 000000014000aa80 f i r_wadtextures.obj
 0001:00009a80       ??1?$CArray@PEAUdetailtexture_t@@@@QEAA@XZ 000000014000aa80 f i r_wadtextures.obj
 0001:00009a80       ??1?$CArray@PEAUen_texture_t@@@@QEAA@XZ 000000014000aa80 f i r_main.obj
 0001:00009a80       ??1?$CArray@PEAUentity_extrainfo_t@@@@QEAA@XZ 000000014000aa80 f i cl_main.obj
 0001:00009a80       ??1?$CArray@PEAUflexscript_t@@@@QEAA@XZ 000000014000aa80 f i flexmanager.obj
 0001:00009a80       ??1?$CArray@PEAUmlight_t@@@@QEAA@XZ 000000014000aa80 f i r_vbm.obj
 0001:00009a80       ??1?$CArray@PEAUparticle_t@CLegacyParticles@@@@QEAA@XZ 000000014000aa80 f i r_legacyparticles.obj
 0001:00009a80       ??1?$CArray@PEAUscript_cache_t@@@@QEAA@XZ 000000014000aa80 f i r_particles.obj
 0001:00009a80       ??1?$CArray@PEAUsentence_t@CSentencesFile@@@@QEAA@XZ 000000014000aa80 f i sentencesfile.obj
 0001:00009a80       ??1?$CArray@PEAUsentencegroup_t@CSentencesFile@@@@QEAA@XZ 000000014000aa80 f i sentencesfile.obj
 0001:00009a80       ??1?$CArray@PEAUvertexgroup_t@CNormalSmoothing@@@@QEAA@XZ 000000014000aa80 f i r_nsmoothing.obj
 0001:00009a80       ??1?$CArray@PEAUvertexnode_t@CNormalSmoothing@@@@QEAA@XZ 000000014000aa80 f i r_nsmoothing.obj
 0001:00009a80       ??1?$CArray@PEAVCMenuButton@@@@QEAA@XZ 000000014000aa80 f i r_menu.obj
 0001:00009a80       ??1?$CArray@PEAVCUIObject@@@@QEAA@XZ 000000014000aa80 f i uielements.obj
 0001:00009a80       ??1?$CArray@Ubsp_surface_t@@@@QEAA@XZ 000000014000aa80 f i r_bsp.obj
 0001:00009a80       ??1?$CArray@Ubsp_vertex_t@@@@QEAA@XZ 000000014000aa80 f i r_bsp.obj
 0001:00009a80       ??1?$CArray@Uentity_state_t@@@@QEAA@XZ 000000014000aa80 f i sv_main.obj
 0001:00009a80       ??1?$CArray@Uglsl_shader_t@CGLSLShader@@@@QEAA@XZ 000000014000aa80 f i r_glsl.obj
 0001:00009a80       ??1?$CArray@Uinvalid_state_t@CGLSLShader@@@@QEAA@XZ 000000014000aa80 f i r_glsl.obj
 0001:00009a80       ??1?$CArray@Uiterator_t@?$CLinkedList@PEAUcl_dlight_t@@@@@@QEAA@XZ 000000014000aa80 f i r_dlights.obj
 0001:00009a80       ??1?$CArray@Uiterator_t@?$CLinkedList@Uline_chunk_t@@@@@@QEAA@XZ 000000014000aa80 f i r_text.obj
 0001:00009a80       ??1?$CArray@Uiterator_t@?$CLinkedList@Usv_level_connection_t@@@@@@QEAA@XZ 000000014000aa80 f i sv_main.obj
 0001:00009a80       ??1?$CArray@Unet_msg_t@@@@QEAA@XZ 000000014000aa80 f i networking.obj
 0001:00009a80       ??1?$CArray@Usnd_playing_t@CSoundEngine@@@@QEAA@XZ 000000014000aa80 f i cl_snd.obj
 0001:00009a80       ??1?$CArray@Uusercmd_t@@@@QEAA@XZ 000000014000aa80 f i cl_main.obj
 0001:00009a80       ??1?$CArray@_J@@QEAA@XZ    000000014000aa80 f i cbuffer.obj
 0001:00009a80       ??1?$CArray@_N@@QEAA@XZ    000000014000aa80 f i sv_main.obj
 0001:00009a80       ??1alias_mapping_t@CTextureManager@@QEAA@XZ 000000014000aa80 f i texturemanager.obj
 0001:00009a80       ??1cached_decal_t@@QEAA@XZ 000000014000aa80 f i r_decals.obj
 0001:00009a80       ??1cl_resource_t@@QEAA@XZ  000000014000aa80 f i cl_cmd.obj
 0001:00009a80       ??1cl_usermsgfunction_t@@QEAA@XZ 000000014000aa80 f i cl_main.obj
 0001:00009a80       ??1debug_print_t@CConsole@@QEAA@XZ 000000014000aa80 f i console.obj
 0001:00009a80       ??1decalcache_t@@QEAA@XZ   000000014000aa80 f i cl_main.obj
 0001:00009a80       ??1decalgroupentry_t@@QEAA@XZ 000000014000aa80 f i decallist.obj
 0001:00009a80       ??1disabled_state_t@CGLSLShader@@QEAA@XZ 000000014000aa80 f i r_glsl.obj
 0001:00009a80       ??1dll_export_t@@QEAA@XZ   000000014000aa80 f i sv_main.obj
 0001:00009a80       ??1glowquery_t@@QEAA@XZ    000000014000aa80 f i r_glqueries.obj
 0001:00009a80       ??1hdr_column_t@CUIListHeader@@QEAA@XZ 000000014000aa80 f i uielements.obj
 0001:00009a80       ??1mtexture_t@@QEAA@XZ     000000014000aa80 f i modelcache.obj
 0001:00009a80       ??1skytextureset_t@CSkyRenderer@@QEAA@XZ 000000014000aa80 f i r_sky.obj
 0001:00009a80       ??1snd_missing_t@CSoundEngine@@QEAA@XZ 000000014000aa80 f i cl_snd.obj
 0001:00009a80       ??1sv_model_t@@QEAA@XZ     000000014000aa80 f i sv_main.obj
 0001:00009a80       ??1sv_particlecache_t@@QEAA@XZ 000000014000aa80 f i sv_main.obj
 0001:00009a80       ??1sv_sound_t@@QEAA@XZ     000000014000aa80 f i sv_main.obj
 0001:00009a80       ??1sv_usermsgfunction_t@@QEAA@XZ 000000014000aa80 f i sv_main.obj
 0001:00009a80       ??1ui_schemeobject_t@@QEAA@XZ 000000014000aa80 f i uimanager.obj
 0001:00009a80       ??1usermsgdata_t@@QEAA@XZ  000000014000aa80 f i cl_main.obj
 0001:00009a80       ??1vbmhull_t@@QEAA@XZ      000000014000aa80 f i cl_main.obj
 0001:00009a90       ??4CString@@QEAAAEAV0@AEBV0@@Z 000000014000aa90 f i common.obj
 0001:00009b90       ??6CString@@QEAAAEAV0@PEBD@Z 000000014000ab90 f i common.obj
 0001:00009bb0       ??AVector@@QEAAAEAMI@Z     000000014000abb0 f i common.obj
 0001:00009c10       ??1entitydata_t@@QEAA@XZ   000000014000ac10 f i common.obj
 0001:00009c90       ?GetDate@Common@@YA?AVCString@@XZ 000000014000ac90 f i common.obj
 0001:00009da0       ?RandomFloat@Common@@YAMMM@Z 000000014000ada0 f i common.obj
 0001:00009e10       ?CheckVisibility@Common@@YA_NAEBV?$CArray@I@@PEBE@Z 000000014000ae10 f i common.obj
 0001:00009ee0       ?resize@?$CArray@VCString@@@@QEAAXI@Z 000000014000aee0 f i common.obj
 0001:0000a110       ??6CString@@QEAAAEAV0@AEBV0@@Z 000000014000b110 f i logfile.obj
 0001:0000a160       ?clear@CString@@QEAAXXZ    000000014000b160 f i logfile.obj
 0001:0000a1b0       ?assign@CString@@QEAAXPEBDI@Z 000000014000b1b0 f i logfile.obj
 0001:0000a250       ?insert@CString@@QEAAXIPEBD@Z 000000014000b250 f i logfile.obj
 0001:0000a340       ??_ECMatrix@@UEAAPEAXI@Z   000000014000b340 f i * CIL library *:* CIL module *
 0001:0000a340       ??_GCMatrix@@UEAAPEAXI@Z   000000014000b340 f i matrix.obj
 0001:0000a380       ??AVector@@QEAAAEAMH@Z     000000014000b380 f i r_common.obj
 0001:0000a3e0       ??AVector@@QEBAMH@Z        000000014000b3e0 f i r_common.obj
 0001:0000a440       ?VectorCopy@Math@@YAXAEBVVector@@AEAV2@@Z 000000014000b440 f i r_common.obj
 0001:0000a600       ?VectorCopy@Math@@YAXPEBMAEAVVector@@@Z 000000014000b600 f i r_common.obj
 0001:0000a730       ?VectorCopy@Math@@YAXAEBVVector@@PEAM@Z 000000014000b730 f i r_common.obj
 0001:0000a850       ?VectorClear@Math@@YAXAEAVVector@@@Z 000000014000b850 f i r_common.obj
 0001:0000a8c0       ?VectorSubtract@Math@@YAXAEBVVector@@0AEAV2@@Z 000000014000b8c0 f i r_common.obj
 0001:0000ab60       ?VectorAdd@Math@@YAXAEBVVector@@0AEAV2@@Z 000000014000bb60 f i r_common.obj
 0001:0000ae00       ?VectorMA@Math@@YAXAEBVVector@@M0AEAV2@@Z 000000014000be00 f i r_common.obj
 0001:0000b100       ?VectorScale@Math@@YAXAEBVVector@@MAEAV2@@Z 000000014000c100 f i r_common.obj
 0001:0000b2f0       ?AngleVectors@Math@@YAXAEBVVector@@PEAV2@11@Z 000000014000c2f0 f i r_common.obj
 0001:0000b4c0       ?VectorNormalize@Math@@YAMAEAVVector@@@Z 000000014000c4c0 f i r_common.obj
 0001:0000b570       ?PointInMinsMaxs@Math@@YA_NAEBVVector@@00@Z 000000014000c570 f i r_common.obj
 0001:0000b660       ?RotateToEntitySpace@Math@@YAXAEBVVector@@AEAV2@@Z 000000014000c660 f i r_common.obj
 0001:0000b8c0       ?RotateFromEntitySpace@Math@@YAXAEBVVector@@AEAV2@@Z 000000014000c8c0 f i r_common.obj
 0001:0000bad0       ?AngleMatrix@Math@@YAXAEBVVector@@PEAY03M@Z 000000014000cad0 f i r_common.obj
 0001:0000bca0       ?VectorToAngles@Math@@YA?AVVector@@AEBV2@0@Z 000000014000cca0 f i r_common.obj
 0001:0000be50       ?VectorToAngles@Math@@YA?AVVector@@AEBV2@@Z 000000014000ce50 f i r_common.obj
 0001:0000bf60       ?GetUpRight@Math@@YAXAEBVVector@@AEAV2@1@Z 000000014000cf60 f i r_common.obj
 0001:0000c080       ?VectorTransform@Math@@YAXAEBVVector@@PEAY03MAEAV2@@Z 000000014000d080 f i r_common.obj
 0001:0000c110       ?QuaternionMatrix@Math@@YAXAEAY03$$CBMPEAY03M@Z 000000014000d110 f i r_common.obj
 0001:0000c330       ?QuaternionBlend@Math@@YAXAEAY03$$CBM0MAEAY03M@Z 000000014000d330 f i r_common.obj
 0001:0000c660       ?AngleQuaternion@Math@@YAXAEBVVector@@AEAY03M@Z 000000014000d660 f i r_common.obj
 0001:0000c7b0       ?ConcatTransforms@Math@@YAXPEAY03$$CBM0PEAY03M@Z 000000014000d7b0 f i r_common.obj
 0001:0000c9d0       ??_H@YAXPEAX_K1P6APEAX0@Z@Z 000000014000d9d0 f i r_common.obj
 0001:0000ca20       ?getVBMCache@cache_model_t@@QEBAPEBUvbmcache_t@@XZ 000000014000da20 f i r_common.obj
 0001:0000ca60       ?SetUniformMatrix4fv@CGLSLShader@@QEAAXHPEBM_N@Z 000000014000da60 f i r_basicdraw.obj
 0001:0000cc10       ?SetUniform1i@CGLSLShader@@QEAAXHH@Z 000000014000dc10 f i r_basicdraw.obj
 0001:0000cd20       ?SetUniform1f@CGLSLShader@@QEAAXHM@Z 000000014000dd20 f i r_basicdraw.obj
 0001:0000ce30       ?SetUniform2f@CGLSLShader@@QEAAXHMM@Z 000000014000de30 f i r_basicdraw.obj
 0001:0000cf60       ?SetUniform3f@CGLSLShader@@QEAAXHMMM@Z 000000014000df60 f i r_basicdraw.obj
 0001:0000d0c0       ??_GCVBO@@QEAAPEAXI@Z      000000014000e0c0 f i r_basicdraw.obj
 0001:0000d110       ??A?$CArray@F@@QEBAAEAFI@Z 000000014000e110 f i r_basicdraw.obj
 0001:0000d150       ?resize@?$CArray@Ubasic_vertex_t@@@@QEAAXI@Z 000000014000e150 f i r_basicdraw.obj
 0001:0000d2c0       ??6CString@@QEAAAEAV0@H@Z  000000014000e2c0 f i sentencesfile.obj
 0001:0000d370       ??6CString@@QEAAAEAV0@I@Z  000000014000e370 f i sentencesfile.obj
 0001:0000d420       ?Append@CString@@QEAAXD@Z  000000014000e420 f i sentencesfile.obj
 0001:0000d4a0       ??_Gsentence_t@CSentencesFile@@QEAAPEAXI@Z 000000014000e4a0 f i sentencesfile.obj
 0001:0000d570       ??0?$CArray@VCString@@@@QEAA@XZ 000000014000e570 f i sentencesfile.obj
 0001:0000d580       ??1?$CArray@VCString@@@@QEAA@XZ 000000014000e580 f i sentencesfile.obj
 0001:0000d580       ??1CHashList@@QEAA@XZ      000000014000e580 f i modelcache.obj
 0001:0000d580       ??1stringbuffer_t@@QEAA@XZ 000000014000e580 f i sv_main.obj
 0001:0000d5c0       ?clear@?$CArray@VCString@@@@QEAAXXZ 000000014000e5c0 f i sentencesfile.obj
 0001:0000d620       ?empty@?$CArray@VCString@@@@QEBA_NXZ 000000014000e620 f i sentencesfile.obj
 0001:0000d640       ??A?$CArray@Ukeyevent_t@CInput@@@@QEBAAEAUkeyevent_t@CInput@@I@Z 000000014000e640 f i input.obj
 0001:0000d640       ??A?$CArray@VCString@@@@QEBAAEAVCString@@I@Z 000000014000e640 f i sentencesfile.obj
 0001:0000d690       ??A?$CArray@PEAUcache_model_t@@@@QEBAAEAPEAUcache_model_t@@I@Z 000000014000e690 f i modelcache.obj
 0001:0000d690       ??A?$CArray@PEAUdecalpolygroup_t@@@@QEBAAEAPEAUdecalpolygroup_t@@I@Z 000000014000e690 f i r_bsp.obj
 0001:0000d690       ??A?$CArray@PEAUfbobind_t@@@@QEBAAEAPEAUfbobind_t@@I@Z 000000014000e690 f i r_dlights.obj
 0001:0000d690       ??A?$CArray@PEAUfontsetglinfo_t@@@@QEBAAEAPEAUfontsetglinfo_t@@I@Z 000000014000e690 f i r_text.obj
 0001:0000d690       ??A?$CArray@PEAUparticle_t@CLegacyParticles@@@@QEBAAEAPEAUparticle_t@CLegacyParticles@@I@Z 000000014000e690 f i r_legacyparticles.obj
 0001:0000d690       ??A?$CArray@PEAUsent_chunk_t@CSentencesFile@@@@QEBAAEAPEAUsent_chunk_t@CSentencesFile@@I@Z 000000014000e690 f i sentencesfile.obj
 0001:0000d690       ??A?$CArray@PEAUsentence_t@CSentencesFile@@@@QEBAAEAPEAUsentence_t@CSentencesFile@@I@Z 000000014000e690 f i sentencesfile.obj
 0001:0000d690       ??A?$CArray@PEAVCMenuButton@@@@QEBAAEAPEAVCMenuButton@@I@Z 000000014000e690 f i r_menu.obj
 0001:0000d690       ??A?$CArray@Uglsl_shader_t@CGLSLShader@@@@QEBAAEAUglsl_shader_t@CGLSLShader@@I@Z 000000014000e690 f i r_glsl.obj
 0001:0000d6d0       ??1footstepinfo_t@CStepSound@@QEAA@XZ 000000014000e6d0 f i stepsound.obj
 0001:0000d770       ??6CString@@QEAAAEAV0@M@Z  000000014000e770 f i texturemanager.obj
 0001:0000d830       ?erase@CString@@QEAAXII@Z  000000014000e830 f i texturemanager.obj
 0001:0000d910       ??0en_material_t@@QEAA@XZ  000000014000e910 f i texturemanager.obj
 0001:0000da00       ?BoxOnPlaneSide@@YAIAEBVVector@@0PEBUplane_t@@@Z 000000014000ea00 f i texturemanager.obj
 0001:0000dc30       ?RotatePointAroundVector@@YAXAEBVVector@@0MAEAV1@@Z 000000014000ec30 f i texturemanager.obj
 0001:0000de20       ??_Gen_material_t@@QEAAPEAXI@Z 000000014000ee20 f i texturemanager.obj
 0001:0000de80       ?remove@?$CLinkedList@PEAUbsp_decal_t@@@@QEAAXPEAUlink_t@1@@Z 000000014000ee80 f i r_bsp.obj
 0001:0000de80       ?remove@?$CLinkedList@PEAUcl_dlight_t@@@@QEAAXPEAUlink_t@1@@Z 000000014000ee80 f i r_dlights.obj
 0001:0000de80       ?remove@?$CLinkedList@PEAUedict_t@@@@QEAAXPEAUlink_t@1@@Z 000000014000ee80 f i sv_main.obj
 0001:0000de80       ?remove@?$CLinkedList@PEAUen_texalloc_t@@@@QEAAXPEAUlink_t@1@@Z 000000014000ee80 f i texturemanager.obj
 0001:0000de80       ?remove@?$CLinkedList@PEAUen_texture_t@@@@QEAAXPEAUlink_t@1@@Z 000000014000ee80 f i texturemanager.obj
 0001:0000de80       ?remove@?$CLinkedList@PEAUfilechunk_t@@@@QEAAXPEAUlink_t@1@@Z 000000014000ee80 f i cl_main.obj
 0001:0000de80       ?remove@?$CLinkedList@PEAUparticle_system_t@@@@QEAAXPEAUlink_t@1@@Z 000000014000ee80 f i r_particles.obj
 0001:0000de80       ?remove@?$CLinkedList@PEAUrtt_texture_t@@@@QEAAXPEAUlink_t@1@@Z 000000014000ee80 f i r_rttcache.obj
 0001:0000de80       ?remove@?$CLinkedList@PEAUs_msg_cache_t@CSoundEngine@@@@QEAAXPEAUlink_t@1@@Z 000000014000ee80 f i cl_snd.obj
 0001:0000de80       ?remove@?$CLinkedList@PEAUshadowmap_t@@@@QEAAXPEAUlink_t@1@@Z 000000014000ee80 f i r_dlights.obj
 0001:0000de80       ?remove@?$CLinkedList@PEAUsnd_cache_t@CSoundEngine@@@@QEAAXPEAUlink_t@1@@Z 000000014000ee80 f i cl_snd.obj
 0001:0000de80       ?remove@?$CLinkedList@PEAUsnd_music_t@CSoundEngine@@@@QEAAXPEAUlink_t@1@@Z 000000014000ee80 f i cl_snd.obj
 0001:0000de80       ?remove@?$CLinkedList@PEAVCUIWindow@@@@QEAAXPEAUlink_t@1@@Z 000000014000ee80 f i uimanager.obj
 0001:0000dfe0       ?clear@?$CLinkedList@PEAUbsp_decal_t@@@@QEAAXXZ 000000014000efe0 f i r_bsp.obj
 0001:0000dfe0       ?clear@?$CLinkedList@PEAUcl_dlight_t@@@@QEAAXXZ 000000014000efe0 f i r_dlights.obj
 0001:0000dfe0       ?clear@?$CLinkedList@PEAUedict_t@@@@QEAAXXZ 000000014000efe0 f i sv_main.obj
 0001:0000dfe0       ?clear@?$CLinkedList@PEAUen_material_t@@@@QEAAXXZ 000000014000efe0 f i texturemanager.obj
 0001:0000dfe0       ?clear@?$CLinkedList@PEAUen_texalloc_t@@@@QEAAXXZ 000000014000efe0 f i texturemanager.obj
 0001:0000dfe0       ?clear@?$CLinkedList@PEAUen_texture_t@@@@QEAAXXZ 000000014000efe0 f i texturemanager.obj
 0001:0000dfe0       ?clear@?$CLinkedList@PEAUfilechunk_t@@@@QEAAXXZ 000000014000efe0 f i cl_main.obj
 0001:0000dfe0       ?clear@?$CLinkedList@PEAUmparticle_t@CMenuParticles@@@@QEAAXXZ 000000014000efe0 f i r_menuparticles.obj
 0001:0000dfe0       ?clear@?$CLinkedList@PEAUparticle_system_t@@@@QEAAXXZ 000000014000efe0 f i r_particles.obj
 0001:0000dfe0       ?clear@?$CLinkedList@PEAUrtt_texture_t@@@@QEAAXXZ 000000014000efe0 f i r_rttcache.obj
 0001:0000dfe0       ?clear@?$CLinkedList@PEAUs_msg_cache_t@CSoundEngine@@@@QEAAXXZ 000000014000efe0 f i cl_snd.obj
 0001:0000dfe0       ?clear@?$CLinkedList@PEAUshadowmap_t@@@@QEAAXXZ 000000014000efe0 f i r_dlights.obj
 0001:0000dfe0       ?clear@?$CLinkedList@PEAUsnd_cache_t@CSoundEngine@@@@QEAAXXZ 000000014000efe0 f i cl_snd.obj
 0001:0000dfe0       ?clear@?$CLinkedList@PEAUsnd_music_t@CSoundEngine@@@@QEAAXXZ 000000014000efe0 f i cl_snd.obj
 0001:0000dfe0       ?clear@?$CLinkedList@PEAUsnd_oggcache_t@@@@QEAAXXZ 000000014000efe0 f i cl_snd.obj
 0001:0000dfe0       ?clear@?$CLinkedList@PEAUthreadfile_t@@@@QEAAXXZ 000000014000efe0 f i filewriterthread.obj
 0001:0000dfe0       ?clear@?$CLinkedList@PEAUusermsgdata_t@@@@QEAAXXZ 000000014000efe0 f i sv_main.obj
 0001:0000dfe0       ?clear@?$CLinkedList@PEAVCCVar@@@@QEAAXXZ 000000014000efe0 f i console.obj
 0001:0000dfe0       ?clear@?$CLinkedList@PEAVCUIWindow@@@@QEAAXXZ 000000014000efe0 f i uimanager.obj
 0001:0000e1a0       ??1?$CLinkedList@PEAUbsp_decal_t@@@@QEAA@XZ 000000014000f1a0 f i r_bsp.obj
 0001:0000e1a0       ??1?$CLinkedList@PEAUen_texture_t@@@@QEAA@XZ 000000014000f1a0 f i texturemanager.obj
 0001:0000e1a0       ??1?$CLinkedList@PEAUmparticle_t@CMenuParticles@@@@QEAA@XZ 000000014000f1a0 f i r_menuparticles.obj
 0001:0000e1a0       ??1?$CLinkedList@PEAUparticle_system_t@@@@QEAA@XZ 000000014000f1a0 f i r_particles.obj
 0001:0000e1a0       ??1?$CLinkedList@PEAUs_msg_cache_t@CSoundEngine@@@@QEAA@XZ 000000014000f1a0 f i cl_snd.obj
 0001:0000e1a0       ??1?$CLinkedList@PEAUsnd_cache_t@CSoundEngine@@@@QEAA@XZ 000000014000f1a0 f i cl_snd.obj
 0001:0000e1a0       ??1?$CLinkedList@PEAUsnd_music_t@CSoundEngine@@@@QEAA@XZ 000000014000f1a0 f i cl_snd.obj
 0001:0000e1a0       ??1?$CLinkedList@PEAUsnd_oggcache_t@@@@QEAA@XZ 000000014000f1a0 f i cl_snd.obj
 0001:0000e1a0       ??1?$CLinkedList@PEAVCCVar@@@@QEAA@XZ 000000014000f1a0 f i console.obj
 0001:0000e1a0       ??1?$CLinkedList@PEAVCUIWindow@@@@QEAA@XZ 000000014000f1a0 f i uimanager.obj
 0001:0000e1d0       ?resize@?$CArray@PEAUbsp_decal_t@@@@QEAAXI@Z 000000014000f1d0 f i r_bsp.obj
 0001:0000e1d0       ?resize@?$CArray@PEAUdetail_association_t@@@@QEAAXI@Z 000000014000f1d0 f i r_wadtextures.obj
 0001:0000e1d0       ?resize@?$CArray@PEAUdetailtexture_t@@@@QEAAXI@Z 000000014000f1d0 f i r_wadtextures.obj
 0001:0000e1d0       ?resize@?$CArray@PEAUen_material_t@@@@QEAAXI@Z 000000014000f1d0 f i texturemanager.obj
 0001:0000e1d0       ?resize@?$CArray@PEAUentity_extrainfo_t@@@@QEAAXI@Z 000000014000f1d0 f i cl_main.obj
 0001:0000e1d0       ?resize@?$CArray@PEAUmaterial_association_t@CWADTextureResource@@@@QEAAXI@Z 000000014000f1d0 f i r_wadtextures.obj
 0001:0000e1d0       ?resize@?$CArray@PEAUvbm_decal_mesh_t@@@@QEAAXI@Z 000000014000f1d0 f i r_vbm.obj
 0001:0000e1d0       ?resize@?$CArray@PEAVCUIObject@@@@QEAAXI@Z 000000014000f1d0 f i uielements.obj
 0001:0000e2e0       ?clear@?$CLinkedList@Ualias_mapping_t@CTextureManager@@@@QEAAXXZ 000000014000f2e0 f i texturemanager.obj
 0001:0000e2e0       ?clear@?$CLinkedList@Ucl_resource_t@@@@QEAAXXZ 000000014000f2e0 f i cl_main.obj
 0001:0000e4b0       ??A?$CArray@H@@QEBAAEAHI@Z 000000014000f4b0 f i texturemanager.obj
 0001:0000e4f0       ?resize@?$CArray@H@@QEAAXI@Z 000000014000f4f0 f i texturemanager.obj
 0001:0000e4f0       ?resize@?$CArray@I@@QEAAXI@Z 000000014000f4f0 f i brushmodel.obj
 0001:0000e600       ?getBrushmodel@cache_model_t@@QEAAPEAUbrushmodel_t@@XZ 000000014000f600 f i ald.obj
 0001:0000e640       ?radd@?$CLinkedList@Ucl_resource_t@@@@QEAAPEAUlink_t@1@Ucl_resource_t@@@Z 000000014000f640 f i cl_cmd.obj
 0001:0000e710       ??0entity_state_t@@QEAA@XZ 000000014000f710 f i cl_main.obj
 0001:0000e960       ??0cl_entity_t@@QEAA@XZ    000000014000f960 f i cl_main.obj
 0001:0000ea40       ??1glowstate_t@@QEAA@XZ    000000014000fa40 f i cl_main.obj
 0001:0000ea50       ??0pm_info_t@@QEAA@XZ      000000014000fa50 f i cl_main.obj
 0001:0000eb10       ??0flexstate_t@@QEAA@XZ    000000014000fb10 f i cl_main.obj
 0001:0000ee20       ??0entity_lightinfo_t@@QEAA@XZ 000000014000fe20 f i cl_main.obj
 0001:0000f040       ??0usermsgdata_t@@QEAA@XZ  0000000140010040 f i cl_main.obj
 0001:0000f090       ??0cl_net_t@@QEAA@XZ       0000000140010090 f i cl_main.obj
 0001:0000f1c0       ??1cl_download_t@@QEAA@XZ  00000001400101c0 f i cl_main.obj
 0001:0000f200       ??0clientstate_t@@QEAA@XZ  0000000140010200 f i cl_main.obj
 0001:0000f3b0       ??1cl_net_t@@QEAA@XZ       00000001400103b0 f i cl_main.obj
 0001:0000f4e0       ??4entity_state_t@@QEAAAEAU0@$$QEAU0@@Z 00000001400104e0 f i cl_main.obj
 0001:0000f4e0       ??4entity_state_t@@QEAAAEAU0@AEBU0@@Z 00000001400104e0 f i cl_main.obj
 0001:0000fbc0       ??1cl_entity_t@@QEAA@XZ    0000000140010bc0 f i cl_main.obj
 0001:0000fbe0       ??4cl_entity_t@@QEAAAEAU0@$$QEAU0@@Z 0000000140010be0 f i cl_main.obj
 0001:0000fbe0       ??4cl_entity_t@@QEAAAEAU0@AEBU0@@Z 0000000140010be0 f i cl_main.obj
 0001:0000ff60       ??0adv_choice_t@CUISettingsWindow@@QEAA@XZ 0000000140010f60 f i uisettingswindow.obj
 0001:0000ff60       ??0maptexturematerial_t@@QEAA@XZ 0000000140010f60 f i cl_main.obj
 0001:0000ff60       ??0sent_assoc_t@@QEAA@XZ   0000000140010f60 f i flexmanager.obj
 0001:0000ff60       ??0setting_t@CUISettingsWindow@@QEAA@XZ 0000000140010f60 f i uisettingswindow.obj
 0001:0000ffb0       ??1adv_choice_t@CUISettingsWindow@@QEAA@XZ 0000000140010fb0 f i uisettingswindow.obj
 0001:0000ffb0       ??1cmd_definition_t@CCommandManager@@QEAA@XZ 0000000140010fb0 f i commands.obj
 0001:0000ffb0       ??1con_input_t@@QEAA@XZ    0000000140010fb0 f i console.obj
 0001:0000ffb0       ??1glsl_attrib_t@CGLSLShader@@QEAA@XZ 0000000140010fb0 f i r_glsl.obj
 0001:0000ffb0       ??1glsl_determinator_t@CGLSLShader@@QEAA@XZ 0000000140010fb0 f i r_glsl.obj
 0001:0000ffb0       ??1maptexturematerial_t@@QEAA@XZ 0000000140010fb0 f i cl_main.obj
 0001:0000ffb0       ??1sent_assoc_t@@QEAA@XZ   0000000140010fb0 f i flexmanager.obj
 0001:0000ffb0       ??1setting_t@CUISettingsWindow@@QEAA@XZ 0000000140010fb0 f i uisettingswindow.obj
 0001:0000ffb0       ??1sv_entitypacket_t@@QEAA@XZ 0000000140010fb0 f i sv_main.obj
 0001:0000ffb0       ??1sv_level_connection_t@@QEAA@XZ 0000000140010fb0 f i sv_main.obj
 0001:0000ffe0       ??4?$CArray@M@@QEAAXAEBV0@@Z 0000000140010fe0 f i cl_main.obj
 0001:00010050       ??1?$CArray@Uusermsg_t@@@@QEAA@XZ 0000000140011050 f i cl_main.obj
 0001:00010090       ??1?$CArray@Ucl_usermsgfunction_t@@@@QEAA@XZ 0000000140011090 f i cl_main.obj
 0001:00010090       ??1?$CArray@Uhdr_column_t@CUIListHeader@@@@QEAA@XZ 0000000140011090 f i uielements.obj
 0001:000100d0       ??1?$CLinkedList@Ucl_resource_t@@@@QEAA@XZ 00000001400110d0 f i cl_main.obj
 0001:00010100       ??1?$CArray@Udecalcache_t@@@@QEAA@XZ 0000000140011100 f i cl_main.obj
 0001:00010100       ??1?$CArray@Udisabled_state_t@CGLSLShader@@@@QEAA@XZ 0000000140011100 f i r_glsl.obj
 0001:00010100       ??1?$CArray@Udll_export_t@@@@QEAA@XZ 0000000140011100 f i sv_main.obj
 0001:00010100       ??1?$CArray@Usnd_missing_t@CSoundEngine@@@@QEAA@XZ 0000000140011100 f i cl_snd.obj
 0001:00010100       ??1?$CArray@Usv_model_t@@@@QEAA@XZ 0000000140011100 f i sv_main.obj
 0001:00010100       ??1?$CArray@Usv_particlecache_t@@@@QEAA@XZ 0000000140011100 f i sv_main.obj
 0001:00010100       ??1?$CArray@Usv_sound_t@@@@QEAA@XZ 0000000140011100 f i sv_main.obj
 0001:00010150       ??1?$CArray@Ucl_entity_t@@@@QEAA@XZ 0000000140011150 f i cl_main.obj
 0001:00010190       ?resize@?$CArray@Ucl_entity_t@@@@QEAAXI@Z 0000000140011190 f i cl_main.obj
 0001:00010310       ??A?$CArray@Ucl_entity_t@@@@QEBAAEAUcl_entity_t@@I@Z 0000000140011310 f i cl_main.obj
 0001:00010360       ?resize@?$CArray@Uusercmd_t@@@@QEAAXI@Z 0000000140011360 f i cl_main.obj
 0001:00010710       ??1?$CArray@Uadv_choice_t@CUISettingsWindow@@@@QEAA@XZ 0000000140011710 f i uisettingswindow.obj
 0001:00010710       ??1?$CArray@Umaptexturematerial_t@@@@QEAA@XZ 0000000140011710 f i cl_main.obj
 0001:00010710       ??1?$CArray@Usent_assoc_t@@@@QEAA@XZ 0000000140011710 f i flexmanager.obj
 0001:00010750       ??_Elightstyle_t@CDynamicLightManager@@QEAAPEAXI@Z 0000000140011750 f i r_dlights.obj
 0001:00010750       ??_Eusermsg_t@@QEAAPEAXI@Z 0000000140011750 f i cl_main.obj
 0001:00010790       ??_Ecl_usermsgfunction_t@@QEAAPEAXI@Z 0000000140011790 f i cl_main.obj
 0001:00010790       ??_Eglowquery_t@@QEAAPEAXI@Z 0000000140011790 f i r_glqueries.obj
 0001:00010790       ??_Ehdr_column_t@CUIListHeader@@QEAAPEAXI@Z 0000000140011790 f i uielements.obj
 0001:00010790       ??_Esv_usermsgfunction_t@@QEAAPEAXI@Z 0000000140011790 f i sv_main.obj
 0001:000107d0       ??_Edecalcache_t@@QEAAPEAXI@Z 00000001400117d0 f i cl_main.obj
 0001:000107d0       ??_Edisabled_state_t@CGLSLShader@@QEAAPEAXI@Z 00000001400117d0 f i r_glsl.obj
 0001:000107d0       ??_Edll_export_t@@QEAAPEAXI@Z 00000001400117d0 f i sv_main.obj
 0001:000107d0       ??_Esnd_missing_t@CSoundEngine@@QEAAPEAXI@Z 00000001400117d0 f i cl_snd.obj
 0001:000107d0       ??_Esv_model_t@@QEAAPEAXI@Z 00000001400117d0 f i sv_main.obj
 0001:000107d0       ??_Esv_particlecache_t@@QEAAPEAXI@Z 00000001400117d0 f i sv_main.obj
 0001:000107d0       ??_Esv_sound_t@@QEAAPEAXI@Z 00000001400117d0 f i sv_main.obj
 0001:00010810       ??_Ecl_entity_t@@QEAAPEAXI@Z 0000000140011810 f i cl_main.obj
 0001:00010850       ??_Eadv_choice_t@CUISettingsWindow@@QEAAPEAXI@Z 0000000140011850 f i uisettingswindow.obj
 0001:00010850       ??_Emaptexturematerial_t@@QEAAPEAXI@Z 0000000140011850 f i cl_main.obj
 0001:00010850       ??_Esent_assoc_t@@QEAAPEAXI@Z 0000000140011850 f i flexmanager.obj
 0001:00010850       ??_Esetting_t@CUISettingsWindow@@QEAAPEAXI@Z 0000000140011850 f i uisettingswindow.obj
 0001:00010890       ??1lightstyle_t@CDynamicLightManager@@QEAA@XZ 0000000140011890 f i r_dlights.obj
 0001:00010890       ??1part_msg_cache_t@@QEAA@XZ 0000000140011890 f i r_particles.obj
 0001:00010890       ??1usermsg_t@@QEAA@XZ      0000000140011890 f i cl_main.obj
 0001:000108a0       ?resize@?$CArray@M@@QEAAXI@Z 00000001400118a0 f i cl_main.obj
 0001:00010a40       ?resize@?$CArray@Uadv_choice_t@CUISettingsWindow@@@@QEAAXI@Z 0000000140011a40 f i uisettingswindow.obj
 0001:00010a40       ?resize@?$CArray@Umaptexturematerial_t@@@@QEAAXI@Z 0000000140011a40 f i cl_main.obj
 0001:00010a40       ?resize@?$CArray@Usent_assoc_t@@@@QEAAXI@Z 0000000140011a40 f i flexmanager.obj
 0001:00010a40       ?resize@?$CArray@Usetting_t@CUISettingsWindow@@@@QEAAXI@Z 0000000140011a40 f i uisettingswindow.obj
 0001:00010c10       ??0decalcache_t@@QEAA@XZ   0000000140011c10 f i cl_msg.obj
 0001:00010c10       ??0snd_missing_t@CSoundEngine@@QEAA@XZ 0000000140011c10 f i cl_snd.obj
 0001:00010c10       ??0sv_particlecache_t@@QEAA@XZ 0000000140011c10 f i sv_msg.obj
 0001:00010c50       ?HasError@CMSGReader@@QEAA_NXZ 0000000140011c50 f i cl_msg.obj
 0001:00010d40       ?ReadByte@CMSGReader@@QEAAEXZ 0000000140011d40 f i cl_msg.obj
 0001:00010ee0       ?ReadInt16@CMSGReader@@QEAAFXZ 0000000140011ee0 f i cl_msg.obj
 0001:00010ee0       ?ReadUint16@CMSGReader@@QEAAGXZ 0000000140011ee0 f i cl_msg.obj
 0001:00011080       ?ReadInt32@CMSGReader@@QEAAHXZ 0000000140012080 f i cl_msg.obj
 0001:00011080       ?ReadUint32@CMSGReader@@QEAAIXZ 0000000140012080 f i cl_msg.obj
 0001:00011220       ?ReadInt64@CMSGReader@@QEAA_JXZ 0000000140012220 f i cl_msg.obj
 0001:00011220       ?ReadUint64@CMSGReader@@QEAA_KXZ 0000000140012220 f i cl_msg.obj
 0001:000113c0       ?ReadSmallFloat@CMSGReader@@QEAAMXZ 00000001400123c0 f i cl_msg.obj
 0001:00011400       ?ReadFloat@CMSGReader@@QEAAMXZ 0000000140012400 f i cl_msg.obj
 0001:000115a0       ?ReadDouble@CMSGReader@@QEAANXZ 00000001400125a0 f i cl_msg.obj
 0001:00011750       ?ReadString@CMSGReader@@QEAAPEBDXZ 0000000140012750 f i cl_msg.obj
 0001:000118f0       ?ReadBuffer@CMSGReader@@QEAAPEBEI@Z 00000001400128f0 f i cl_msg.obj
 0001:00011a70       ??0cl_usermsgfunction_t@@QEAA@XZ 0000000140012a70 f i cl_msg.obj
 0001:00011a70       ??0sv_usermsgfunction_t@@QEAA@XZ 0000000140012a70 f i sv_msg.obj
 0001:00011ab0       ?resize@?$CArray@Ucl_usermsgfunction_t@@@@QEAAXI@Z 0000000140012ab0 f i cl_msg.obj
 0001:00011ab0       ?resize@?$CArray@Usv_usermsgfunction_t@@@@QEAAXI@Z 0000000140012ab0 f i sv_msg.obj
 0001:00011c50       ?resize@?$CArray@Udecalcache_t@@@@QEAAXI@Z 0000000140012c50 f i cl_msg.obj
 0001:00011c50       ?resize@?$CArray@Usnd_missing_t@CSoundEngine@@@@QEAAXI@Z 0000000140012c50 f i cl_snd.obj
 0001:00011c50       ?resize@?$CArray@Usv_particlecache_t@@@@QEAAXI@Z 0000000140012c50 f i sv_msg.obj
 0001:00011de0       ?IsZero@Vector@@QEBA_NXZ   0000000140012de0 f i cl_pmove.obj
 0001:00011e10       ??0plane_t@@QEAA@XZ        0000000140012e10 f i cl_pmove.obj
 0001:00011e30       ?getBrushmodel@cache_model_t@@QEBAPEBUbrushmodel_t@@XZ 0000000140012e30 f i cl_pmove.obj
 0001:00011e70       ?radd@?$CLinkedList@PEAUfilechunk_t@@@@QEAAPEAUlink_t@1@PEAUfilechunk_t@@@Z 0000000140012e70 f i cl_resource.obj
 0001:00011e70       ?radd@?$CLinkedList@PEAUs_msg_cache_t@CSoundEngine@@@@QEAAPEAUlink_t@1@PEAUs_msg_cache_t@CSoundEngine@@@Z 0000000140012e70 f i cl_snd.obj
 0001:00011ed0       ?reserve@?$CArray@Udecalcache_t@@@@QEAAXI@Z 0000000140012ed0 f i cl_resource.obj
 0001:00012050       ?clear@?$CArray@Udecalcache_t@@@@QEAAXXZ 0000000140013050 f i cl_resource.obj
 0001:000120b0       ??0snd_oggcache_t@@QEAA@XZ 00000001400130b0 f i cl_snd.obj
 0001:000120f0       ??0snd_active_t@CSoundEngine@@QEAA@XZ 00000001400130f0 f i cl_snd.obj
 0001:00012190       ?getSequence@studiohdr_t@@QEBAPEBUmstudioseqdesc_t@@H@Z 0000000140013190 f i cl_snd.obj
 0001:000121f0       ??_GCSentencesFile@@QEAAPEAXI@Z 00000001400131f0 f i cl_snd.obj
 0001:00012280       ??_Gsnd_cache_t@CSoundEngine@@QEAAPEAXI@Z 0000000140013280 f i cl_snd.obj
 0001:000122b0       ??1snd_active_t@CSoundEngine@@QEAA@XZ 00000001400132b0 f i cl_snd.obj
 0001:000122c0       ??_Gsnd_music_t@CSoundEngine@@QEAAPEAXI@Z 00000001400132c0 f i cl_snd.obj
 0001:000122f0       ??1?$CArray@Usnd_active_t@CSoundEngine@@@@QEAA@XZ 00000001400132f0 f i cl_snd.obj
 0001:00012330       ??A?$CArray@Usnd_active_t@CSoundEngine@@@@QEBAAEAUsnd_active_t@CSoundEngine@@I@Z 0000000140013330 f i cl_snd.obj
 0001:00012380       ?Normalize@Vector@@QEAAAEAV1@XZ 0000000140013380 f i cl_tempentities.obj
 0001:00012430       ??1tempentity_t@@QEAA@XZ   0000000140013430 f i cl_tempentities.obj
 0001:00012450       ??4tempentity_t@@QEAAAEAU0@$$QEAU0@@Z 0000000140013450 f i cl_tempentities.obj
 0001:000124f0       ??1?$CLinkedList@Ucon_input_t@@@@QEAA@XZ 00000001400134f0 f i console.obj
 0001:00012520       ?add@?$CLinkedList@Ucon_input_t@@@@QEAAPEAUlink_t@1@Ucon_input_t@@@Z 0000000140013520 f i console.obj
 0001:000125c0       ??1?$CLinkedList@VCString@@@@QEAA@XZ 00000001400135c0 f i console.obj
 0001:000125f0       ?add@?$CLinkedList@VCString@@@@QEAAPEAUlink_t@1@VCString@@@Z 00000001400135f0 f i console.obj
 0001:00012690       ?clear@?$CLinkedList@VCString@@@@QEAAXXZ 0000000140013690 f i console.obj
 0001:00012860       ?add@?$CLinkedList@PEAUedict_t@@@@QEAAPEAUlink_t@1@PEAUedict_t@@@Z 0000000140013860 f i sv_main.obj
 0001:00012860       ?add@?$CLinkedList@PEAUshadowmap_t@@@@QEAAPEAUlink_t@1@PEAUshadowmap_t@@@Z 0000000140013860 f i r_dlights.obj
 0001:00012860       ?add@?$CLinkedList@PEAVCCVar@@@@QEAAPEAUlink_t@1@PEAVCCVar@@@Z 0000000140013860 f i console.obj
 0001:000128c0       ??1?$CLinkedList@Udebug_print_t@CConsole@@@@QEAA@XZ 00000001400138c0 f i console.obj
 0001:000128f0       ?add@?$CLinkedList@Udebug_print_t@CConsole@@@@QEAAPEAUlink_t@1@Udebug_print_t@CConsole@@@Z 00000001400138f0 f i console.obj
 0001:000129a0       ?remove@?$CLinkedList@Udebug_print_t@CConsole@@@@QEAAXPEAUlink_t@1@@Z 00000001400139a0 f i console.obj
 0001:00012b00       ??0link_t@?$CLinkedList@Ucon_input_t@@@@QEAA@XZ 0000000140013b00 f i console.obj
 0001:00012b70       ?clear@?$CLinkedList@Ucon_input_t@@@@QEAAXXZ 0000000140013b70 f i console.obj
 0001:00012d50       ?remove@?$CLinkedList@VCString@@@@QEAAXPEAUlink_t@1@@Z 0000000140013d50 f i console.obj
 0001:00012eb0       ?clear@?$CLinkedList@Udebug_print_t@CConsole@@@@QEAAXXZ 0000000140013eb0 f i console.obj
 0001:00013080       ??0exception@std@@QEAA@AEBV01@@Z 0000000140014080 f i discordrpc.obj
 0001:000130c0       ?what@exception@std@@UEBAPEBDXZ 00000001400140c0 f i discordrpc.obj
 0001:000130e0       ??_Ebad_alloc@std@@UEAAPEAXI@Z 00000001400140e0 f i * CIL library *:* CIL module *
 0001:000130e0       ??_Ebad_array_new_length@std@@UEAAPEAXI@Z 00000001400140e0 f i * CIL library *:* CIL module *
 0001:000130e0       ??_Ebad_cast@std@@UEAAPEAXI@Z 00000001400140e0 f i * CIL library *:* CIL module *
 0001:000130e0       ??_Eexception@std@@UEAAPEAXI@Z 00000001400140e0 f i * CIL library *:* CIL module *
 0001:000130e0       ??_Eruntime_error@std@@UEAAPEAXI@Z 00000001400140e0 f i * CIL library *:* CIL module *
 0001:000130e0       ??_Gbad_alloc@std@@UEAAPEAXI@Z 00000001400140e0 f i discordrpc.obj
 0001:000130e0       ??_Gbad_array_new_length@std@@UEAAPEAXI@Z 00000001400140e0 f i discordrpc.obj
 0001:000130e0       ??_Gbad_cast@std@@UEAAPEAXI@Z 00000001400140e0 f i shdrchk.obj
 0001:000130e0       ??_Gexception@std@@UEAAPEAXI@Z 00000001400140e0 f i discordrpc.obj
 0001:000130e0       ??_Gruntime_error@std@@UEAAPEAXI@Z 00000001400140e0 f i discordrpc.obj
 0001:00013130       ??1bad_alloc@std@@UEAA@XZ  0000000140014130 f i discordrpc.obj
 0001:00013130       ??1bad_array_new_length@std@@UEAA@XZ 0000000140014130 f i discordrpc.obj
 0001:00013130       ??1bad_cast@std@@UEAA@XZ   0000000140014130 f i shdrchk.obj
 0001:00013130       ??1failure@ios_base@std@@UEAA@XZ 0000000140014130 f i discordrpc.obj
 0001:00013130       ??1runtime_error@std@@UEAA@XZ 0000000140014130 f i discordrpc.obj
 0001:00013150       ??0bad_array_new_length@std@@QEAA@XZ 0000000140014150 f i discordrpc.obj
 0001:00013180       ?_Throw_bad_array_new_length@std@@YAXXZ 0000000140014180 f i discordrpc.obj
 0001:00013180       ?__scrt_throw_std_bad_array_new_length@@YAXXZ 0000000140014180 f i MSVCRT:throw_bad_alloc.obj
 0001:000131a0       ??0bad_array_new_length@std@@QEAA@AEBV01@@Z 00000001400141a0 f i discordrpc.obj
 0001:000131e0       ??0bad_alloc@std@@QEAA@AEBV01@@Z 00000001400141e0 f i discordrpc.obj
 0001:00013220       ?_Xlen_string@std@@YAXXZ   0000000140014220 f i discordrpc.obj
 0001:00013240       ??0runtime_error@std@@QEAA@AEBV01@@Z 0000000140014240 f i discordrpc.obj
 0001:00013280       ?default_error_condition@error_category@std@@UEBA?AVerror_condition@2@H@Z 0000000140014280 f i discordrpc.obj
 0001:00013290       ?equivalent@error_category@std@@UEBA_NHAEBVerror_condition@2@@Z 0000000140014290 f i discordrpc.obj
 0001:000132d0       ?equivalent@error_category@std@@UEBA_NAEBVerror_code@2@H@Z 00000001400142d0 f i discordrpc.obj
 0001:000132f0       ?make_error_code@std@@YA?AVerror_code@1@W4io_errc@1@@Z 00000001400142f0 f i discordrpc.obj
 0001:00013310       ??0_System_error@std@@IEAA@Verror_code@1@AEBV?$basic_string@DU?$char_traits@D@std@@V?$allocator@D@2@@1@@Z 0000000140014310 f i discordrpc.obj
 0001:00013530       ??_E_System_error@std@@UEAAPEAXI@Z 0000000140014530 f i * CIL library *:* CIL module *
 0001:00013530       ??_Efailure@ios_base@std@@UEAAPEAXI@Z 0000000140014530 f i * CIL library *:* CIL module *
 0001:00013530       ??_Esystem_error@std@@UEAAPEAXI@Z 0000000140014530 f i * CIL library *:* CIL module *
 0001:00013530       ??_G_System_error@std@@UEAAPEAXI@Z 0000000140014530 f i discordrpc.obj
 0001:00013530       ??_Gfailure@ios_base@std@@UEAAPEAXI@Z 0000000140014530 f i discordrpc.obj
 0001:00013530       ??_Gsystem_error@std@@UEAAPEAXI@Z 0000000140014530 f i discordrpc.obj
 0001:00013580       ??0system_error@std@@QEAA@AEBV01@@Z 0000000140014580 f i discordrpc.obj
 0001:000135e0       ??0_System_error@std@@QEAA@AEBV01@@Z 00000001400145e0 f i discordrpc.obj
 0001:00013630       ?name@_Iostream_error_category2@std@@UEBAPEBDXZ 0000000140014630 f i discordrpc.obj
 0001:00013640       ?message@_Iostream_error_category2@std@@UEBA?AV?$basic_string@DU?$char_traits@D@std@@V?$allocator@D@2@@2@H@Z 0000000140014640 f i discordrpc.obj
 0001:00013700       ??_E_Iostream_error_category2@std@@UEAAPEAXI@Z 0000000140014700 f i * CIL library *:* CIL module *
 0001:00013700       ??_G_Iostream_error_category2@std@@UEAAPEAXI@Z 0000000140014700 f i discordrpc.obj
 0001:00013730       ??0failure@ios_base@std@@QEAA@PEBDAEBVerror_code@2@@Z 0000000140014730 f i discordrpc.obj
 0001:00013810       ??0failure@ios_base@std@@QEAA@AEBV012@@Z 0000000140014810 f i discordrpc.obj
 0001:00013870       ?erase@?$basic_string@DU?$char_traits@D@std@@V?$allocator@D@2@@std@@QEAAAEAV12@_K0@Z 0000000140014870 f i discordrpc.obj
 0001:000138e0       ??1?$basic_string@DU?$char_traits@D@std@@V?$allocator@D@2@@std@@QEAA@XZ 00000001400148e0 f i discordrpc.obj
 0001:000138f0       ??0?$basic_string@DU?$char_traits@D@std@@V?$allocator@D@2@@std@@QEAA@AEBV01@@Z 00000001400148f0 f i discordrpc.obj
 0001:00013a10       ?_Tidy_deallocate@?$basic_string@DU?$char_traits@D@std@@V?$allocator@D@2@@std@@AEAAXXZ 0000000140014a10 f i discordrpc.obj
 0001:00013a70       ?append@?$basic_string@DU?$char_traits@D@std@@V?$allocator@D@2@@std@@QEAAAEAV12@QEBD_K@Z 0000000140014a70 f i discordrpc.obj
 0001:00013af0       ?assign@?$basic_string@DU?$char_traits@D@std@@V?$allocator@D@2@@std@@QEAAAEAV12@QEBD_K@Z 0000000140014af0 f i discordrpc.obj
 0001:00013c60       ?_Xran@?$_String_val@U?$_Simple_types@D@std@@@std@@SAXXZ 0000000140014c60 f i discordrpc.obj
 0001:00013c80       ?deallocate@?$allocator@D@std@@QEAAXQEAD_K@Z 0000000140014c80 f i discordrpc.obj
 0001:00013cc0       ??$?6U?$char_traits@D@std@@@std@@YAAEAV?$basic_ostream@DU?$char_traits@D@std@@@0@AEAV10@PEBD@Z 0000000140014cc0 f i discordrpc.obj
 0001:00013f70       ??$_Construct@$00PEBD@?$basic_string@DU?$char_traits@D@std@@V?$allocator@D@2@@std@@AEAAXQEBD_K@Z 0000000140014f70 f i discordrpc.obj
 0001:00014080       ??$_Reallocate_grow_by@V<lambda_65e615be2a453ca0576c979606f46740>@@PEBD_K@?$basic_string@DU?$char_traits@D@std@@V?$allocator@D@2@@std@@AEAAAEAV01@_KV<lambda_65e615be2a453ca0576c979606f46740>@@PEBD_K@Z 0000000140015080 f i discordrpc.obj
 0001:00014210       ??1sentry@?$basic_ostream@DU?$char_traits@D@std@@@std@@QEAA@XZ 0000000140015210 f i discordrpc.obj
 0001:00014250       ??0sentry@?$basic_ostream@DU?$char_traits@D@std@@@std@@QEAA@AEAV12@@Z 0000000140015250 f i discordrpc.obj
 0001:000142d0       ?_Pnavail@?$basic_streambuf@DU?$char_traits@D@std@@@std@@IEBA_JXZ 00000001400152d0 f i discordrpc.obj
 0001:000142f0       ??1_Sentry_base@?$basic_ostream@DU?$char_traits@D@std@@@std@@QEAA@XZ 00000001400152f0 f i discordrpc.obj
 0001:00014320       ?flush@?$basic_ostream@DU?$char_traits@D@std@@@std@@QEAAAEAV12@XZ 0000000140015320 f i discordrpc.obj
 0001:00014450       ?_Osfx@?$basic_ostream@DU?$char_traits@D@std@@@std@@QEAAXXZ 0000000140015450 f i discordrpc.obj
 0001:00014500       ?addhash@CHashList@@QEAA_NPEBEI@Z 0000000140015500 f i edictmanager.obj
 0001:00014640       ??0edict_t@@QEAA@XZ        0000000140015640 f i edictmanager.obj
 0001:000146d0       ?resize@?$CArray@Uedict_t@@@@QEAAXI@Z 00000001400156d0 f i edictmanager.obj
 0001:00014920       ??_Eedict_t@@QEAAPEAXI@Z   0000000140015920 f i edictmanager.obj
 0001:00014960       ??1edict_t@@QEAA@XZ        0000000140015960 f i edictmanager.obj
 0001:00014960       ??1sunflare_t@CLensFlareRenderer@@QEAA@XZ 0000000140015960 f i r_lensflare.obj
 0001:00014970       ??4?$CArray@I@@QEAAXAEBV0@@Z 0000000140015970 f i edictmanager.obj
 0001:000149e0       ?reserve@?$CArray@VCString@@@@QEAAXI@Z 00000001400159e0 f i filewriterthread.obj
 0001:00014c00       ?radd@?$CLinkedList@VCString@@@@QEAAPEAUlink_t@1@VCString@@@Z 0000000140015c00 f i filewriterthread.obj
 0001:00014ca0       ??0brushmodel_t@@QEAA@XZ   0000000140015ca0 f i modelcache.obj
 0001:00014e50       ??1brushmodel_t@@QEAA@XZ   0000000140015e50 f i modelcache.obj
 0001:00014ff0       ??1msurface_t@@QEAA@XZ     0000000140015ff0 f i modelcache.obj
 0001:00015000       ??1mspritegroup_t@@QEAA@XZ 0000000140016000 f i modelcache.obj
 0001:000150b0       ??1mspriteframedesc_t@@QEAA@XZ 00000001400160b0 f i modelcache.obj
 0001:00015130       ??0cache_model_t@@QEAA@XZ  0000000140016130 f i modelcache.obj
 0001:00015180       ?getVBMCache@cache_model_t@@QEAAPEAUvbmcache_t@@XZ 0000000140016180 f i modelcache.obj
 0001:000151c0       ??_Gmsprite_t@@QEAAPEAXI@Z 00000001400161c0 f i modelcache.obj
 0001:00015230       ?push_back@?$CArray@PEAUcache_model_t@@@@QEAAXAEBQEAUcache_model_t@@@Z 0000000140016230 f i modelcache.obj
 0001:00015230       ?push_back@?$CArray@PEAUen_texture_t@@@@QEAAXAEBQEAUen_texture_t@@@Z 0000000140016230 f i r_main.obj
 0001:00015230       ?push_back@?$CArray@PEAUfont_set_t@@@@QEAAXAEBQEAUfont_set_t@@@Z 0000000140016230 f i r_text.obj
 0001:00015360       ??_Emspriteframedesc_t@@QEAAPEAXI@Z 0000000140016360 f i modelcache.obj
 0001:000153a0       ??0net_msgcache_t@@QEAA@II@Z 00000001400163a0 f i networking.obj
 0001:00015400       ??0net_client_t@@QEAA@XZ   0000000140016400 f i networking.obj
 0001:00015460       ??_ECNetworking@@UEAAPEAXI@Z 0000000140016460 f i * CIL library *:* CIL module *
 0001:00015460       ??_GCNetworking@@UEAAPEAXI@Z 0000000140016460 f i networking.obj
 0001:000154a0       ?resize@?$CArray@Unet_msg_t@@@@QEAAXI@Z 00000001400164a0 f i networking.obj
 0001:00015600       ??1?$CArray@Unet_client_t@@@@QEAA@XZ 0000000140016600 f i networking.obj
 0001:00015650       ?resize@?$CArray@Unet_client_t@@@@QEAAXI@Z 0000000140016650 f i networking.obj
 0001:00015840       ??_Enet_client_t@@QEAAPEAXI@Z 0000000140016840 f i networking.obj
 0001:00015880       ??1net_client_t@@QEAA@XZ   0000000140016880 f i networking.obj
 0001:00015890       ??_ECMPNetworking@@UEAAPEAXI@Z 0000000140016890 f i * CIL library *:* CIL module *
 0001:00015890       ??_GCMPNetworking@@UEAAPEAXI@Z 0000000140016890 f i net_mp.obj
 0001:00015950       ?Disconnect@CSPNetworking@@UEAAXI@Z 0000000140016950 f i net_sp.obj
 0001:00015950       ?PerformAction@CUIBindsRowEvent@@UEAAXM@Z 0000000140016950 f i uisettingswindow.obj
 0001:00015950       ?PerformAction@CUIConsoleKeyEventCallback@@UEAAXM@Z 0000000140016950 f i uiconsolewindow.obj
 0001:00015950       ?PerformAction@CUIDropDownRowClickEvent@CUIDropDownList@@UEAAXM@Z 0000000140016950 f i uielements.obj
 0001:00015950       ?PerformAction@CUISaveLoadWindowRowEvent@@UEAAXM@Z 0000000140016950 f i uisaveloadwindow.obj
 0001:00015950       ?_Lock@?$basic_streambuf@DU?$char_traits@D@std@@@std@@UEAAXXZ 0000000140016950 f i shdrchk.obj
 0001:00015950       ?_Unlock@?$basic_streambuf@DU?$char_traits@D@std@@@std@@UEAAXXZ 0000000140016950 f i shdrchk.obj
 0001:00015950       ?imbue@?$basic_streambuf@DU?$char_traits@D@std@@@std@@MEAAXAEBVlocale@2@@Z 0000000140016950 f i shdrchk.obj
 0001:00015950       ?onGLInitialization@CUIWindow@@UEAAXXZ 0000000140016950 f i uielements.obj
 0001:00015950       ?setDisabled@CUIObject@@UEAAX_N@Z 0000000140016950 f i uielements.obj
 0001:00015950       ?setOffsetValue@CUIObject@@UEAAXM@Z 0000000140016950 f i uielements.obj
 0001:00015950       ?updateRangeSize@CUIObject@@UEAAXXZ 0000000140016950 f i uielements.obj
 0001:00015950       _guard_check_icall_nop     0000000140016950 f i MSVCRT:guard_support.obj
 0001:00015950       _initialize_denormal_control 0000000140016950 f i MSVCRT:denormal_control.obj
 0001:00015950       _initialize_invalid_parameter_handler 0000000140016950 f i MSVCRT:invalid_parameter_handler.obj
 0001:00015960       ?AttemptConnection@CSPNetworking@@UEAA_NXZ 0000000140016960 f i net_sp.obj
 0001:00015960       ?considerElementOnResize@CUIObject@@UEAA_NPEAV1@@Z 0000000140016960 f i uielements.obj
 0001:00015960       ?do_always_noconv@?$codecvt@DDU_Mbstatet@@@std@@MEBA_NXZ 0000000140016960 f i shdrchk.obj
 0001:00015960       ?initBottomElements@CUITabLabel@@UEAA_NXZ 0000000140016960 f i uielements.obj
 0001:00015960       ?isInteractive@CUIButton@@UEAA_NXZ 0000000140016960 f i uielements.obj
 0001:00015960       ?isInteractive@CUIDragger@@UEAA_NXZ 0000000140016960 f i uielements.obj
 0001:00015960       ?isInteractive@CUIDropDownList@@UEAA_NXZ 0000000140016960 f i uielements.obj
 0001:00015960       ?isInteractive@CUIInteractiveObject@@UEAA_NXZ 0000000140016960 f i uielements.obj
 0001:00015960       ?isInteractive@CUIListRow@@UEAA_NXZ 0000000140016960 f i uielements.obj
 0001:00015960       ?isInteractive@CUIListSeparator@@UEAA_NXZ 0000000140016960 f i uielements.obj
 0001:00015960       ?isInteractive@CUIScrollableSurface@@UEAA_NXZ 0000000140016960 f i uielements.obj
 0001:00015960       ?isInteractive@CUIScroller@@UEAA_NXZ 0000000140016960 f i uielements.obj
 0001:00015960       ?isInteractive@CUISlider@@UEAA_NXZ 0000000140016960 f i uielements.obj
 0001:00015960       ?isInteractive@CUITabBody@@UEAA_NXZ 0000000140016960 f i uielements.obj
 0001:00015960       ?isInteractive@CUITabList@@UEAA_NXZ 0000000140016960 f i uielements.obj
 0001:00015960       ?isInteractive@CUITextTab@@UEAA_NXZ 0000000140016960 f i uielements.obj
 0001:00015960       ?isResizable@CUIDragger@@UEAA_NXZ 0000000140016960 f i uielements.obj
 0001:00015960       ?isResizable@CUIScrollableSurface@@UEAA_NXZ 0000000140016960 f i uielements.obj
 0001:00015960       ?isResizable@CUIScroller@@UEAA_NXZ 0000000140016960 f i uielements.obj
 0001:00015960       ?isResizable@CUISurface@@UEAA_NXZ 0000000140016960 f i uielements.obj
 0001:00015960       ?isWindow@CUIWindow@@UEAA_NXZ 0000000140016960 f i uielements.obj
 0001:00015960       __acrt_initialize          0000000140016960 f i MSVCRT:ucrt_stubs.obj
 0001:00015960       __acrt_uninitialize        0000000140016960 f i MSVCRT:ucrt_stubs.obj
 0001:00015960       __scrt_stub_for_acrt_initialize 0000000140016960 f i MSVCRT:ucrt_stubs.obj
 0001:00015960       __scrt_stub_for_acrt_uninitialize 0000000140016960 f i MSVCRT:ucrt_stubs.obj
 0001:00015960       __vcrt_initialize          0000000140016960 f i MSVCRT:ucrt_stubs.obj
 0001:00015960       __vcrt_uninitialize        0000000140016960 f i MSVCRT:ucrt_stubs.obj
 0001:00015960       _should_initialize_environment 0000000140016960 f i MSVCRT:env_mode.obj
 0001:00015970       ??_ECSPNetworking@@UEAAPEAXI@Z 0000000140016970 f i * CIL library *:* CIL module *
 0001:00015970       ??_GCSPNetworking@@UEAAPEAXI@Z 0000000140016970 f i net_sp.obj
 0001:000159b0       ??ACString@@QEBADI@Z       00000001400169b0 f i pbspv1.obj
 0001:00015a30       ??0mtexture_t@@QEAA@XZ     0000000140016a30 f i pbspv1.obj
 0001:00015a80       ??0msurface_t@@QEAA@XZ     0000000140016a80 f i pbspv1.obj
 0001:00015ad0       ??1beam_t@@QEAA@XZ         0000000140016ad0 f i r_beams.obj
 0001:00015af0       ??4beam_t@@QEAAAEAU0@$$QEAU0@@Z 0000000140016af0 f i r_beams.obj
 0001:00015d80       ?resize@?$CArray@Ubeamsegment_t@@@@QEAAXI@Z 0000000140016d80 f i r_beams.obj
 0001:000160e0       ??1?$CLinkedList@Ublackhole_t@CBlackHoleRenderer@@@@QEAA@XZ 00000001400170e0 f i r_blackhole.obj
 0001:00016110       ?remove@?$CLinkedList@Ublackhole_t@CBlackHoleRenderer@@@@QEAAXPEAUlink_t@1@@Z 0000000140017110 f i r_blackhole.obj
 0001:00016270       ?clear@?$CLinkedList@Ublackhole_t@CBlackHoleRenderer@@@@QEAAXXZ 0000000140017270 f i r_blackhole.obj
 0001:00016430       ??0cable_object_t@@QEAA@XZ 0000000140017430 f i r_cables.obj
 0001:00016470       ??1cable_object_t@@QEAA@XZ 0000000140017470 f i r_cables.obj
 0001:00016480       ??_Ecable_object_t@@QEAAPEAXI@Z 0000000140017480 f i r_cables.obj
 0001:000164c0       ?resize@?$CArray@Ucable_object_t@@@@QEAAXI@Z 00000001400174c0 f i r_cables.obj
 0001:000166d0       ?addpointer@CBuffer@@QEAAXPEAPEAX@Z 00000001400176d0 f i r_cubemaps.obj
 0001:00016860       ?resize@?$CArray@Ucubemapinfo_t@@@@QEAAXI@Z 0000000140017860 f i r_cubemaps.obj
 0001:00016bb0       ??1?$CLinkedList@Ucached_decal_t@@@@QEAA@XZ 0000000140017bb0 f i r_decals.obj
 0001:00016be0       ?remove@?$CLinkedList@Ucached_decal_t@@@@QEAAXPEAUlink_t@1@@Z 0000000140017be0 f i r_decals.obj
 0001:00016d40       ?clear@?$CLinkedList@Ucached_decal_t@@@@QEAAXXZ 0000000140017d40 f i r_decals.obj
 0001:00016f10       ??1?$CLinkedList@VVector@@@@QEAA@XZ 0000000140017f10 f i r_decals.obj
 0001:00016f40       ?add@?$CLinkedList@VVector@@@@QEAAPEAUlink_t@1@VVector@@@Z 0000000140017f40 f i r_decals.obj
 0001:00016fc0       ?clear@?$CLinkedList@Uactive_load_shader_t@@@@QEAAXXZ 0000000140017fc0 f i r_main.obj
 0001:00016fc0       ?clear@?$CLinkedList@VVector@@@@QEAAXXZ 0000000140017fc0 f i r_decals.obj
 0001:00017180       ??0lightstyle_t@CDynamicLightManager@@QEAA@XZ 0000000140018180 f i r_dlights.obj
 0001:000171a0       ??_Gdlight_sceneinfo_t@@QEAAPEAXI@Z 00000001400181a0 f i r_dlights.obj
 0001:000171d0       ?resize@?$CArray@D@@QEAAXI@Z 00000001400181d0 f i r_dlights.obj
 0001:000172d0       ?resize@?$CArray@Ulightstyle_t@CDynamicLightManager@@@@QEAAXI@Z 00000001400182d0 f i r_dlights.obj
 0001:000174f0       ??A?$CArray@Uadv_choice_t@CUISettingsWindow@@@@QEBAAEAUadv_choice_t@CUISettingsWindow@@I@Z 00000001400184f0 f i uisettingswindow.obj
 0001:000174f0       ??A?$CArray@Ulightstyle_t@CDynamicLightManager@@@@QEBAAEAUlightstyle_t@CDynamicLightManager@@I@Z 00000001400184f0 f i r_dlights.obj
 0001:00017540       ??0glowquery_t@@QEAA@XZ    0000000140018540 f i r_glqueries.obj
 0001:00017560       ?resize@?$CArray@Uglowquery_t@@@@QEAAXI@Z 0000000140018560 f i r_glqueries.obj
 0001:00017710       ?resize@?$CArray@Usunflare_t@CLensFlareRenderer@@@@QEAAXI@Z 0000000140018710 f i r_lensflare.obj
 0001:00017900       ?erase@?$CArray@Usunflare_t@CLensFlareRenderer@@@@QEAAXI@Z 0000000140018900 f i r_lensflare.obj
 0001:00017ae0       ??_Esunflare_t@CLensFlareRenderer@@QEAAPEAXI@Z 0000000140018ae0 f i r_lensflare.obj
 0001:00017b20       ??0sunflare_t@CLensFlareRenderer@@QEAA@XZ 0000000140018b20 f i r_lensflare.obj
 0001:00017b40       ?resize@?$CArray@Uvertex_t@CNormalSmoothing@@@@QEAAXI@Z 0000000140018b40 f i r_nsmoothing.obj
 0001:00017e00       ?SetUniform4f@CGLSLShader@@QEAAXHMMMM@Z 0000000140018e00 f i r_sky.obj
 0001:00017fa0       ??0skytextureset_t@CSkyRenderer@@QEAA@XZ 0000000140018fa0 f i r_sky.obj
 0001:00017ff0       ??A?$CArray@Uskytextureset_t@CSkyRenderer@@@@QEBAAEAUskytextureset_t@CSkyRenderer@@I@Z 0000000140018ff0 f i r_sky.obj
 0001:00018040       ??_Eskytextureset_t@CSkyRenderer@@QEAAPEAXI@Z 0000000140019040 f i r_sky.obj
 0001:00018080       ?resize@?$CArray@Uskytextureset_t@CSkyRenderer@@@@QEAAXI@Z 0000000140019080 f i r_sky.obj
 0001:00018250       ?resize@?$CArray@Uwad3file_t@CWADTextureResource@@@@QEAAXI@Z 0000000140019250 f i r_wadtextures.obj
 0001:00018420       ??0script_definition_t@@QEAA@XZ 0000000140019420 f i r_particles.obj
 0001:00018580       ??_Gscript_cache_t@@QEAAPEAXI@Z 0000000140019580 f i r_particles.obj
 0001:00018640       ??4cl_particle_t@@QEAAAEAU0@$$QEAU0@@Z 0000000140019640 f i r_particles.obj
 0001:000189b0       ??1?$CLinkedList@Upart_msg_cache_t@@@@QEAA@XZ 00000001400199b0 f i r_particles.obj
 0001:000189e0       ?radd@?$CLinkedList@Upart_msg_cache_t@@@@QEAAPEAUlink_t@1@Upart_msg_cache_t@@@Z 00000001400199e0 f i r_particles.obj
 0001:00018b00       ?remove@?$CLinkedList@Upart_msg_cache_t@@@@QEAAXPEAUlink_t@1@@Z 0000000140019b00 f i r_particles.obj
 0001:00018c60       ?clear@?$CLinkedList@Upart_msg_cache_t@@@@QEAAXXZ 0000000140019c60 f i r_particles.obj
 0001:00018e30       ?resize@?$CArray@Uiterator_t@?$CLinkedList@PEAUbsp_decal_t@@@@@@QEAAXI@Z 0000000140019e30 f i r_bsp.obj
 0001:00018e30       ?resize@?$CArray@Uiterator_t@?$CLinkedList@Upart_msg_cache_t@@@@@@QEAAXI@Z 0000000140019e30 f i r_particles.obj
 0001:00018f40       ??0temp_sprite_t@@QEAA@XZ  0000000140019f40 f i r_sprites.obj
 0001:00018f70       ??1temp_sprite_t@@QEAA@XZ  0000000140019f70 f i r_sprites.obj
 0001:00018f90       ?getBones@vbmmesh_t@@QEBAPEBEPEBUvbmheader_t@@@Z 0000000140019f90 f i r_vbm.obj
 0001:00018fe0       ?getVertexes@vbmheader_t@@QEBAPEBUvbmvertex_t@@XZ 0000000140019fe0 f i r_vbm.obj
 0001:00019020       ?getIndexes@vbmheader_t@@QEBAPEBIXZ 000000014001a020 f i r_vbm.obj
 0001:00019060       ?getSkinFamilies@vbmheader_t@@QEBAPEBFXZ 000000014001a060 f i r_vbm.obj
 0001:000190a0       ?getHitBox@studiohdr_t@@QEBAPEBUmstudiobbox_t@@H@Z 000000014001a0a0 f i r_vbm.obj
 0001:00019100       ?SetUniform4fv@CGLSLShader@@QEAAXHPEBMI@Z 000000014001a100 f i r_vbm.obj
 0001:00019250       ?EnableSync@CGLSLShader@@QEAAXH@Z 000000014001a250 f i r_vbm.obj
 0001:000192c0       ?DisableSync@CGLSLShader@@QEAAXH@Z 000000014001a2c0 f i r_vbm.obj
 0001:00019370       ??0vbmdecal_t@@QEAA@XZ     000000014001a370 f i r_vbm.obj
 0001:000193a0       ??1vbmdecal_t@@QEAA@XZ     000000014001a3a0 f i r_vbm.obj
 0001:00019440       ??0vbm_attribs@@QEAA@XZ    000000014001a440 f i r_vbm.obj
 0001:00019690       ??4entity_lightinfo_t@@QEAAAEAU0@AEBU0@@Z 000000014001a690 f i r_vbm.obj
 0001:00019cf0       ??1lightbatch_t@@QEAA@XZ   000000014001acf0 f i r_vbm.obj
 0001:00019d20       ??0lightbatch_t@@QEAA@AEAU0@@Z 000000014001ad20 f i r_vbm.obj
 0001:00019e40       ??4vbmdecal_t@@QEAAAEAU0@AEBU0@@Z 000000014001ae40 f i r_vbm.obj
 0001:00019f10       ??1?$CLinkedList@Ulightbatch_t@@@@QEAA@XZ 000000014001af10 f i r_vbm.obj
 0001:00019f40       ?add@?$CLinkedList@Ulightbatch_t@@@@QEAAPEAUlink_t@1@Ulightbatch_t@@@Z 000000014001af40 f i r_vbm.obj
 0001:0001a220       ?clear@?$CLinkedList@Ulightbatch_t@@@@QEAAXXZ 000000014001b220 f i r_vbm.obj
 0001:0001a3f0       ?R_WaterQualityCvarCallBack@@YAXPEAVCCVar@@@Z 000000014001b3f0 f   r_water.obj
 0001:0001a440       ?Init@CWaterShader@@QEAA_NXZ 000000014001b440 f   r_water.obj
 0001:0001a920       ?InitGL@CWaterShader@@QEAA_NXZ 000000014001b920 f   r_water.obj
 0001:0001b480       ?ClearGL@CWaterShader@@QEAAXXZ 000000014001c480 f   r_water.obj
 0001:0001b6c0       ?ClearGame@CWaterShader@@QEAAXXZ 000000014001c6c0 f   r_water.obj
 0001:0001b9b0       ?CreateLightmapTexture@CWaterShader@@AEAAXPEAUcl_water_t@@@Z 000000014001c9b0 f   r_water.obj
 0001:0001be50       ?CreateDepthTexture@CWaterShader@@AEAAXXZ 000000014001ce50 f   r_water.obj
 0001:0001bf20       ?ParseScript@CWaterShader@@SAXPEBDPEAUwater_settings_t@@0@Z 000000014001cf20 f   r_water.obj
 0001:0001cac0       ?LoadScripts@CWaterShader@@QEAAXXZ 000000014001dac0 f   r_water.obj
 0001:0001d2a0       ?AddEntity@CWaterShader@@QEAAXPEAUcl_entity_t@@@Z 000000014001e2a0 f   r_water.obj
 0001:0001ec30       ?CreateRenderToTexture@CWaterShader@@AEAA_NPEAUcl_water_t@@@Z 000000014001fc30 f   r_water.obj
 0001:0001f1a0       ?SetupClipping@CWaterShader@@AEBAXPEBUref_params_t@@_N@Z 00000001400201a0 f   r_water.obj
 0001:0001f880       ?DrawWaterPasses@CWaterShader@@QEAA_NXZ 0000000140020880 f   r_water.obj
 0001:00020410       ?GetViewOrigin@CWaterShader@@AEBA?AVVector@@XZ 0000000140021410 f   r_water.obj
 0001:00020510       ?SetupRefract@CWaterShader@@AEAAXXZ 0000000140021510 f   r_water.obj
 0001:00020880       ?SetupReflect@CWaterShader@@AEAAXXZ 0000000140021880 f   r_water.obj
 0001:00020c70       ?DrawWater@CWaterShader@@QEAA_N_N@Z 0000000140021c70 f   r_water.obj
 0001:00021c50       ?resize@?$CArray@Uwater_settings_t@@@@QEAAXI@Z 0000000140022c50 f i r_water.obj
 0001:00022260       ??0areanode_t@@QEAA@XZ     0000000140023260 f i sv_main.obj
 0001:000222b0       ??0sv_client_t@@QEAA@XZ    00000001400232b0 f i sv_main.obj
 0001:000224d0       ??1sv_upload_t@@QEAA@XZ    00000001400234d0 f i sv_main.obj
 0001:00022510       ??0sv_model_t@@QEAA@XZ     0000000140023510 f i sv_main.obj
 0001:00022540       ??0serverstate_t@@QEAA@XZ  0000000140023540 f i sv_main.obj
 0001:00022aa0       ??1serverstate_t@@QEAA@XZ  0000000140023aa0 f i sv_main.obj
 0001:00022dd0       ??1sv_client_t@@QEAA@XZ    0000000140023dd0 f i sv_main.obj
 0001:00022e80       ??1gamevars_t@@QEAA@XZ     0000000140023e80 f i sv_main.obj
 0001:00022e90       ??1sv_netinfo_t@@QEAA@XZ   0000000140023e90 f i sv_main.obj
 0001:00022f60       ??1sv_levelchangeinfo_t@@QEAA@XZ 0000000140023f60 f i sv_main.obj
 0001:00022fd0       ??0vbmhull_t@@QEAA@XZ      0000000140023fd0 f i sv_main.obj
 0001:00022ff0       ??0entity_vbmhulldata_t@@QEAA@XZ 0000000140023ff0 f i sv_main.obj
 0001:000230a0       ??_Gusermsgdata_t@@QEAAPEAXI@Z 00000001400240a0 f i sv_main.obj
 0001:000230d0       ??0sv_levelinfo_t@@QEAA@XZ 00000001400240d0 f i sv_main.obj
 0001:00023140       ??1sv_levelinfo_t@@QEAA@XZ 0000000140024140 f i sv_main.obj
 0001:00023190       ??1saveddecal_t@@QEAA@XZ   0000000140024190 f i sv_main.obj
 0001:000231a0       ?add@?$CLinkedList@Usaveddecal_t@@@@QEAAPEAUlink_t@1@Usaveddecal_t@@@Z 00000001400241a0 f i sv_main.obj
 0001:00023290       ?clear@?$CLinkedList@Usaveddecal_t@@@@QEAAXXZ 0000000140024290 f i sv_main.obj
 0001:00023460       ??1?$CArray@Uareanode_t@@@@QEAA@XZ 0000000140024460 f i sv_main.obj
 0001:000234b0       ?resize@?$CArray@Uareanode_t@@@@QEAAXI@Z 00000001400244b0 f i sv_main.obj
 0001:00023630       ??1?$CLinkedList@Usv_levelinfo_t@@@@QEAA@XZ 0000000140024630 f i sv_main.obj
 0001:00023660       ?radd@?$CLinkedList@Usv_levelinfo_t@@@@QEAAPEAUlink_t@1@Usv_levelinfo_t@@@Z 0000000140024660 f i sv_main.obj
 0001:00023860       ?clear@?$CLinkedList@Usv_levelinfo_t@@@@QEAAXXZ 0000000140024860 f i sv_main.obj
 0001:00023a50       ??1areanode_t@@QEAA@XZ     0000000140024a50 f i sv_main.obj
 0001:00023aa0       ??0link_t@?$CLinkedList@Usv_level_connection_t@@@@QEAA@XZ 0000000140024aa0 f i sv_main.obj
 0001:00023b10       ??4?$CLinkedList@PEAUedict_t@@@@QEAAAEAV0@AEBV0@@Z 0000000140024b10 f i sv_main.obj
 0001:00023bc0       ?clear@?$CLinkedList@Usv_level_connection_t@@@@QEAAXXZ 0000000140024bc0 f i sv_main.obj
 0001:00023da0       ?resize@?$CArray@Usv_model_t@@@@QEAAXI@Z 0000000140024da0 f i sv_main.obj
 0001:00023f30       ??0sv_sound_t@@QEAA@XZ     0000000140024f30 f i sv_msg.obj
 0001:00023f70       ?remove@?$CLinkedList@VCString@@@@QEAA_NVCString@@@Z 0000000140024f70 f i sv_msg.obj
 0001:00024070       ?resize@?$CArray@Usv_sound_t@@@@QEAAXI@Z 0000000140025070 f i sv_msg.obj
 0001:00024220       ?resize@?$CArray@Usaved_move_t@@@@QEAAXI@Z 0000000140025220 f i sv_physics.obj
 0001:00024490       ??0mspriteframedesc_t@@QEAA@XZ 0000000140025490 f i sprite.obj
 0001:000244a0       ?resize@?$CArray@Umspriteframedesc_t@@@@QEAAXI@Z 00000001400254a0 f i sprite.obj
 0001:00024630       ??0bad_cast@std@@QEAA@XZ   0000000140025630 f i shdrchk.obj
 0001:00024660       ?_Throw_bad_cast@std@@YAXXZ 0000000140025660 f i shdrchk.obj
 0001:00024680       ??0bad_cast@std@@QEAA@AEBV01@@Z 0000000140025680 f i shdrchk.obj
 0001:000246c0       ??_E_Facet_base@std@@UEAAPEAXI@Z 00000001400256c0 f i * CIL library *:* CIL module *
 0001:000246c0       ??_G_Facet_base@std@@UEAAPEAXI@Z 00000001400256c0 f i shdrchk.obj
 0001:000246f0       ??1_Locinfo@std@@QEAA@XZ   00000001400256f0 f i shdrchk.obj
 0001:00024790       ?_Incref@facet@locale@std@@UEAAXXZ 0000000140025790 f i shdrchk.obj
 0001:000247a0       ?_Decref@facet@locale@std@@UEAAPEAV_Facet_base@3@XZ 00000001400257a0 f i shdrchk.obj
 0001:000247b0       ??1facet@locale@std@@MEAA@XZ 00000001400257b0 f i shdrchk.obj
 0001:000247c0       ??1locale@std@@QEAA@XZ     00000001400257c0 f i shdrchk.obj
 0001:000247f0       ?do_encoding@codecvt_base@std@@MEBAHXZ 00000001400257f0 f i shdrchk.obj
 0001:000247f0       ?do_max_length@codecvt_base@std@@MEBAHXZ 00000001400257f0 f i shdrchk.obj
 0001:000247f0       _get_startup_argv_mode     00000001400257f0 f i MSVCRT:argv_mode.obj
 0001:00024800       ?_Getcat@?$ctype@D@std@@SA_KPEAPEBVfacet@locale@2@PEBV42@@Z 0000000140025800 f i shdrchk.obj
 0001:00024990       ?do_tolower@?$ctype@D@std@@MEBADD@Z 0000000140025990 f i shdrchk.obj
 0001:000249a0       ?do_tolower@?$ctype@D@std@@MEBAPEBDPEADPEBD@Z 00000001400259a0 f i shdrchk.obj
 0001:000249f0       ?do_toupper@?$ctype@D@std@@MEBADD@Z 00000001400259f0 f i shdrchk.obj
 0001:00024a00       ?do_toupper@?$ctype@D@std@@MEBAPEBDPEADPEBD@Z 0000000140025a00 f i shdrchk.obj
 0001:00024a50       ?do_narrow@?$ctype@D@std@@MEBADDD@Z 0000000140025a50 f i shdrchk.obj
 0001:00024a50       ?do_widen@?$ctype@D@std@@MEBADD@Z 0000000140025a50 f i shdrchk.obj
 0001:00024a60       ?do_widen@?$ctype@D@std@@MEBAPEBDPEBD0PEAD@Z 0000000140025a60 f i shdrchk.obj
 0001:00024a80       ?do_narrow@?$ctype@D@std@@MEBAPEBDPEBD0DPEAD@Z 0000000140025a80 f i shdrchk.obj
 0001:00024aa0       ??_E?$ctype@D@std@@MEAAPEAXI@Z 0000000140025aa0 f i * CIL library *:* CIL module *
 0001:00024aa0       ??_G?$ctype@D@std@@MEAAPEAXI@Z 0000000140025aa0 f i shdrchk.obj
 0001:00024b10       ??_Eios_base@std@@UEAAPEAXI@Z 0000000140025b10 f i * CIL library *:* CIL module *
 0001:00024b10       ??_Gios_base@std@@UEAAPEAXI@Z 0000000140025b10 f i shdrchk.obj
 0001:00024b50       ?imbue@?$basic_filebuf@DU?$char_traits@D@std@@@std@@MEAAXAEBVlocale@2@@Z 0000000140025b50 f i shdrchk.obj
 0001:00024b80       ?sync@?$basic_filebuf@DU?$char_traits@D@std@@@std@@MEAAHXZ 0000000140025b80 f i shdrchk.obj
 0001:00024bd0       ?setbuf@?$basic_filebuf@DU?$char_traits@D@std@@@std@@MEAAPEAV?$basic_streambuf@DU?$char_traits@D@std@@@2@PEAD_J@Z 0000000140025bd0 f i shdrchk.obj
 0001:00024c30       ?seekpos@?$basic_filebuf@DU?$char_traits@D@std@@@std@@MEAA?AV?$fpos@U_Mbstatet@@@2@V32@H@Z 0000000140025c30 f i shdrchk.obj
 0001:00024cf0       ?seekoff@?$basic_filebuf@DU?$char_traits@D@std@@@std@@MEAA?AV?$fpos@U_Mbstatet@@@2@_JHH@Z 0000000140025cf0 f i shdrchk.obj
 0001:00024dc0       ?xsputn@?$basic_filebuf@DU?$char_traits@D@std@@@std@@MEAA_JPEBD_J@Z 0000000140025dc0 f i shdrchk.obj
 0001:00024ef0       ?xsgetn@?$basic_filebuf@DU?$char_traits@D@std@@@std@@MEAA_JPEAD_J@Z 0000000140025ef0 f i shdrchk.obj
 0001:000250a0       ?uflow@?$basic_filebuf@DU?$char_traits@D@std@@@std@@MEAAHXZ 00000001400260a0 f i shdrchk.obj
 0001:00025390       ?underflow@?$basic_filebuf@DU?$char_traits@D@std@@@std@@MEAAHXZ 0000000140026390 f i shdrchk.obj
 0001:00025400       ?pbackfail@?$basic_filebuf@DU?$char_traits@D@std@@@std@@MEAAHH@Z 0000000140026400 f i shdrchk.obj
 0001:000254f0       ?overflow@?$basic_filebuf@DU?$char_traits@D@std@@@std@@MEAAHH@Z 00000001400264f0 f i shdrchk.obj
 0001:000256b0       ?_Unlock@?$basic_filebuf@DU?$char_traits@D@std@@@std@@UEAAXXZ 00000001400266b0 f i shdrchk.obj
 0001:000256d0       ?_Lock@?$basic_filebuf@DU?$char_traits@D@std@@@std@@UEAAXXZ 00000001400266d0 f i shdrchk.obj
 0001:000256f0       ??1?$basic_filebuf@DU?$char_traits@D@std@@@std@@UEAA@XZ 00000001400266f0 f i shdrchk.obj
 0001:00025850       ?getFullRange@CUIObject@@UEAAIXZ 0000000140026850 f i uielements.obj
 0001:00025850       ?showmanyc@?$basic_streambuf@DU?$char_traits@D@std@@@std@@MEAA_JXZ 0000000140026850 f i shdrchk.obj
 0001:00025850       ?sync@?$basic_streambuf@DU?$char_traits@D@std@@@std@@MEAAHXZ 0000000140026850 f i shdrchk.obj
 0001:00025850       __scrt_exe_initialize_mta  0000000140026850 f i MSVCRT:utility_desktop.obj
 0001:00025850       __scrt_initialize_winrt    0000000140026850 f i MSVCRT:utility_desktop.obj
 0001:00025850       __scrt_stub_for_initialize_mta 0000000140026850 f i MSVCRT:utility_desktop.obj
 0001:00025850       _get_startup_commit_mode   0000000140026850 f i MSVCRT:commit_mode.obj
 0001:00025850       _get_startup_new_mode      0000000140026850 f i MSVCRT:new_mode.obj
 0001:00025850       _get_startup_thread_locale_mode 0000000140026850 f i MSVCRT:thread_locale.obj
 0001:00025850       _matherr                   0000000140026850 f i MSVCRT:matherr.obj
 0001:00025860       ?setbuf@?$basic_streambuf@DU?$char_traits@D@std@@@std@@MEAAPEAV12@PEAD_J@Z 0000000140026860 f i shdrchk.obj
 0001:00025870       ?seekoff@?$basic_streambuf@DU?$char_traits@D@std@@@std@@MEAA?AV?$fpos@U_Mbstatet@@@2@_JHH@Z 0000000140026870 f i shdrchk.obj
 0001:00025870       ?seekpos@?$basic_streambuf@DU?$char_traits@D@std@@@std@@MEAA?AV?$fpos@U_Mbstatet@@@2@V32@H@Z 0000000140026870 f i shdrchk.obj
 0001:00025890       ?xsputn@?$basic_streambuf@DU?$char_traits@D@std@@@std@@MEAA_JPEBD_J@Z 0000000140026890 f i shdrchk.obj
 0001:00025940       ?xsgetn@?$basic_streambuf@DU?$char_traits@D@std@@@std@@MEAA_JPEAD_J@Z 0000000140026940 f i shdrchk.obj
 0001:000259f0       ?uflow@?$basic_streambuf@DU?$char_traits@D@std@@@std@@MEAAHXZ 00000001400269f0 f i shdrchk.obj
 0001:00025a30       ?overflow@?$basic_streambuf@DU?$char_traits@D@std@@@std@@MEAAHH@Z 0000000140026a30 f i shdrchk.obj
 0001:00025a30       ?pbackfail@?$basic_streambuf@DU?$char_traits@D@std@@@std@@MEAAHH@Z 0000000140026a30 f i shdrchk.obj
 0001:00025a30       ?underflow@?$basic_streambuf@DU?$char_traits@D@std@@@std@@MEAAHXZ 0000000140026a30 f i shdrchk.obj
 0001:00025a40       ??1?$basic_istream@DU?$char_traits@D@std@@@std@@UEAA@XZ 0000000140026a40 f i shdrchk.obj
 0001:00025a70       ??1?$basic_ios@DU?$char_traits@D@std@@@std@@UEAA@XZ 0000000140026a70 f i shdrchk.obj
 0001:00025a90       ??1?$_Yarn@D@std@@QEAA@XZ  0000000140026a90 f i shdrchk.obj
 0001:00025a90       ??1?$_Yarn@_W@std@@QEAA@XZ 0000000140026a90 f i shdrchk.obj
 0001:00025ac0       ??_E?$basic_filebuf@DU?$char_traits@D@std@@@std@@UEAAPEAXI@Z 0000000140026ac0 f i * CIL library *:* CIL module *
 0001:00025ac0       ??_G?$basic_filebuf@DU?$char_traits@D@std@@@std@@UEAAPEAXI@Z 0000000140026ac0 f i shdrchk.obj
 0001:00025b00       ??_E?$basic_streambuf@DU?$char_traits@D@std@@@std@@UEAAPEAXI@Z 0000000140026b00 f i * CIL library *:* CIL module *
 0001:00025b00       ??_G?$basic_streambuf@DU?$char_traits@D@std@@@std@@UEAAPEAXI@Z 0000000140026b00 f i shdrchk.obj
 0001:00025b80       ??_E?$basic_istream@DU?$char_traits@D@std@@@std@@UEAAPEAXI@Z 0000000140026b80 f i * CIL library *:* CIL module *
 0001:00025b80       ??_G?$basic_istream@DU?$char_traits@D@std@@@std@@UEAAPEAXI@Z 0000000140026b80 f i shdrchk.obj
 0001:00025bf0       ??_E?$basic_ios@DU?$char_traits@D@std@@@std@@UEAAPEAXI@Z 0000000140026bf0 f i * CIL library *:* CIL module *
 0001:00025bf0       ??_G?$basic_ios@DU?$char_traits@D@std@@@std@@UEAAPEAXI@Z 0000000140026bf0 f i shdrchk.obj
 0001:00025c30       ?do_length@?$codecvt@DDU_Mbstatet@@@std@@MEBAHAEAU_Mbstatet@@PEBD1_K@Z 0000000140026c30 f i shdrchk.obj
 0001:00025c50       ?do_unshift@?$codecvt@DDU_Mbstatet@@@std@@MEBAHAEAU_Mbstatet@@PEAD1AEAPEAD@Z 0000000140026c50 f i shdrchk.obj
 0001:00025c60       ?do_in@?$codecvt@DDU_Mbstatet@@@std@@MEBAHAEAU_Mbstatet@@PEBD1AEAPEBDPEAD3AEAPEAD@Z 0000000140026c60 f i shdrchk.obj
 0001:00025c60       ?do_out@?$codecvt@DDU_Mbstatet@@@std@@MEBAHAEAU_Mbstatet@@PEBD1AEAPEBDPEAD3AEAPEAD@Z 0000000140026c60 f i shdrchk.obj
 0001:00025c80       ?_Reset_back@?$basic_filebuf@DU?$char_traits@D@std@@@std@@AEAAXXZ 0000000140026c80 f i shdrchk.obj
 0001:00025cb0       ?_Initcvt@?$basic_filebuf@DU?$char_traits@D@std@@@std@@IEAAXAEBV?$codecvt@DDU_Mbstatet@@@2@@Z 0000000140026cb0 f i shdrchk.obj
 0001:00025d30       ?_Endwrite@?$basic_filebuf@DU?$char_traits@D@std@@@std@@IEAA_NXZ 0000000140026d30 f i shdrchk.obj
 0001:00025e20       ?_Init@?$basic_filebuf@DU?$char_traits@D@std@@@std@@IEAAXPEAU_iobuf@@W4_Initfl@12@@Z 0000000140026e20 f i shdrchk.obj
 0001:00025ef0       ?_Gnavail@?$basic_streambuf@DU?$char_traits@D@std@@@std@@IEBA_JXZ 0000000140026ef0 f i shdrchk.obj
 0001:00025f10       ??_E?$codecvt@DDU_Mbstatet@@@std@@MEAAPEAXI@Z 0000000140026f10 f i * CIL library *:* CIL module *
 0001:00025f10       ??_E?$num_put@DV?$ostreambuf_iterator@DU?$char_traits@D@std@@@std@@@std@@MEAAPEAXI@Z 0000000140026f10 f i * CIL library *:* CIL module *
 0001:00025f10       ??_G?$codecvt@DDU_Mbstatet@@@std@@MEAAPEAXI@Z 0000000140026f10 f i shdrchk.obj
 0001:00025f10       ??_G?$num_put@DV?$ostreambuf_iterator@DU?$char_traits@D@std@@@std@@@std@@MEAAPEAXI@Z 0000000140026f10 f i sys_cmd.obj
 0001:00025f40       ??0?$basic_istream@DU?$char_traits@D@std@@@std@@QEAA@PEAV?$basic_streambuf@DU?$char_traits@D@std@@@1@_N@Z 0000000140026f40 f i shdrchk.obj
 0001:000260b0       ??0?$basic_streambuf@DU?$char_traits@D@std@@@std@@IEAA@XZ 00000001400270b0 f i shdrchk.obj
 0001:00026190       ?init@?$basic_ios@DU?$char_traits@D@std@@@std@@IEAAXPEAV?$basic_streambuf@DU?$char_traits@D@std@@@2@_N@Z 0000000140027190 f i shdrchk.obj
 0001:000262f0       ??$use_facet@V?$ctype@D@std@@@std@@YAAEBV?$ctype@D@0@AEBVlocale@0@@Z 00000001400272f0 f i shdrchk.obj
 0001:00026400       ??$use_facet@V?$codecvt@DDU_Mbstatet@@@std@@@std@@YAAEBV?$codecvt@DDU_Mbstatet@@@0@AEBVlocale@0@@Z 0000000140027400 f i shdrchk.obj
 0001:00026510       ??$_Reallocate_grow_by@V<lambda_319d5e083f45f90dcdce5dce53cbb275>@@D@?$basic_string@DU?$char_traits@D@std@@V?$allocator@D@2@@std@@AEAAAEAV01@_KV<lambda_319d5e083f45f90dcdce5dce53cbb275>@@D@Z 0000000140027510 f i shdrchk.obj
 0001:00026680       ??1?$unique_ptr@V_Facet_base@std@@U?$default_delete@V_Facet_base@std@@@2@@std@@QEAA@XZ 0000000140027680 f i shdrchk.obj
 0001:000266a0       ?_Getcat@?$codecvt@DDU_Mbstatet@@@std@@SA_KPEAPEBVfacet@locale@2@PEBV42@@Z 00000001400276a0 f i shdrchk.obj
 0001:00026818       ??_E?$basic_istream@DU?$char_traits@D@std@@@std@@$4PPPPPPPM@A@EAAPEAXI@Z 0000000140027818 f i shdrchk.obj
 0001:00026830       ??0textschema_t@CTextSchemas@@QEAA@XZ 0000000140027830 f i textschemas.obj
 0001:000268b0       ??1textschema_t@CTextSchemas@@QEAA@XZ 00000001400278b0 f i textschemas.obj
 0001:00026900       ?add@?$CLinkedList@Utextschema_t@CTextSchemas@@@@QEAAPEAUlink_t@1@Utextschema_t@CTextSchemas@@@Z 0000000140027900 f i textschemas.obj
 0001:00026a70       ?clear@?$CLinkedList@Utextschema_t@CTextSchemas@@@@QEAAXXZ 0000000140027a70 f i textschemas.obj
 0001:00026c60       ?resize@?$CArray@Utext_reschema_t@CTextSchemas@@@@QEAAXI@Z 0000000140027c60 f i textschemas.obj
 0001:00026d90       ??0usermsg_t@@QEAA@XZ      0000000140027d90 f i usermsg.obj
 0001:00026dd0       ?resize@?$CArray@Uusermsg_t@@@@QEAAXI@Z 0000000140027dd0 f i usermsg.obj
 0001:00026f70       ?resize@?$CArray@Uvbmhitboxhull_t@@@@QEAAXI@Z 0000000140027f70 f i vbmtrace.obj
 0001:00027340       ?resize@?$CArray@Usave_edict_info_t@@@@QEAAXI@Z 0000000140028340 f i saverestore.obj
 0001:00027610       ?resize@?$CArray@Usave_field_t@@@@QEAAXI@Z 0000000140028610 f i saverestore.obj
 0001:00027720       ?resize@?$CArray@Usave_block_t@@@@QEAAXI@Z 0000000140028720 f i saverestore.obj
 0001:00027840       ?resize@?$CArray@Usaved_string_t@CSaveRestore@@@@QEAAXI@Z 0000000140028840 f i saverestore.obj
 0001:00027960       ??1?$CLinkedList@Usave_decalinfo_t@@@@QEAA@XZ 0000000140028960 f i saverestore.obj
 0001:00027990       ?clear@?$CLinkedList@Usave_decalinfo_t@@@@QEAAXXZ 0000000140028990 f i saverestore.obj
 0001:00027b60       ??0bsp_texture_t@@QEAA@XZ  0000000140028b60 f i r_bsp.obj
 0001:00027ba0       ??_Gbsp_decal_t@@QEAAPEAXI@Z 0000000140028ba0 f i r_bsp.obj
 0001:00027c30       ?resize@?$CArray@Udrawbatch_t@@@@QEAAXI@Z 0000000140028c30 f i r_bsp.obj
 0001:00027d70       ?resize@?$CArray@Ubsp_surface_t@@@@QEAAXI@Z 0000000140028d70 f i r_bsp.obj
 0001:00028150       ??1?$CArray@Ubsp_texture_t@@@@QEAA@XZ 0000000140029150 f i r_bsp.obj
 0001:00028190       ?resize@?$CArray@Ubsp_texture_t@@@@QEAAXI@Z 0000000140029190 f i r_bsp.obj
 0001:00028390       ?resize@?$CArray@Ubsp_vertex_t@@@@QEAAXI@Z 0000000140029390 f i r_bsp.obj
 0001:000285f0       ??1bsp_texture_t@@QEAA@XZ  00000001400295f0 f i r_bsp.obj
 0001:00028630       ??4?$CArray@Udrawbatch_t@@@@QEAAXAEBV0@@Z 0000000140029630 f i r_bsp.obj
 0001:000286b0       sprintf_s                  00000001400296b0 f i sys_cmd.obj
 0001:00028710       ??_D?$basic_stringstream@DU?$char_traits@D@std@@V?$allocator@D@2@@std@@QEAAXXZ 0000000140029710 f i sys_cmd.obj
 0001:00028800       ?seekpos@?$basic_stringbuf@DU?$char_traits@D@std@@V?$allocator@D@2@@std@@MEAA?AV?$fpos@U_Mbstatet@@@2@V32@H@Z 0000000140029800 f i sys_cmd.obj
 0001:00028930       ?seekoff@?$basic_stringbuf@DU?$char_traits@D@std@@V?$allocator@D@2@@std@@MEAA?AV?$fpos@U_Mbstatet@@@2@_JHH@Z 0000000140029930 f i sys_cmd.obj
 0001:00028ac0       ?underflow@?$basic_stringbuf@DU?$char_traits@D@std@@V?$allocator@D@2@@std@@MEAAHXZ 0000000140029ac0 f i sys_cmd.obj
 0001:00028b30       ?pbackfail@?$basic_stringbuf@DU?$char_traits@D@std@@V?$allocator@D@2@@std@@MEAAHH@Z 0000000140029b30 f i sys_cmd.obj
 0001:00028b90       ?overflow@?$basic_stringbuf@DU?$char_traits@D@std@@V?$allocator@D@2@@std@@MEAAHH@Z 0000000140029b90 f i sys_cmd.obj
 0001:00028d70       ??1?$basic_stringbuf@DU?$char_traits@D@std@@V?$allocator@D@2@@std@@UEAA@XZ 0000000140029d70 f i sys_cmd.obj
 0001:00028ea0       ??1?$basic_iostream@DU?$char_traits@D@std@@@std@@UEAA@XZ 0000000140029ea0 f i sys_cmd.obj
 0001:00028f20       ??6?$basic_ostream@DU?$char_traits@D@std@@@std@@QEAAAEAV01@M@Z 0000000140029f20 f i sys_cmd.obj
 0001:00029230       ??1?$vector@V?$basic_string@DU?$char_traits@D@std@@V?$allocator@D@2@@std@@V?$allocator@V?$basic_string@DU?$char_traits@D@std@@V?$allocator@D@2@@std@@@2@@std@@QEAA@XZ 000000014002a230 f i sys_cmd.obj
 0001:000292c0       ??0?$basic_string@DU?$char_traits@D@std@@V?$allocator@D@2@@std@@QEAA@_KD@Z 000000014002a2c0 f i sys_cmd.obj
 0001:000293f0       ??_E?$basic_stringbuf@DU?$char_traits@D@std@@V?$allocator@D@2@@std@@UEAAPEAXI@Z 000000014002a3f0 f i * CIL library *:* CIL module *
 0001:000293f0       ??_G?$basic_stringbuf@DU?$char_traits@D@std@@V?$allocator@D@2@@std@@UEAAPEAXI@Z 000000014002a3f0 f i sys_cmd.obj
 0001:00029430       ??_E?$basic_stringstream@DU?$char_traits@D@std@@V?$allocator@D@2@@std@@UEAAPEAXI@Z 000000014002a430 f i * CIL library *:* CIL module *
 0001:00029430       ??_G?$basic_stringstream@DU?$char_traits@D@std@@V?$allocator@D@2@@std@@UEAAPEAXI@Z 000000014002a430 f i sys_cmd.obj
 0001:00029470       ??_E?$basic_iostream@DU?$char_traits@D@std@@@std@@UEAAPEAXI@Z 000000014002a470 f i * CIL library *:* CIL module *
 0001:00029470       ??_G?$basic_iostream@DU?$char_traits@D@std@@@std@@UEAAPEAXI@Z 000000014002a470 f i sys_cmd.obj
 0001:00029520       ??_E?$basic_ostream@DU?$char_traits@D@std@@@std@@UEAAPEAXI@Z 000000014002a520 f i * CIL library *:* CIL module *
 0001:00029520       ??_G?$basic_ostream@DU?$char_traits@D@std@@@std@@UEAAPEAXI@Z 000000014002a520 f i sys_cmd.obj
 0001:00029590       ?do_put@?$num_put@DV?$ostreambuf_iterator@DU?$char_traits@D@std@@@std@@@std@@MEBA?AV?$ostreambuf_iterator@DU?$char_traits@D@std@@@2@V32@AEAVios_base@2@DPEBX@Z 000000014002a590 f i sys_cmd.obj
 0001:00029640       ?do_put@?$num_put@DV?$ostreambuf_iterator@DU?$char_traits@D@std@@@std@@@std@@MEBA?AV?$ostreambuf_iterator@DU?$char_traits@D@std@@@2@V32@AEAVios_base@2@DO@Z 000000014002a640 f i sys_cmd.obj
 0001:00029920       ?do_put@?$num_put@DV?$ostreambuf_iterator@DU?$char_traits@D@std@@@std@@@std@@MEBA?AV?$ostreambuf_iterator@DU?$char_traits@D@std@@@2@V32@AEAVios_base@2@DN@Z 000000014002a920 f i sys_cmd.obj
 0001:00029c00       ?do_put@?$num_put@DV?$ostreambuf_iterator@DU?$char_traits@D@std@@@std@@@std@@MEBA?AV?$ostreambuf_iterator@DU?$char_traits@D@std@@@2@V32@AEAVios_base@2@D_K@Z 000000014002ac00 f i sys_cmd.obj
 0001:00029d20       ?do_put@?$num_put@DV?$ostreambuf_iterator@DU?$char_traits@D@std@@@std@@@std@@MEBA?AV?$ostreambuf_iterator@DU?$char_traits@D@std@@@2@V32@AEAVios_base@2@D_J@Z 000000014002ad20 f i sys_cmd.obj
 0001:00029e40       ?do_put@?$num_put@DV?$ostreambuf_iterator@DU?$char_traits@D@std@@@std@@@std@@MEBA?AV?$ostreambuf_iterator@DU?$char_traits@D@std@@@2@V32@AEAVios_base@2@DK@Z 000000014002ae40 f i sys_cmd.obj
 0001:00029f50       ?do_put@?$num_put@DV?$ostreambuf_iterator@DU?$char_traits@D@std@@@std@@@std@@MEBA?AV?$ostreambuf_iterator@DU?$char_traits@D@std@@@2@V32@AEAVios_base@2@DJ@Z 000000014002af50 f i sys_cmd.obj
 0001:0002a060       ?do_put@?$num_put@DV?$ostreambuf_iterator@DU?$char_traits@D@std@@@std@@@std@@MEBA?AV?$ostreambuf_iterator@DU?$char_traits@D@std@@@2@V32@AEAVios_base@2@D_N@Z 000000014002b060 f i sys_cmd.obj
 0001:0002a330       ?do_truename@?$numpunct@D@std@@MEBA?AV?$basic_string@DU?$char_traits@D@std@@V?$allocator@D@2@@2@XZ 000000014002b330 f i sys_cmd.obj
 0001:0002a370       ?do_falsename@?$numpunct@D@std@@MEBA?AV?$basic_string@DU?$char_traits@D@std@@V?$allocator@D@2@@2@XZ 000000014002b370 f i sys_cmd.obj
 0001:0002a3b0       ?do_grouping@?$numpunct@D@std@@MEBA?AV?$basic_string@DU?$char_traits@D@std@@V?$allocator@D@2@@2@XZ 000000014002b3b0 f i sys_cmd.obj
 0001:0002a3f0       ?do_thousands_sep@?$numpunct@D@std@@MEBADXZ 000000014002b3f0 f i sys_cmd.obj
 0001:0002a400       ?do_decimal_point@?$numpunct@D@std@@MEBADXZ 000000014002b400 f i sys_cmd.obj
 0001:0002a410       ?_Rep@?$num_put@DV?$ostreambuf_iterator@DU?$char_traits@D@std@@@std@@@std@@AEBA?AV?$ostreambuf_iterator@DU?$char_traits@D@std@@@2@V32@D_K@Z 000000014002b410 f i sys_cmd.obj
 0001:0002a4c0       ?_Iput@?$num_put@DV?$ostreambuf_iterator@DU?$char_traits@D@std@@@std@@@std@@AEBA?AV?$ostreambuf_iterator@DU?$char_traits@D@std@@@2@V32@AEAVios_base@2@DPEAD_K@Z 000000014002b4c0 f i sys_cmd.obj
 0001:0002ab20       ?deallocate@?$allocator@V?$basic_string@DU?$char_traits@D@std@@V?$allocator@D@2@@std@@@std@@QEAAXQEAV?$basic_string@DU?$char_traits@D@std@@V?$allocator@D@2@@2@_K@Z 000000014002bb20 f i sys_cmd.obj
 0001:0002ab70       ??_E?$numpunct@D@std@@MEAAPEAXI@Z 000000014002bb70 f i * CIL library *:* CIL module *
 0001:0002ab70       ??_G?$numpunct@D@std@@MEAAPEAXI@Z 000000014002bb70 f i sys_cmd.obj
 0001:0002abe0       ??$_Fput_v3@$0A@@?$num_put@DV?$ostreambuf_iterator@DU?$char_traits@D@std@@@std@@@std@@AEBA?AV?$ostreambuf_iterator@DU?$char_traits@D@std@@@1@V21@AEAVios_base@1@DPEBD_K_N@Z 000000014002bbe0 f i sys_cmd.obj
 0001:0002b2c0       ??$use_facet@V?$numpunct@D@std@@@std@@YAAEBV?$numpunct@D@0@AEBVlocale@0@@Z 000000014002c2c0 f i sys_cmd.obj
 0001:0002b3d0       ??$_Destroy_range@V?$allocator@V?$basic_string@DU?$char_traits@D@std@@V?$allocator@D@2@@std@@@std@@@std@@YAXPEAV?$basic_string@DU?$char_traits@D@std@@V?$allocator@D@2@@0@QEAV10@AEAV?$allocator@V?$basic_string@DU?$char_traits@D@std@@V?$allocator@D@2@@std@@@0@@Z 000000014002c3d0 f i sys_cmd.obj
 0001:0002b410       ??$_Reallocate_grow_by@V<lambda_b986da8d428e4af07c64af60eec09b61>@@_K_KD@?$basic_string@DU?$char_traits@D@std@@V?$allocator@D@2@@std@@AEAAAEAV01@_KV<lambda_b986da8d428e4af07c64af60eec09b61>@@_K2D@Z 000000014002c410 f i sys_cmd.obj
 0001:0002b5d0       ??$_Reallocate_grow_by@V<lambda_e1befb086ad3257e3f042a63030725f7>@@_KD@?$basic_string@DU?$char_traits@D@std@@V?$allocator@D@2@@std@@AEAAAEAV01@_KV<lambda_e1befb086ad3257e3f042a63030725f7>@@_KD@Z 000000014002c5d0 f i sys_cmd.obj
 0001:0002b760       ?_Getcat@?$numpunct@D@std@@SA_KPEAPEBVfacet@locale@2@PEBV42@@Z 000000014002c760 f i sys_cmd.obj
 0001:0002b9d0       ?_Getcat@?$num_put@DV?$ostreambuf_iterator@DU?$char_traits@D@std@@@std@@@std@@SA_KPEAPEBVfacet@locale@2@PEBV42@@Z 000000014002c9d0 f i sys_cmd.obj
 0001:0002bb50       ??1?$_Tidy_guard@V?$numpunct@D@std@@@std@@QEAA@XZ 000000014002cb50 f i sys_cmd.obj
 0001:0002bb90       ??$_Emplace_reallocate@AEBV?$basic_string@DU?$char_traits@D@std@@V?$allocator@D@2@@std@@@?$vector@V?$basic_string@DU?$char_traits@D@std@@V?$allocator@D@2@@std@@V?$allocator@V?$basic_string@DU?$char_traits@D@std@@V?$allocator@D@2@@std@@@2@@std@@AEAAPEAV?$basic_string@DU?$char_traits@D@std@@V?$allocator@D@2@@1@QEAV21@AEBV21@@Z 000000014002cb90 f i sys_cmd.obj
 0001:0002bd70       ??$_Maklocstr@D@std@@YAPEADPEBDPEADAEBU_Cvtvec@@@Z 000000014002cd70 f i sys_cmd.obj
 0001:0002bdf0       ?_Xlength@?$vector@V?$basic_string@DU?$char_traits@D@std@@V?$allocator@D@2@@std@@V?$allocator@V?$basic_string@DU?$char_traits@D@std@@V?$allocator@D@2@@std@@@2@@std@@CAXXZ 000000014002cdf0 f i sys_cmd.obj
 0001:0002be10       ??$_Uninitialized_move@PEAV?$basic_string@DU?$char_traits@D@std@@V?$allocator@D@2@@std@@V?$allocator@V?$basic_string@DU?$char_traits@D@std@@V?$allocator@D@2@@std@@@2@@std@@YAPEAV?$basic_string@DU?$char_traits@D@std@@V?$allocator@D@2@@0@QEAV10@0PEAV10@AEAV?$allocator@V?$basic_string@DU?$char_traits@D@std@@V?$allocator@D@2@@std@@@0@@Z 000000014002ce10 f i sys_cmd.obj
 0001:0002be74       ??_E?$basic_ostream@DU?$char_traits@D@std@@@std@@$4PPPPPPPM@A@EAAPEAXI@Z 000000014002ce74 f i sys_cmd.obj
 0001:0002be80       ??_E?$basic_stringstream@DU?$char_traits@D@std@@V?$allocator@D@2@@std@@$4PPPPPPPM@A@EAAPEAXI@Z 000000014002ce80 f i sys_cmd.obj
 0001:0002be8c       ??_E?$basic_iostream@DU?$char_traits@D@std@@@std@@$4PPPPPPPM@A@EAAPEAXI@Z 000000014002ce8c f i sys_cmd.obj
 0001:0002bea0       ??0cmd_definition_t@CCommandManager@@QEAA@XZ 000000014002cea0 f i commands.obj
 0001:0002bf00       ??1?$CArray@Ucmd_definition_t@CCommandManager@@@@QEAA@XZ 000000014002cf00 f i commands.obj
 0001:0002bf00       ??1?$CArray@Uglsl_determinator_t@CGLSLShader@@@@QEAA@XZ 000000014002cf00 f i r_glsl.obj
 0001:0002bf50       ??_Ecmd_definition_t@CCommandManager@@QEAAPEAXI@Z 000000014002cf50 f i commands.obj
 0001:0002bf50       ??_Eglsl_determinator_t@CGLSLShader@@QEAAPEAXI@Z 000000014002cf50 f i r_glsl.obj
 0001:0002bf90       ?resize@?$CArray@Ucmd_definition_t@CCommandManager@@@@QEAAXI@Z 000000014002cf90 f i commands.obj
 0001:0002c150       ??0conf_field_t@@QEAA@XZ   000000014002d150 f i config.obj
 0001:0002c1b0       ??1conf_field_t@@QEAA@XZ   000000014002d1b0 f i config.obj
 0001:0002c1e0       ?erase@?$CArray@Uconf_field_t@@@@QEAAXI@Z 000000014002d1e0 f i config.obj
 0001:0002c380       ??_Econf_field_t@@QEAAPEAXI@Z 000000014002d380 f i config.obj
 0001:0002c3c0       ?resize@?$CArray@Uconf_field_t@@@@QEAAXI@Z 000000014002d3c0 f i config.obj
 0001:0002c580       ??0keyinfo_t@CInput@@QEAA@XZ 000000014002d580 f i input.obj
 0001:0002c5e0       ??A?$CArray@Ukeyinfo_t@CInput@@@@QEBAAEAUkeyinfo_t@CInput@@I@Z 000000014002d5e0 f i input.obj
 0001:0002c620       ??1flexcontroller_t@@QEAA@XZ 000000014002d620 f i flexmanager.obj
 0001:0002c620       ??1keyinfo_t@CInput@@QEAA@XZ 000000014002d620 f i input.obj
 0001:0002c650       fprintf                    000000014002d650 f i r_main.obj
 0001:0002c6a0       printf                     000000014002d6a0 f i r_main.obj
 0001:0002c700       ??0view_info_t@@QEAA@XZ    000000014002d700 f i r_main.obj
 0001:0002c8f0       ??0renderer_state_t@@QEAA@XZ 000000014002d8f0 f i r_main.obj
 0001:0002cc20       ??1view_info_t@@QEAA@XZ    000000014002dc20 f i r_main.obj
 0001:0002cc50       ??1render_objects_t@@QEAA@XZ 000000014002dc50 f i r_main.obj
 0001:0002ccd0       ?remove@?$CLinkedList@Uactive_load_shader_t@@@@QEAAXPEAUlink_t@1@@Z 000000014002dcd0 f i r_main.obj
 0001:0002ce30       ??0font_set_t@@QEAA@XZ     000000014002de30 f i r_text.obj
 0001:0002cef0       ??_Gfontsetglinfo_t@@QEAAPEAXI@Z 000000014002def0 f i r_text.obj
 0001:0002cf60       ??1line_t@@QEAA@XZ         000000014002df60 f i r_text.obj
 0001:0002cf90       ?clear@?$CLinkedList@Uline_chunk_t@@@@QEAAXXZ 000000014002df90 f i r_text.obj
 0001:0002d150       ?add@?$CLinkedList@Uline_t@@@@QEAAPEAUlink_t@1@Uline_t@@@Z 000000014002e150 f i r_text.obj
 0001:0002d290       ?clear@?$CLinkedList@Uline_t@@@@QEAAXXZ 000000014002e290 f i r_text.obj
 0001:0002d460       ??0dll_export_t@@QEAA@XZ   000000014002e460 f i system.obj
 0001:0002d4a0       ??0engine_state_t@@QEAA@XZ 000000014002e4a0 f i system.obj
 0001:0002d670       ??1?$basic_string@_WU?$char_traits@_W@std@@V?$allocator@_W@2@@std@@QEAA@XZ 000000014002e670 f i system.obj
 0001:0002d680       ??0?$basic_string@_WU?$char_traits@_W@std@@V?$allocator@_W@2@@std@@QEAA@QEB_W@Z 000000014002e680 f i system.obj
 0001:0002d7d0       ?_Tidy_deallocate@?$basic_string@_WU?$char_traits@_W@std@@V?$allocator@_W@2@@std@@AEAAXXZ 000000014002e7d0 f i system.obj
 0001:0002d840       ?resize@?$CArray@Udll_export_t@@@@QEAAXI@Z 000000014002e840 f i system.obj
 0001:0002d9e0       ??$_Reallocate_grow_by@V<lambda_1dfe18491bcca09701d8ccb01d0b0af4>@@PEB_W_K@?$basic_string@_WU?$char_traits@_W@std@@V?$allocator@_W@2@@std@@AEAAAEAV01@_KV<lambda_1dfe18491bcca09701d8ccb01d0b0af4>@@PEB_W_K@Z 000000014002e9e0 f i system.obj
 0001:0002dbb0       ??0ui_schemeobject_t@@QEAA@XZ 000000014002ebb0 f i uimanager.obj
 0001:0002dc00       ??0ui_objectinfo_t@@QEAA@XZ 000000014002ec00 f i uimanager.obj
 0001:0002dcb0       ??_Gui_schemeinfo_t@@QEAAPEAXI@Z 000000014002ecb0 f i uimanager.obj
 0001:0002dd20       ??_Gui_windowdescription_t@@QEAAPEAXI@Z 000000014002ed20 f i uimanager.obj
 0001:0002dd90       ??1ui_objectinfo_t@@QEAA@XZ 000000014002ed90 f i uimanager.obj
 0001:0002dde0       ??_Eui_objectinfo_t@@QEAAPEAXI@Z 000000014002ede0 f i uimanager.obj
 0001:0002de20       ??4ui_objectinfo_t@@QEAAAEAU0@AEBU0@@Z 000000014002ee20 f i uimanager.obj
 0001:0002df00       ?resize@?$CArray@Uui_schemeobject_t@@@@QEAAXI@Z 000000014002ef00 f i uimanager.obj
 0001:0002e0e0       ?resize@?$CArray@Uui_objectinfo_t@@@@QEAAXI@Z 000000014002f0e0 f i uimanager.obj
 0001:0002e330       ?resize@?$CArray@Uresolution_t@CWindow@@@@QEAAXI@Z 000000014002f330 f i window.obj
 0001:0002e440       ?KeyEvent@CUICallbackEvent@@UEAA_NHF_N@Z 000000014002f440 f i uielements.obj
 0001:0002e440       ?MouseButtonEvent@CUICallbackEvent@@UEAA_NHHH_N@Z 000000014002f440 f i uielements.obj
 0001:0002e440       ?considerElementOnResize@CUIScrollableSurface@@UEAA_NPEAVCUIObject@@@Z 000000014002f440 f i uielements.obj
 0001:0002e440       ?getFocusState@CUIObject@@UEBA_NXZ 000000014002f440 f i uielements.obj
 0001:0002e440       ?isClickedOn@CUIObject@@UEAA_NXZ 000000014002f440 f i uielements.obj
 0001:0002e440       ?isDisabled@CUIObject@@UEAA_NXZ 000000014002f440 f i uielements.obj
 0001:0002e440       ?isInFocus@CUIObject@@UEAA_NXZ 000000014002f440 f i uielements.obj
 0001:0002e440       ?isInteractive@CUIListHeader@@UEAA_NXZ 000000014002f440 f i uielements.obj
 0001:0002e440       ?isInteractive@CUIObject@@UEAA_NXZ 000000014002f440 f i uielements.obj
 0001:0002e440       ?isResizable@CUIButton@@UEAA_NXZ 000000014002f440 f i uielements.obj
 0001:0002e440       ?isResizable@CUIDownloadWindow@@UEAA_NXZ 000000014002f440 f i uidownloadwindow.obj
 0001:0002e440       ?isResizable@CUIDragButton@@UEAA_NXZ 000000014002f440 f i uielements.obj
 0001:0002e440       ?isResizable@CUIDropDownList@@UEAA_NXZ 000000014002f440 f i uielements.obj
 0001:0002e440       ?isResizable@CUIExitWindow@@UEAA_NXZ 000000014002f440 f i uiexitwindow.obj
 0001:0002e440       ?isResizable@CUINewGameWindow@@UEAA_NXZ 000000014002f440 f i uinewgamewindow.obj
 0001:0002e440       ?isResizable@CUIObject@@UEAA_NXZ 000000014002f440 f i uielements.obj
 0001:0002e440       ?isResizable@CUISaveLoadWindow@@UEAA_NXZ 000000014002f440 f i uisaveloadwindow.obj
 0001:0002e440       ?isResizable@CUISettingsWindow@@UEAA_NXZ 000000014002f440 f i uisettingswindow.obj
 0001:0002e440       ?isResizable@CUITabBody@@UEAA_NXZ 000000014002f440 f i uielements.obj
 0001:0002e440       ?isResizable@CUITabList@@UEAA_NXZ 000000014002f440 f i uielements.obj
 0001:0002e440       ?isWindow@CUIObject@@UEAA_NXZ 000000014002f440 f i uielements.obj
 0001:0002e440       ?keyEvent@CUIObject@@UEAA_NHF_N@Z 000000014002f440 f i uielements.obj
 0001:0002e450       ??_ECUICallbackEvent@@UEAAPEAXI@Z 000000014002f450 f i * CIL library *:* CIL module *
 0001:0002e450       ??_GCUICallbackEvent@@UEAAPEAXI@Z 000000014002f450 f i uielements.obj
 0001:0002e480       ?setWidth@CUIObject@@UEAAXH@Z 000000014002f480 f i uielements.obj
 0001:0002e490       ?getWidth@CUIObject@@UEAAIXZ 000000014002f490 f i uielements.obj
 0001:0002e4a0       ?setHeight@CUIObject@@UEAAXH@Z 000000014002f4a0 f i uielements.obj
 0001:0002e4b0       ?getHeight@CUIObject@@UEAAIXZ 000000014002f4b0 f i uielements.obj
 0001:0002e4c0       ?setVisible@CUIObject@@UEAAX_N@Z 000000014002f4c0 f i uielements.obj
 0001:0002e4d0       ?isVisible@CUIObject@@UEAA_NXZ 000000014002f4d0 f i uielements.obj
 0001:0002e4e0       ?move@CUIObject@@UEAAXHH@Z 000000014002f4e0 f i uielements.obj
 0001:0002e500       ?getFlags@CUIObject@@UEBAHXZ 000000014002f500 f i uielements.obj
 0001:0002e510       ?setFlag@CUIObject@@UEAAXH@Z 000000014002f510 f i uielements.obj
 0001:0002e520       ?removeFlag@CUIObject@@UEAAXH@Z 000000014002f520 f i uielements.obj
 0001:0002e530       ?setDefaultTexture@CUITexturedObject@@UEAAXPEBUen_texture_t@@@Z 000000014002f530 f i uielements.obj
 0001:0002e540       ?setFocusTexture@CUITexturedObject@@UEAAXPEBUen_texture_t@@@Z 000000014002f540 f i uielements.obj
 0001:0002e550       ?setClickedTexture@CUITexturedObject@@UEAAXPEBUen_texture_t@@@Z 000000014002f550 f i uielements.obj
 0001:0002e560       ?setDisabledTexture@CUITexturedObject@@UEAAXPEBUen_texture_t@@@Z 000000014002f560 f i uielements.obj
 0001:0002e570       ?setWindowInputFocusObject@CUIWindow@@UEAAXPEAVCUIObject@@@Z 000000014002f570 f i uielements.obj
 0001:0002e580       ?getInputFocusObject@CUIWindow@@UEAAPEAVCUIObject@@XZ 000000014002f580 f i uielements.obj
 0001:0002e590       ?setFocusIndex@CUIWindow@@UEAAXI@Z 000000014002f590 f i uielements.obj
 0001:0002e5a0       ?getFocusIndex@CUIWindow@@UEAAIXZ 000000014002f5a0 f i uielements.obj
 0001:0002e5b0       ?setFocusState@CUIWindow@@UEAAX_N@Z 000000014002f5b0 f i uielements.obj
 0001:0002e5c0       ?getFocusState@CUIWindow@@UEBA_NXZ 000000014002f5c0 f i uielements.obj
 0001:0002e5c0       ?isInFocus@CUIWindow@@UEAA_NXZ 000000014002f5c0 f i uielements.obj
 0001:0002e5d0       ?setWindowFlags@CUIWindow@@UEAAXH@Z 000000014002f5d0 f i uielements.obj
 0001:0002e5e0       ?getWindowFlags@CUIWindow@@UEAAHXZ 000000014002f5e0 f i uielements.obj
 0001:0002e5f0       ??_ECUIAnisotropySelectEvent@@UEAAPEAXI@Z 000000014002f5f0 f i * CIL library *:* CIL module *
 0001:0002e5f0       ??_ECUIAntiAliasSelectEvent@@UEAAPEAXI@Z 000000014002f5f0 f i * CIL library *:* CIL module *
 0001:0002e5f0       ??_ECUIBindsBindBtnEvent@@UEAAPEAXI@Z 000000014002f5f0 f i * CIL library *:* CIL module *
 0001:0002e5f0       ??_ECUIBindsClearBtnEvent@@UEAAPEAXI@Z 000000014002f5f0 f i * CIL library *:* CIL module *
 0001:0002e5f0       ??_ECUIBindsRestoreButtonEvent@@UEAAPEAXI@Z 000000014002f5f0 f i * CIL library *:* CIL module *
 0001:0002e5f0       ??_ECUIConsoleExecuteCallback@@UEAAPEAXI@Z 000000014002f5f0 f i * CIL library *:* CIL module *
 0001:0002e5f0       ??_ECUIDeviceSelectEvent@@UEAAPEAXI@Z 000000014002f5f0 f i * CIL library *:* CIL module *
 0001:0002e5f0       ??_ECUIDownloadWindowCancelEvent@@UEAAPEAXI@Z 000000014002f5f0 f i * CIL library *:* CIL module *
 0001:0002e5f0       ??_ECUIDropDownButtonEvent@CUIDropDownList@@UEAAPEAXI@Z 000000014002f5f0 f i * CIL library *:* CIL module *
 0001:0002e5f0       ??_ECUIResolutionSelectEvent@@UEAAPEAXI@Z 000000014002f5f0 f i * CIL library *:* CIL module *
 0001:0002e5f0       ??_ECUIScrollerDragBtnAction@CUIScroller@@UEAAPEAXI@Z 000000014002f5f0 f i * CIL library *:* CIL module *
 0001:0002e5f0       ??_ECUISettingsApplyEvent@@UEAAPEAXI@Z 000000014002f5f0 f i * CIL library *:* CIL module *
 0001:0002e5f0       ??_ECUISettingsCancelEvent@@UEAAPEAXI@Z 000000014002f5f0 f i * CIL library *:* CIL module *
 0001:0002e5f0       ??_ECUISliderDragBtnAction@CUISlider@@UEAAPEAXI@Z 000000014002f5f0 f i * CIL library *:* CIL module *
 0001:0002e5f0       ??_ECUITabSelectEvent@@UEAAPEAXI@Z 000000014002f5f0 f i * CIL library *:* CIL module *
 0001:0002e5f0       ??_ECUIVerticalSyncSelectEvent@@UEAAPEAXI@Z 000000014002f5f0 f i * CIL library *:* CIL module *
 0001:0002e5f0       ??_ECUIWindowCloseAction@CUIWindow@@UEAAPEAXI@Z 000000014002f5f0 f i * CIL library *:* CIL module *
 0001:0002e5f0       ??_ECUIWindowModeSelectEvent@@UEAAPEAXI@Z 000000014002f5f0 f i * CIL library *:* CIL module *
 0001:0002e5f0       ??_GCUIAnisotropySelectEvent@@UEAAPEAXI@Z 000000014002f5f0 f i uisettingswindow.obj
 0001:0002e5f0       ??_GCUIAntiAliasSelectEvent@@UEAAPEAXI@Z 000000014002f5f0 f i uisettingswindow.obj
 0001:0002e5f0       ??_GCUIBindsBindBtnEvent@@UEAAPEAXI@Z 000000014002f5f0 f i uisettingswindow.obj
 0001:0002e5f0       ??_GCUIBindsClearBtnEvent@@UEAAPEAXI@Z 000000014002f5f0 f i uisettingswindow.obj
 0001:0002e5f0       ??_GCUIBindsRestoreButtonEvent@@UEAAPEAXI@Z 000000014002f5f0 f i uisettingswindow.obj
 0001:0002e5f0       ??_GCUIConsoleExecuteCallback@@UEAAPEAXI@Z 000000014002f5f0 f i uiconsolewindow.obj
 0001:0002e5f0       ??_GCUIDeviceSelectEvent@@UEAAPEAXI@Z 000000014002f5f0 f i uisettingswindow.obj
 0001:0002e5f0       ??_GCUIDownloadWindowCancelEvent@@UEAAPEAXI@Z 000000014002f5f0 f i uidownloadwindow.obj
 0001:0002e5f0       ??_GCUIDropDownButtonEvent@CUIDropDownList@@UEAAPEAXI@Z 000000014002f5f0 f i uielements.obj
 0001:0002e5f0       ??_GCUIResolutionSelectEvent@@UEAAPEAXI@Z 000000014002f5f0 f i uisettingswindow.obj
 0001:0002e5f0       ??_GCUIScrollerDragBtnAction@CUIScroller@@UEAAPEAXI@Z 000000014002f5f0 f i uielements.obj
 0001:0002e5f0       ??_GCUISettingsApplyEvent@@UEAAPEAXI@Z 000000014002f5f0 f i uisettingswindow.obj
 0001:0002e5f0       ??_GCUISettingsCancelEvent@@UEAAPEAXI@Z 000000014002f5f0 f i uisettingswindow.obj
 0001:0002e5f0       ??_GCUISliderDragBtnAction@CUISlider@@UEAAPEAXI@Z 000000014002f5f0 f i uielements.obj
 0001:0002e5f0       ??_GCUITabSelectEvent@@UEAAPEAXI@Z 000000014002f5f0 f i uisettingswindow.obj
 0001:0002e5f0       ??_GCUIVerticalSyncSelectEvent@@UEAAPEAXI@Z 000000014002f5f0 f i uisettingswindow.obj
 0001:0002e5f0       ??_GCUIWindowCloseAction@CUIWindow@@UEAAPEAXI@Z 000000014002f5f0 f i uielements.obj
 0001:0002e5f0       ??_GCUIWindowModeSelectEvent@@UEAAPEAXI@Z 000000014002f5f0 f i uisettingswindow.obj
 0001:0002e620       ?isClickedOn@CUIDragger@@UEAA_NXZ 000000014002f620 f i uielements.obj
 0001:0002e630       ?releaseClickStates@CUIDragger@@UEAAXXZ 000000014002f630 f i uielements.obj
 0001:0002e640       ?isClickedOn@CUIButton@@UEAA_NXZ 000000014002f640 f i uielements.obj
 0001:0002e650       ?releaseClickStates@CUIButton@@UEAAXXZ 000000014002f650 f i uielements.obj
 0001:0002e660       ?setDisabled@CUIButton@@UEAAX_N@Z 000000014002f660 f i uielements.obj
 0001:0002e670       ?isDisabled@CUIButton@@UEAA_NXZ 000000014002f670 f i uielements.obj
 0001:0002e680       ?setTextInset@CUITextTab@@UEAAXI@Z 000000014002f680 f i uielements.obj
 0001:0002e690       ?setTextInset@CUITextInputTab@@UEAAXI@Z 000000014002f690 f i uielements.obj
 0001:0002e6a0       ?getText@CUITextInputTab@@UEAAPEBDXZ 000000014002f6a0 f i uielements.obj
 0001:0002e6b0       ?getFullRange@CUIScroller@@UEAAIXZ 000000014002f6b0 f i uielements.obj
 0001:0002e6c0       ?getAlignment@CUIScroller@@UEAA?AW4ui_scroller_align_t@CUIObject@@XZ 000000014002f6c0 f i uielements.obj
 0001:0002e6c0       ?getNbRows@CUIList@@UEAAHXZ 000000014002f6c0 f i uielements.obj
 0001:0002e6d0       ??_ECUIBindsRowEvent@@UEAAPEAXI@Z 000000014002f6d0 f i * CIL library *:* CIL module *
 0001:0002e6d0       ??_ECUIConsoleKeyEventCallback@@UEAAPEAXI@Z 000000014002f6d0 f i * CIL library *:* CIL module *
 0001:0002e6d0       ??_ECUIExitWindowEvent@@UEAAPEAXI@Z 000000014002f6d0 f i * CIL library *:* CIL module *
 0001:0002e6d0       ??_ECUINewGameWindowButtonEvent@@UEAAPEAXI@Z 000000014002f6d0 f i * CIL library *:* CIL module *
 0001:0002e6d0       ??_ECUISaveLoadWindowButtonEvent@@UEAAPEAXI@Z 000000014002f6d0 f i * CIL library *:* CIL module *
 0001:0002e6d0       ??_ECUIScrollSurfaceDropListSelectEvent@@UEAAPEAXI@Z 000000014002f6d0 f i * CIL library *:* CIL module *
 0001:0002e6d0       ??_ECUIScrollSurfaceDropListToggleEvent@@UEAAPEAXI@Z 000000014002f6d0 f i * CIL library *:* CIL module *
 0001:0002e6d0       ??_ECUIScrollerArrowBtnAction@CUIScroller@@UEAAPEAXI@Z 000000014002f6d0 f i * CIL library *:* CIL module *
 0001:0002e6d0       ??_ECUITabSelectCallback@CUITabList@@UEAAPEAXI@Z 000000014002f6d0 f i * CIL library *:* CIL module *
 0001:0002e6d0       ??_GCUIBindsRowEvent@@UEAAPEAXI@Z 000000014002f6d0 f i uisettingswindow.obj
 0001:0002e6d0       ??_GCUIConsoleKeyEventCallback@@UEAAPEAXI@Z 000000014002f6d0 f i uiconsolewindow.obj
 0001:0002e6d0       ??_GCUIExitWindowEvent@@UEAAPEAXI@Z 000000014002f6d0 f i uiexitwindow.obj
 0001:0002e6d0       ??_GCUINewGameWindowButtonEvent@@UEAAPEAXI@Z 000000014002f6d0 f i uinewgamewindow.obj
 0001:0002e6d0       ??_GCUISaveLoadWindowButtonEvent@@UEAAPEAXI@Z 000000014002f6d0 f i uisaveloadwindow.obj
 0001:0002e6d0       ??_GCUIScrollSurfaceDropListSelectEvent@@UEAAPEAXI@Z 000000014002f6d0 f i uisettingswindow.obj
 0001:0002e6d0       ??_GCUIScrollSurfaceDropListToggleEvent@@UEAAPEAXI@Z 000000014002f6d0 f i uisettingswindow.obj
 0001:0002e6d0       ??_GCUIScrollerArrowBtnAction@CUIScroller@@UEAAPEAXI@Z 000000014002f6d0 f i uielements.obj
 0001:0002e6d0       ??_GCUITabSelectCallback@CUITabList@@UEAAPEAXI@Z 000000014002f6d0 f i uielements.obj
 0001:0002e700       ?setTabBody@CUITabLabel@@UEAAXPEAVCUITabBody@@@Z 000000014002f700 f i uielements.obj
 0001:0002e710       ?PerformAction@CUITabSelectCallback@CUITabList@@UEAAXM@Z 000000014002f710 f i uielements.obj
 0001:0002e730       ?getNbTabs@CUITabList@@UEAAIXZ 000000014002f730 f i uielements.obj
 0001:0002e740       ??0decalgroup_t@@QEAA@XZ   000000014002f740 f i decallist.obj
 0001:0002e740       ??0hdr_column_t@CUIListHeader@@QEAA@XZ 000000014002f740 f i uielements.obj
 0001:0002e780       ?setHighlight@CUIListRow@@UEAAX_N@Z 000000014002f780 f i uielements.obj
 0001:0002e790       ?setHighlightedColumn@CUIListRow@@UEAAXH@Z 000000014002f790 f i uielements.obj
 0001:0002e7a0       ?getIndex@CUIListRow@@UEAAIXZ 000000014002f7a0 f i uielements.obj
 0001:0002e7b0       ?clearList@CUIDropDownList@@UEAAXXZ 000000014002f7b0 f i uielements.obj
 0001:0002e7d0       ?getListSize@CUIDropDownList@@UEAAIXZ 000000014002f7d0 f i uielements.obj
 0001:0002e7f0       ??_ECUIDropDownRowClickEvent@CUIDropDownList@@UEAAPEAXI@Z 000000014002f7f0 f i * CIL library *:* CIL module *
 0001:0002e7f0       ??_ECUISaveLoadWindowRowEvent@@UEAAPEAXI@Z 000000014002f7f0 f i * CIL library *:* CIL module *
 0001:0002e7f0       ??_GCUIDropDownRowClickEvent@CUIDropDownList@@UEAAPEAXI@Z 000000014002f7f0 f i uielements.obj
 0001:0002e7f0       ??_GCUISaveLoadWindowRowEvent@@UEAAPEAXI@Z 000000014002f7f0 f i uisaveloadwindow.obj
 0001:0002e820       ?getSliderButton@CUISlider@@UEAAPEAVCUIDragButton@@XZ 000000014002f820 f i uielements.obj
 0001:0002e830       ??_ECUIObject@@UEAAPEAXI@Z 000000014002f830 f i * CIL library *:* CIL module *
 0001:0002e830       ??_GCUIObject@@UEAAPEAXI@Z 000000014002f830 f i uielements.obj
 0001:0002e870       ??_ECUIInteractiveObject@@UEAAPEAXI@Z 000000014002f870 f i * CIL library *:* CIL module *
 0001:0002e870       ??_GCUIInteractiveObject@@UEAAPEAXI@Z 000000014002f870 f i uielements.obj
 0001:0002e8b0       ??_ECUITexturedObject@@UEAAPEAXI@Z 000000014002f8b0 f i * CIL library *:* CIL module *
 0001:0002e8b0       ??_GCUITexturedObject@@UEAAPEAXI@Z 000000014002f8b0 f i uielements.obj
 0001:0002e8f0       ??_ECUISurface@@UEAAPEAXI@Z 000000014002f8f0 f i * CIL library *:* CIL module *
 0001:0002e8f0       ??_GCUISurface@@UEAAPEAXI@Z 000000014002f8f0 f i uielements.obj
 0001:0002e930       ??_ECUITextTab@@UEAAPEAXI@Z 000000014002f930 f i * CIL library *:* CIL module *
 0001:0002e930       ??_ECUIWindow@@UEAAPEAXI@Z 000000014002f930 f i * CIL library *:* CIL module *
 0001:0002e930       ??_GCUITextTab@@UEAAPEAXI@Z 000000014002f930 f i uielements.obj
 0001:0002e930       ??_GCUIWindow@@UEAAPEAXI@Z 000000014002f930 f i uielements.obj
 0001:0002e970       ??_ECUIText@@UEAAPEAXI@Z   000000014002f970 f i * CIL library *:* CIL module *
 0001:0002e970       ??_GCUIText@@UEAAPEAXI@Z   000000014002f970 f i uielements.obj
 0001:0002e9d0       ??_ECUIDragger@@UEAAPEAXI@Z 000000014002f9d0 f i * CIL library *:* CIL module *
 0001:0002e9d0       ??_ECUIResizer@@UEAAPEAXI@Z 000000014002f9d0 f i * CIL library *:* CIL module *
 0001:0002e9d0       ??_GCUIDragger@@UEAAPEAXI@Z 000000014002f9d0 f i uielements.obj
 0001:0002e9d0       ??_GCUIResizer@@UEAAPEAXI@Z 000000014002f9d0 f i uielements.obj
 0001:0002ea10       ??_ECUIButton@@UEAAPEAXI@Z 000000014002fa10 f i * CIL library *:* CIL module *
 0001:0002ea10       ??_GCUIButton@@UEAAPEAXI@Z 000000014002fa10 f i uielements.obj
 0001:0002ea80       ??_ECUITextInputTab@@UEAAPEAXI@Z 000000014002fa80 f i * CIL library *:* CIL module *
 0001:0002ea80       ??_GCUITextInputTab@@UEAAPEAXI@Z 000000014002fa80 f i uielements.obj
 0001:0002eaf0       ??_ECUIDragButton@@UEAAPEAXI@Z 000000014002faf0 f i * CIL library *:* CIL module *
 0001:0002eaf0       ??_GCUIDragButton@@UEAAPEAXI@Z 000000014002faf0 f i uielements.obj
 0001:0002eb60       ??_ECUIScroller@@UEAAPEAXI@Z 000000014002fb60 f i * CIL library *:* CIL module *
 0001:0002eb60       ??_GCUIScroller@@UEAAPEAXI@Z 000000014002fb60 f i uielements.obj
 0001:0002eba0       ??_ECUITabLabel@@UEAAPEAXI@Z 000000014002fba0 f i * CIL library *:* CIL module *
 0001:0002eba0       ??_GCUITabLabel@@UEAAPEAXI@Z 000000014002fba0 f i uielements.obj
 0001:0002ec10       ??_ECUITabBody@@UEAAPEAXI@Z 000000014002fc10 f i * CIL library *:* CIL module *
 0001:0002ec10       ??_GCUITabBody@@UEAAPEAXI@Z 000000014002fc10 f i uielements.obj
 0001:0002ec50       ??_ECUITabList@@UEAAPEAXI@Z 000000014002fc50 f i * CIL library *:* CIL module *
 0001:0002ec50       ??_GCUITabList@@UEAAPEAXI@Z 000000014002fc50 f i uielements.obj
 0001:0002ecc0       ??_ECUIScrollableSurface@@UEAAPEAXI@Z 000000014002fcc0 f i * CIL library *:* CIL module *
 0001:0002ecc0       ??_GCUIScrollableSurface@@UEAAPEAXI@Z 000000014002fcc0 f i uielements.obj
 0001:0002ed00       ??_ECUIList@@UEAAPEAXI@Z   000000014002fd00 f i * CIL library *:* CIL module *
 0001:0002ed00       ??_GCUIList@@UEAAPEAXI@Z   000000014002fd00 f i uielements.obj
 0001:0002ed70       ??_ECUIListHeader@@UEAAPEAXI@Z 000000014002fd70 f i * CIL library *:* CIL module *
 0001:0002ed70       ??_GCUIListHeader@@UEAAPEAXI@Z 000000014002fd70 f i uielements.obj
 0001:0002ee00       ??_ECUIListRow@@UEAAPEAXI@Z 000000014002fe00 f i * CIL library *:* CIL module *
 0001:0002ee00       ??_ECUIListSeparator@@UEAAPEAXI@Z 000000014002fe00 f i * CIL library *:* CIL module *
 0001:0002ee00       ??_GCUIListRow@@UEAAPEAXI@Z 000000014002fe00 f i uielements.obj
 0001:0002ee00       ??_GCUIListSeparator@@UEAAPEAXI@Z 000000014002fe00 f i uielements.obj
 0001:0002ee80       ??_ECUIDropDownList@@UEAAPEAXI@Z 000000014002fe80 f i * CIL library *:* CIL module *
 0001:0002ee80       ??_GCUIDropDownList@@UEAAPEAXI@Z 000000014002fe80 f i uielements.obj
 0001:0002ef00       ??_ECUITickBox@@UEAAPEAXI@Z 000000014002ff00 f i * CIL library *:* CIL module *
 0001:0002ef00       ??_GCUITickBox@@UEAAPEAXI@Z 000000014002ff00 f i uielements.obj
 0001:0002ef70       ??_ECUISlider@@UEAAPEAXI@Z 000000014002ff70 f i * CIL library *:* CIL module *
 0001:0002ef70       ??_GCUISlider@@UEAAPEAXI@Z 000000014002ff70 f i uielements.obj
 0001:0002efd0       ??_ECUIProgressBar@@UEAAPEAXI@Z 000000014002ffd0 f i * CIL library *:* CIL module *
 0001:0002efd0       ??_GCUIProgressBar@@UEAAPEAXI@Z 000000014002ffd0 f i uielements.obj
 0001:0002f010       ?push_back@?$CArray@Utab_t@CUITabList@@@@QEAAXAEBUtab_t@CUITabList@@@Z 0000000140030010 f i uielements.obj
 0001:0002f150       ?resize@?$CArray@Uhdr_column_t@CUIListHeader@@@@QEAAXI@Z 0000000140030150 f i uielements.obj
 0001:0002f300       ??_ECCVar@@UEAAPEAXI@Z     0000000140030300 f i * CIL library *:* CIL module *
 0001:0002f300       ??_GCCVar@@UEAAPEAXI@Z     0000000140030300 f i cvar.obj
 0001:0002f350       ??_ECStringCVar@@UEAAPEAXI@Z 0000000140030350 f i * CIL library *:* CIL module *
 0001:0002f350       ??_GCStringCVar@@UEAAPEAXI@Z 0000000140030350 f i cvar.obj
 0001:0002f3b0       ??_ECFloatCVar@@UEAAPEAXI@Z 00000001400303b0 f i * CIL library *:* CIL module *
 0001:0002f3b0       ??_GCFloatCVar@@UEAAPEAXI@Z 00000001400303b0 f i cvar.obj
 0001:0002f400       ??0decalgroupentry_t@@QEAA@XZ 0000000140030400 f i decallist.obj
 0001:0002f440       ?resize@?$CArray@Udecalgroupentry_t@@@@QEAAXI@Z 0000000140030440 f i decallist.obj
 0001:0002f600       ??1?$CArray@Udecalgroup_t@@@@QEAA@XZ 0000000140030600 f i decallist.obj
 0001:0002f640       ?resize@?$CArray@Udecalgroup_t@@@@QEAAXI@Z 0000000140030640 f i decallist.obj
 0001:0002f8c0       ??_Edecalgroupentry_t@@QEAAPEAXI@Z 00000001400308c0 f i decallist.obj
 0001:0002f900       ??_Edecalgroup_t@@QEAAPEAXI@Z 0000000140030900 f i decallist.obj
 0001:0002f940       ??1decalgroup_t@@QEAA@XZ   0000000140030940 f i decallist.obj
 0001:0002f9a0       ??0flexcontroller_t@@QEAA@XZ 00000001400309a0 f i flexmanager.obj
 0001:0002f9e0       ??_Gflexscript_t@@QEAAPEAXI@Z 00000001400309e0 f i flexmanager.obj
 0001:0002fa50       ??_Eflexcontroller_t@@QEAAPEAXI@Z 0000000140030a50 f i flexmanager.obj
 0001:0002fa90       ??4flexcontroller_t@@QEAAAEAU0@AEBU0@@Z 0000000140030a90 f i flexmanager.obj
 0001:0002fb40       ?resize@?$CArray@Uflexbind_t@@@@QEAAXI@Z 0000000140030b40 f i flexmanager.obj
 0001:0002fc50       ?resize@?$CArray@Uflexcontroller_t@@@@QEAAXI@Z 0000000140030c50 f i flexmanager.obj
 0001:0002fe90       ??0glsl_branchcondition_t@CGLSLShader@@QEAA@XZ 0000000140030e90 f i r_glsl.obj
 0001:0002feb0       ??0glsl_determinator_t@CGLSLShader@@QEAA@XZ 0000000140030eb0 f i r_glsl.obj
 0001:0002ff00       ??0glsl_uniform_t@CGLSLShader@@QEAA@XZ 0000000140030f00 f i r_glsl.obj
 0001:0002ff60       ??0glsl_attrib_t@CGLSLShader@@QEAA@XZ 0000000140030f60 f i r_glsl.obj
 0001:0002ffb0       ??0disabled_state_t@CGLSLShader@@QEAA@XZ 0000000140030fb0 f i r_glsl.obj
 0001:0002fff0       ??1glsl_uniform_t@CGLSLShader@@QEAA@XZ 0000000140030ff0 f i r_glsl.obj
 0001:00030020       ?resize@?$CArray@F@@QEAAXI@Z 0000000140031020 f i r_glsl.obj
 0001:00030130       ?resize@?$CArray@Uglsl_determinator_t@CGLSLShader@@@@QEAAXI@Z 0000000140031130 f i r_glsl.obj
 0001:000302f0       ??1?$CArray@Uglsl_uniform_t@CGLSLShader@@@@QEAA@XZ 00000001400312f0 f i r_glsl.obj
 0001:00030330       ?resize@?$CArray@Uglsl_shader_t@CGLSLShader@@@@QEAAXI@Z 0000000140031330 f i r_glsl.obj
 0001:00030430       ??1?$CArray@Uglsl_attrib_t@CGLSLShader@@@@QEAA@XZ 0000000140031430 f i r_glsl.obj
 0001:00030470       ??_Eglsl_attrib_t@CGLSLShader@@QEAAPEAXI@Z 0000000140031470 f i r_glsl.obj
 0001:000304b0       ??4?$CArray@F@@QEAAXAEBV0@@Z 00000001400314b0 f i r_glsl.obj
 0001:00030520       ?resize@?$CArray@Uglsl_uniform_t@CGLSLShader@@@@QEAAXI@Z 0000000140031520 f i r_glsl.obj
 0001:00030760       ?resize@?$CArray@Uglsl_attrib_t@CGLSLShader@@@@QEAAXI@Z 0000000140031760 f i r_glsl.obj
 0001:00030920       ?resize@?$CArray@Uinvalid_state_t@CGLSLShader@@@@QEAAXI@Z 0000000140031920 f i r_glsl.obj
 0001:00030b20       ?resize@?$CArray@Udisabled_state_t@CGLSLShader@@@@QEAAXI@Z 0000000140031b20 f i r_glsl.obj
 0001:00030cd0       ??0CVBO@@QEAA@AEBVCGLExtF@@PEBXI1I_N@Z 0000000140031cd0 f   r_vbo.obj
 0001:00030ef0       ??0CVBO@@QEAA@AEBVCGLExtF@@_N1@Z 0000000140031ef0 f   r_vbo.obj
 0001:00030fd0       ?ClearGL@CVBO@@QEAAXXZ     0000000140031fd0 f   r_vbo.obj
 0001:000310a0       ?RebindGL@CVBO@@QEAAXXZ    00000001400320a0 f   r_vbo.obj
 0001:000311c0       ?Clear@CVBO@@QEAAXXZ       00000001400321c0 f   r_vbo.obj
 0001:00031620       ?Append@CVBO@@QEAA_NPEBXI0I@Z 0000000140032620 f   r_vbo.obj
 0001:00031820       ?SetAttribPointer@CVBO@@QEAAXHIIIPEBX@Z 0000000140032820 f   r_vbo.obj
 0001:000318f0       ?DisableAttribPointer@CVBO@@QEAAXH@Z 00000001400328f0 f   r_vbo.obj
 0001:00031970       ?VBOSubBufferData@CVBO@@QEAAXIPEBXI@Z 0000000140032970 f   r_vbo.obj
 0001:00031a30       ?Bind@CVBO@@QEAAXXZ        0000000140032a30 f   r_vbo.obj
 0001:00031a90       ?UnBind@CVBO@@QEAAXXZ      0000000140032a90 f   r_vbo.obj
 0001:00031af0       ?getObject@ui_windowdescription_t@@QEBAPEBUui_objectinfo_t@@W4ui_object_type_t@@PEBD@Z 0000000140032af0 f i uiconsolewindow.obj
 0001:00031c30       ??_ECUIConsoleWindow@@UEAAPEAXI@Z 0000000140032c30 f i * CIL library *:* CIL module *
 0001:00031c30       ??_GCUIConsoleWindow@@UEAAPEAXI@Z 0000000140032c30 f i uiconsolewindow.obj
 0001:00031cc0       ?PerformAction@CUIDownloadWindowCancelEvent@@UEAAXM@Z 0000000140032cc0 f i uidownloadwindow.obj
 0001:00031d30       ??_ECUIDownloadWindow@@UEAAPEAXI@Z 0000000140032d30 f i * CIL library *:* CIL module *
 0001:00031d30       ??_GCUIDownloadWindow@@UEAAPEAXI@Z 0000000140032d30 f i uidownloadwindow.obj
 0001:00031db0       ?PerformAction@CUIExitWindowEvent@@UEAAXM@Z 0000000140032db0 f i uiexitwindow.obj
 0001:00031db0       ?PerformAction@CUINewGameWindowButtonEvent@@UEAAXM@Z 0000000140032db0 f i uinewgamewindow.obj
 0001:00031dd0       ??_ECUIExitWindow@@UEAAPEAXI@Z 0000000140032dd0 f i * CIL library *:* CIL module *
 0001:00031dd0       ??_GCUIExitWindow@@UEAAPEAXI@Z 0000000140032dd0 f i uiexitwindow.obj
 0001:00031e30       ??_ECUINewGameWindow@@UEAAPEAXI@Z 0000000140032e30 f i * CIL library *:* CIL module *
 0001:00031e30       ??_GCUINewGameWindow@@UEAAPEAXI@Z 0000000140032e30 f i uinewgamewindow.obj
 0001:00031e90       ??0save_file_t@CUISaveLoadWindow@@QEAA@XZ 0000000140032e90 f i uisaveloadwindow.obj
 0001:00031f00       ??_ECUISaveLoadWindow@@UEAAPEAXI@Z 0000000140032f00 f i * CIL library *:* CIL module *
 0001:00031f00       ??_GCUISaveLoadWindow@@UEAAPEAXI@Z 0000000140032f00 f i uisaveloadwindow.obj
 0001:00032040       ??1save_file_t@CUISaveLoadWindow@@QEAA@XZ 0000000140033040 f i uisaveloadwindow.obj
 0001:00032060       ??_Esave_file_t@CUISaveLoadWindow@@QEAAPEAXI@Z 0000000140033060 f i uisaveloadwindow.obj
 0001:000320a0       ??4save_file_t@CUISaveLoadWindow@@QEAAAEAU01@AEBU01@@Z 00000001400330a0 f i uisaveloadwindow.obj
 0001:000325a0       ?resize@?$CArray@Usave_file_t@CUISaveLoadWindow@@@@QEAAXI@Z 00000001400335a0 f i uisaveloadwindow.obj
 0001:00032720       ??1CUISettingsEventBase@@UEAA@XZ 0000000140033720 f i uisettingswindow.obj
 0001:00032730       ??_ECUISliderAdjustEvent@@UEAAPEAXI@Z 0000000140033730 f i * CIL library *:* CIL module *
 0001:00032730       ??_GCUISliderAdjustEvent@@UEAAPEAXI@Z 0000000140033730 f i uisettingswindow.obj
 0001:00032790       ??_ECUITickBoxEvent@@UEAAPEAXI@Z 0000000140033790 f i * CIL library *:* CIL module *
 0001:00032790       ??_GCUITickBoxEvent@@UEAAPEAXI@Z 0000000140033790 f i uisettingswindow.obj
 0001:000327f0       ?SetRowIndex@CUIBindsRowEvent@@UEAAXI@Z 00000001400337f0 f i uisettingswindow.obj
 0001:00032800       ??0scrollsurf_option_t@CUISettingsWindow@@QEAA@XZ 0000000140033800 f i uisettingswindow.obj
 0001:00032880       ??_ECUISettingsWindow@@UEAAPEAXI@Z 0000000140033880 f i * CIL library *:* CIL module *
 0001:00032880       ??_GCUISettingsWindow@@UEAAPEAXI@Z 0000000140033880 f i uisettingswindow.obj
 0001:000328c0       ??1scrollsurf_option_t@CUISettingsWindow@@QEAA@XZ 00000001400338c0 f i uisettingswindow.obj
 0001:00032940       ??A?$CArray@Uscrollsurf_option_t@CUISettingsWindow@@@@QEBAAEAUscrollsurf_option_t@CUISettingsWindow@@I@Z 0000000140033940 f i uisettingswindow.obj
 0001:00032990       ??_Escrollsurf_option_t@CUISettingsWindow@@QEAAPEAXI@Z 0000000140033990 f i uisettingswindow.obj
 0001:000329d0       ??4scrollsurf_option_t@CUISettingsWindow@@QEAAAEAU01@AEBU01@@Z 00000001400339d0 f i uisettingswindow.obj
 0001:00032ab0       ?resize@?$CArray@Uscrollsurf_option_t@CUISettingsWindow@@@@QEAAXI@Z 0000000140033ab0 f i uisettingswindow.obj
 0001:00032d39       __tailMerge_sdl2_dll       0000000140033d39     SDL2:SDL2.dll
 0001:00032db2       __imp_load_SDL_tolower     0000000140033db2 f   SDL2:SDL2.dll
 0001:00032dbe       __imp_load_SDL_isdigit     0000000140033dbe f   SDL2:SDL2.dll
 0001:00032dca       __imp_load_SDL_ceil        0000000140033dca f   SDL2:SDL2.dll
 0001:00032dd6       __imp_load_SDL_floor       0000000140033dd6 f   SDL2:SDL2.dll
 0001:00032de2       __imp_load_SDL_isspace     0000000140033de2 f   SDL2:SDL2.dll
 0001:00032dee       __imp_load_SDL_toupper     0000000140033dee f   SDL2:SDL2.dll
 0001:00032dfa       __imp_load_SDL_atof        0000000140033dfa f   SDL2:SDL2.dll
 0001:00032e06       __imp_load_SDL_fabs        0000000140033e06 f   SDL2:SDL2.dll
 0001:00032e12       __imp_load_SDL_GetBasePath 0000000140033e12 f   SDL2:SDL2.dll
 0001:00032e1e       __imp_load_SDL_sqrt        0000000140033e1e f   SDL2:SDL2.dll
 0001:00032e2a       __imp_load_SDL_cos         0000000140033e2a f   SDL2:SDL2.dll
 0001:00032e36       __imp_load_SDL_abs         0000000140033e36 f   SDL2:SDL2.dll
 0001:00032e42       __imp_load_SDL_sin         0000000140033e42 f   SDL2:SDL2.dll
 0001:00032e4e       __imp_load_SDL_atan2f      0000000140033e4e f   SDL2:SDL2.dll
 0001:00032e5a       __imp_load_SDL_acos        0000000140033e5a f   SDL2:SDL2.dll
 0001:00032e66       __imp_load_SDL_atan2       0000000140033e66 f   SDL2:SDL2.dll
 0001:00032e72       __imp_load_SDL_atoi        0000000140033e72 f   SDL2:SDL2.dll
 0001:00032e7e       __imp_load_SDL_tan         0000000140033e7e f   SDL2:SDL2.dll
 0001:00032e8a       __imp_load_SDL_atan        0000000140033e8a f   SDL2:SDL2.dll
 0001:00032e96       __imp_load_SDL_LoadFunction 0000000140033e96 f   SDL2:SDL2.dll
 0001:00032ea2       __imp_load_SDL_UnloadObject 0000000140033ea2 f   SDL2:SDL2.dll
 0001:00032eae       __imp_load_SDL_LoadObject  0000000140033eae f   SDL2:SDL2.dll
 0001:00032eba       __imp_load_SDL_ClearError  0000000140033eba f   SDL2:SDL2.dll
 0001:00032ec6       __imp_load_SDL_GetError    0000000140033ec6 f   SDL2:SDL2.dll
 0001:00032ed2       __imp_load_SDL_RWFromFile  0000000140033ed2 f   SDL2:SDL2.dll
 0001:00032ede       __imp_load_SDL_sinf        0000000140033ede f   SDL2:SDL2.dll
 0001:00032eea       __imp_load_SDL_cosf        0000000140033eea f   SDL2:SDL2.dll
 0001:00032ef6       __imp_load_SDL_fmod        0000000140033ef6 f   SDL2:SDL2.dll
 0001:00032f02       __imp_load_SDL_GetKeyName  0000000140033f02 f   SDL2:SDL2.dll
 0001:00032f0e       __imp_load_SDL_GetKeyFromScancode 0000000140033f0e f   SDL2:SDL2.dll
 0001:00032f1a       __imp_load_SDL_ShowCursor  0000000140033f1a f   SDL2:SDL2.dll
 0001:00032f26       __imp_load_SDL_GetMouseState 0000000140033f26 f   SDL2:SDL2.dll
 0001:00032f32       __imp_load_SDL_WarpMouseInWindow 0000000140033f32 f   SDL2:SDL2.dll
 0001:00032f3e       __imp_load_SDL_GetWindowPosition 0000000140033f3e f   SDL2:SDL2.dll
 0001:00032f4a       __imp_load_SDL_Init        0000000140033f4a f   SDL2:SDL2.dll
 0001:00032f56       __imp_load_SDL_Quit        0000000140033f56 f   SDL2:SDL2.dll
 0001:00032f62       SDL_ShowSimpleMessageBox   0000000140033f62 f   SDL2:SDL2.dll
 0001:00032f68       __imp_load_SDL_ShowSimpleMessageBox 0000000140033f68 f   SDL2:SDL2.dll
 0001:00032f74       __imp_load_SDL_ShowWindow  0000000140033f74 f   SDL2:SDL2.dll
 0001:00032f80       __imp_load_SDL_PollEvent   0000000140033f80 f   SDL2:SDL2.dll
 0001:00032f8c       __imp_load_SDL_GetDisplayMode 0000000140033f8c f   SDL2:SDL2.dll
 0001:00032f98       __imp_load_SDL_GL_SwapWindow 0000000140033f98 f   SDL2:SDL2.dll
 0001:00032fa4       __imp_load_SDL_GetNumDisplayModes 0000000140033fa4 f   SDL2:SDL2.dll
 0001:00032fb0       __imp_load_SDL_GL_DeleteContext 0000000140033fb0 f   SDL2:SDL2.dll
 0001:00032fbc       __imp_load_SDL_GetDisplayBounds 0000000140033fbc f   SDL2:SDL2.dll
 0001:00032fc8       __imp_load_SDL_GetNumVideoDisplays 0000000140033fc8 f   SDL2:SDL2.dll
 0001:00032fd4       __imp_load_SDL_DestroyWindow 0000000140033fd4 f   SDL2:SDL2.dll
 0001:00032fe0       __imp_load_SDL_GL_SetAttribute 0000000140033fe0 f   SDL2:SDL2.dll
 0001:00032fec       __imp_load_SDL_GetDisplayName 0000000140033fec f   SDL2:SDL2.dll
 0001:00032ff8       __imp_load_SDL_VideoInit   0000000140033ff8 f   SDL2:SDL2.dll
 0001:00033004       __imp_load_SDL_GL_CreateContext 0000000140034004 f   SDL2:SDL2.dll
 0001:00033010       __imp_load_SDL_GL_SetSwapInterval 0000000140034010 f   SDL2:SDL2.dll
 0001:0003301c       __imp_load_SDL_GetCurrentDisplayMode 000000014003401c f   SDL2:SDL2.dll
 0001:00033028       __imp_load_SDL_CreateWindow 0000000140034028 f   SDL2:SDL2.dll
 0001:00033034       __imp_load_SDL_VideoQuit   0000000140034034 f   SDL2:SDL2.dll
 0001:000332d0       FT_Done_Glyph              00000001400342d0 f   freetype253:ftglyph.obj
 0001:00033310       FT_Get_Glyph               0000000140034310 f   freetype253:ftglyph.obj
 0001:00033400       FT_Glyph_Copy              0000000140034400 f   freetype253:ftglyph.obj
 0001:000334c0       FT_Glyph_Get_CBox          00000001400344c0 f   freetype253:ftglyph.obj
 0001:00033550       FT_Glyph_To_Bitmap         0000000140034550 f   freetype253:ftglyph.obj
 0001:00033720       FT_Glyph_Transform         0000000140034720 f   freetype253:ftglyph.obj
 0001:00033c80       FT_Activate_Size           0000000140034c80 f   freetype253:ftbase.obj
 0001:00033cd0       FT_Add_Module              0000000140034cd0 f   freetype253:ftbase.obj
 0001:00033eb0       FT_Angle_Diff              0000000140034eb0 f   freetype253:ftbase.obj
 0001:00033ef0       FT_Atan2                   0000000140034ef0 f   freetype253:ftbase.obj
 0001:00033f30       FT_CMap_New                0000000140034f30 f   freetype253:ftbase.obj
 0001:00034050       FT_Cos                     0000000140035050 f   freetype253:ftbase.obj
 0001:00034080       FT_DivFix                  0000000140035080 f   freetype253:ftbase.obj
 0001:00034130       FT_Done_Face               0000000140035130 f   freetype253:ftbase.obj
 0001:00034200       FT_Done_GlyphSlot          0000000140035200 f   freetype253:ftbase.obj
 0001:00034290       FT_Done_Library            0000000140035290 f   freetype253:ftbase.obj
 0001:00034420       FT_Done_Size               0000000140035420 f   freetype253:ftbase.obj
 0001:00034530       FT_Get_Advance             0000000140035530 f   freetype253:ftbase.obj
 0001:000345f0       FT_Get_Advances            00000001400355f0 f   freetype253:ftbase.obj
 0001:00034740       FT_Get_CMap_Format         0000000140035740 f   freetype253:ftbase.obj
 0001:000347a0       FT_Get_Char_Index          00000001400357a0 f   freetype253:ftbase.obj
 0001:000347c0       FT_Get_Glyph_Name          00000001400357c0 f   freetype253:ftbase.obj
 0001:00034890       FT_Get_Module              0000000140035890 f   freetype253:ftbase.obj
 0001:00034920       FT_Get_Module_Interface    0000000140035920 f   freetype253:ftbase.obj
 0001:00034940       FT_Get_Next_Char           0000000140035940 f   freetype253:ftbase.obj
 0001:000349c0       FT_GlyphLoader_Add         00000001400359c0 f   freetype253:ftbase.obj
 0001:00034b80       FT_GlyphLoader_CheckPoints 0000000140035b80 f   freetype253:ftbase.obj
 0001:00034d40       FT_GlyphLoader_CheckSubGlyphs 0000000140035d40 f   freetype253:ftbase.obj
 0001:00034dc0       FT_GlyphLoader_CopyPoints  0000000140035dc0 f   freetype253:ftbase.obj
 0001:00034ea0       FT_GlyphLoader_CreateExtra 0000000140035ea0 f   freetype253:ftbase.obj
 0001:00034f00       FT_GlyphLoader_Done        0000000140035f00 f   freetype253:ftbase.obj
 0001:00034f30       FT_GlyphLoader_New         0000000140035f30 f   freetype253:ftbase.obj
 0001:00034f70       FT_GlyphLoader_Prepare     0000000140035f70 f   freetype253:ftbase.obj
 0001:00034fa0       FT_GlyphLoader_Reset       0000000140035fa0 f   freetype253:ftbase.obj
 0001:00035030       FT_GlyphLoader_Rewind      0000000140036030 f   freetype253:ftbase.obj
 0001:00035070       FT_Hypot                   0000000140036070 f   freetype253:ftbase.obj
 0001:00035090       FT_List_Add                0000000140036090 f   freetype253:ftbase.obj
 0001:000350c0       FT_List_Finalize           00000001400360c0 f   freetype253:ftbase.obj
 0001:00035150       FT_List_Find               0000000140036150 f   freetype253:ftbase.obj
 0001:00035170       FT_List_Remove             0000000140036170 f   freetype253:ftbase.obj
 0001:000351a0       FT_List_Up                 00000001400361a0 f   freetype253:ftbase.obj
 0001:000351e0       FT_Load_Glyph              00000001400361e0 f   freetype253:ftbase.obj
 0001:00035540       FT_Lookup_Renderer         0000000140036540 f   freetype253:ftbase.obj
 0001:000355a0       FT_MSB                     00000001400365a0 f   freetype253:ftbase.obj
 0001:00035610       FT_Match_Size              0000000140036610 f   freetype253:ftbase.obj
 0001:00035750       FT_Matrix_Invert           0000000140036750 f   freetype253:ftbase.obj
 0001:00035800       FT_Matrix_Multiply_Scaled  0000000140036800 f   freetype253:ftbase.obj
 0001:00035930       FT_MulDiv                  0000000140036930 f   freetype253:ftbase.obj
 0001:00035a20       FT_MulDiv_No_Round         0000000140036a20 f   freetype253:ftbase.obj
 0001:00035ae0       FT_MulFix                  0000000140036ae0 f   freetype253:ftbase.obj
 0001:00035b80       FT_New_GlyphSlot           0000000140036b80 f   freetype253:ftbase.obj
 0001:00035c50       FT_New_Library             0000000140036c50 f   freetype253:ftbase.obj
 0001:00035d20       FT_New_Memory_Face         0000000140036d20 f   freetype253:ftbase.obj
 0001:00035d70       FT_New_Size                0000000140036d70 f   freetype253:ftbase.obj
 0001:00035e90       FT_Open_Face               0000000140036e90 f   freetype253:ftbase.obj
 0001:000362e0       FT_Outline_Check           00000001400372e0 f   freetype253:ftbase.obj
 0001:00036350       FT_Outline_Copy            0000000140037350 f   freetype253:ftbase.obj
 0001:000363f0       FT_Outline_Decompose       00000001400373f0 f   freetype253:ftbase.obj
 0001:00036760       FT_Outline_Done            0000000140037760 f   freetype253:ftbase.obj
 0001:00036780       FT_Outline_Done_Internal   0000000140037780 f   freetype253:ftbase.obj
 0001:00036810       FT_Outline_Get_CBox        0000000140037810 f   freetype253:ftbase.obj
 0001:000368c0       FT_Outline_Get_Orientation 00000001400378c0 f   freetype253:ftbase.obj
 0001:00036af0       FT_Outline_New             0000000140037af0 f   freetype253:ftbase.obj
 0001:00036b10       FT_Outline_New_Internal    0000000140037b10 f   freetype253:ftbase.obj
 0001:00036c70       FT_Outline_Transform       0000000140037c70 f   freetype253:ftbase.obj
 0001:00036cd0       FT_Outline_Translate       0000000140037cd0 f   freetype253:ftbase.obj
 0001:00036d10       FT_Raccess_Get_DataOffsets 0000000140037d10 f   freetype253:ftbase.obj
 0001:00037000       FT_Raccess_Get_HeaderInfo  0000000140038000 f   freetype253:ftbase.obj
 0001:00037320       FT_Raccess_Guess           0000000140038320 f   freetype253:ftbase.obj
 0001:000373f0       FT_Remove_Module           00000001400383f0 f   freetype253:ftbase.obj
 0001:00037490       FT_Render_Glyph            0000000140038490 f   freetype253:ftbase.obj
 0001:000374c0       FT_Render_Glyph_Internal   00000001400384c0 f   freetype253:ftbase.obj
 0001:000375b0       FT_Request_Metrics         00000001400385b0 f   freetype253:ftbase.obj
 0001:000377f0       FT_Request_Size            00000001400387f0 f   freetype253:ftbase.obj
 0001:00037890       FT_RoundFix                0000000140038890 f   freetype253:ftbase.obj
 0001:000378b0       FT_Select_Charmap          00000001400388b0 f   freetype253:ftbase.obj
 0001:00037910       FT_Select_Metrics          0000000140038910 f   freetype253:ftbase.obj
 0001:000379d0       FT_Select_Size             00000001400389d0 f   freetype253:ftbase.obj
 0001:00037a40       FT_Set_Charmap             0000000140038a40 f   freetype253:ftbase.obj
 0001:00037ae0       FT_Set_Pixel_Sizes         0000000140038ae0 f   freetype253:ftbase.obj
 0001:00037b60       FT_Set_Renderer            0000000140038b60 f   freetype253:ftbase.obj
 0001:00037c20       FT_Sin                     0000000140038c20 f   freetype253:ftbase.obj
 0001:00037c30       FT_Stream_Close            0000000140038c30 f   freetype253:ftbase.obj
 0001:00037c50       FT_Stream_EnterFrame       0000000140038c50 f   freetype253:ftbase.obj
 0001:00037d50       FT_Stream_ExitFrame        0000000140038d50 f   freetype253:ftbase.obj
 0001:00037d90       FT_Stream_ExtractFrame     0000000140038d90 f   freetype253:ftbase.obj
 0001:00037dd0       FT_Stream_Free             0000000140038dd0 f   freetype253:ftbase.obj
 0001:00037e20       FT_Stream_GetChar          0000000140038e20 f   freetype253:ftbase.obj
 0001:00037e40       FT_Stream_GetULong         0000000140038e40 f   freetype253:ftbase.obj
 0001:00037e90       FT_Stream_GetULongLE       0000000140038e90 f   freetype253:ftbase.obj
 0001:00037ee0       FT_Stream_GetUShort        0000000140038ee0 f   freetype253:ftbase.obj
 0001:00037f20       FT_Stream_GetUShortLE      0000000140038f20 f   freetype253:ftbase.obj
 0001:00037f60       FT_Stream_New              0000000140038f60 f   freetype253:ftbase.obj
 0001:00038060       FT_Stream_OpenMemory       0000000140039060 f   freetype253:ftbase.obj
 0001:00038080       FT_Stream_Pos              0000000140039080 f   freetype253:ftbase.obj
 0001:00038090       FT_Stream_Read             0000000140039090 f   freetype253:ftbase.obj
 0001:000380a0       FT_Stream_ReadAt           00000001400390a0 f   freetype253:ftbase.obj
 0001:00038120       FT_Stream_ReadChar         0000000140039120 f   freetype253:ftbase.obj
 0001:000381a0       FT_Stream_ReadFields       00000001400391a0 f   freetype253:ftbase.obj
 0001:00038420       FT_Stream_ReadULong        0000000140039420 f   freetype253:ftbase.obj
 0001:000384c0       FT_Stream_ReadULongLE      00000001400394c0 f   freetype253:ftbase.obj
 0001:00038560       FT_Stream_ReadUOffset      0000000140039560 f   freetype253:ftbase.obj
 0001:000385f0       FT_Stream_ReadUShort       00000001400395f0 f   freetype253:ftbase.obj
 0001:00038680       FT_Stream_ReadUShortLE     0000000140039680 f   freetype253:ftbase.obj
 0001:00038710       FT_Stream_ReleaseFrame     0000000140039710 f   freetype253:ftbase.obj
 0001:00038750       FT_Stream_Seek             0000000140039750 f   freetype253:ftbase.obj
 0001:000387b0       FT_Stream_Skip             00000001400397b0 f   freetype253:ftbase.obj
 0001:000387d0       FT_Stream_TryRead          00000001400397d0 f   freetype253:ftbase.obj
 0001:00038850       FT_Tan                     0000000140039850 f   freetype253:ftbase.obj
 0001:00038880       FT_Vector_From_Polar       0000000140039880 f   freetype253:ftbase.obj
 0001:000388a0       FT_Vector_Length           00000001400398a0 f   freetype253:ftbase.obj
 0001:00038930       FT_Vector_Rotate           0000000140039930 f   freetype253:ftbase.obj
 0001:00038a00       FT_Vector_Transform        0000000140039a00 f   freetype253:ftbase.obj
 0001:00038a80       FT_Vector_Transform_Scaled 0000000140039a80 f   freetype253:ftbase.obj
 0001:00039680       ft_corner_is_flat          000000014003a680 f   freetype253:ftbase.obj
 0001:000396f0       ft_corner_orientation      000000014003a6f0 f   freetype253:ftbase.obj
 0001:00039830       ft_glyphslot_alloc_bitmap  000000014003a830 f   freetype253:ftbase.obj
 0001:000399b0       ft_glyphslot_free_bitmap   000000014003a9b0 f   freetype253:ftbase.obj
 0001:00039b80       ft_glyphslot_set_bitmap    000000014003ab80 f   freetype253:ftbase.obj
 0001:00039bb0       ft_highpow2                000000014003abb0 f   freetype253:ftbase.obj
 0001:00039da0       ft_mem_alloc               000000014003ada0 f   freetype253:ftbase.obj
 0001:00039e00       ft_mem_dup                 000000014003ae00 f   freetype253:ftbase.obj
 0001:00039e60       ft_mem_free                000000014003ae60 f   freetype253:ftbase.obj
 0001:00039e70       ft_mem_qalloc              000000014003ae70 f   freetype253:ftbase.obj
 0001:00039ed0       ft_mem_qrealloc            000000014003aed0 f   freetype253:ftbase.obj
 0001:00039f90       ft_mem_realloc             000000014003af90 f   freetype253:ftbase.obj
 0001:0003a020       ft_mem_strcpyn             000000014003b020 f   freetype253:ftbase.obj
 0001:0003a050       ft_mem_strdup              000000014003b050 f   freetype253:ftbase.obj
 0001:0003a080       ft_module_get_service      000000014003b080 f   freetype253:ftbase.obj
 0001:0003a2f0       ft_service_list_lookup     000000014003b2f0 f   freetype253:ftbase.obj
 0001:0003a380       ft_synthesize_vertical_metrics 000000014003b380 f   freetype253:ftbase.obj
 0001:0003a6b0       ft_validator_error         000000014003b6b0 f   freetype253:ftbase.obj
 0001:0003a6d0       ft_validator_init          000000014003b6d0 f   freetype253:ftbase.obj
 0001:0003b080       FT_Glyph_StrokeBorder      000000014003c080 f   freetype253:ftstroke.obj
 0001:0003b1d0       FT_Outline_GetOutsideBorder 000000014003c1d0 f   freetype253:ftstroke.obj
 0001:0003b1f0       FT_Stroker_BeginSubPath    000000014003c1f0 f   freetype253:ftstroke.obj
 0001:0003b240       FT_Stroker_ConicTo         000000014003c240 f   freetype253:ftstroke.obj
 0001:0003b700       FT_Stroker_CubicTo         000000014003c700 f   freetype253:ftstroke.obj
 0001:0003bc60       FT_Stroker_EndSubPath      000000014003cc60 f   freetype253:ftstroke.obj
 0001:0003bd70       FT_Stroker_ExportBorder    000000014003cd70 f   freetype253:ftstroke.obj
 0001:0003bda0       FT_Stroker_GetBorderCounts 000000014003cda0 f   freetype253:ftstroke.obj
 0001:0003be20       FT_Stroker_LineTo          000000014003ce20 f   freetype253:ftstroke.obj
 0001:0003bf70       FT_Stroker_New             000000014003cf70 f   freetype253:ftstroke.obj
 0001:0003bff0       FT_Stroker_ParseOutline    000000014003cff0 f   freetype253:ftstroke.obj
 0001:0003c2d0       FT_Stroker_Rewind          000000014003d2d0 f   freetype253:ftstroke.obj
 0001:0003c300       FT_Stroker_Set             000000014003d300 f   freetype253:ftstroke.obj
 0001:0003d5b0       FT_Add_Default_Modules     000000014003e5b0 f   freetype253:ftinit.obj
 0001:0003d600       FT_Done_FreeType           000000014003e600 f   freetype253:ftinit.obj
 0001:0003d630       FT_Init_FreeType           000000014003e630 f   freetype253:ftinit.obj
 0001:0003d6b0       FT_Bitmap_Convert          000000014003e6b0 f   freetype253:ftbitmap.obj
 0001:0003db60       FT_Bitmap_Copy             000000014003eb60 f   freetype253:ftbitmap.obj
 0001:0003dc60       FT_Bitmap_Done             000000014003ec60 f   freetype253:ftbitmap.obj
 0001:0003dcc0       FT_Bitmap_New              000000014003ecc0 f   freetype253:ftbitmap.obj
 0001:0003ddf0       FT_Done_Memory             000000014003edf0 f   freetype253:ftsystem.obj
 0001:0003de00       FT_New_Memory              000000014003ee00 f   freetype253:ftsystem.obj
 0001:0003de40       FT_Stream_Open             000000014003ee40 f   freetype253:ftsystem.obj
 0001:00040ab0       af_get_char_index          0000000140041ab0 f   freetype253:autofit.obj
 0001:0004a240       TT_New_Context             000000014004b240 f   freetype253:truetype.obj
 0001:0004a8b0       TT_RunIns                  000000014004b8b0 f   freetype253:truetype.obj
 0001:0006cdb0       ps_hints_apply             000000014006ddb0 f   freetype253:pshinter.obj
 0001:00080720       FT_Gzip_Uncompress         0000000140081720 f   freetype253:ftgzip.obj
 0001:00080830       FT_Stream_OpenGzip         0000000140081830 f   freetype253:ftgzip.obj
 0001:00083360       FT_Stream_OpenLZW          0000000140084360 f   freetype253:ftlzw.obj
 0001:000837d0       ft_lzwstate_done           00000001400847d0 f   freetype253:ftlzw.obj
 0001:00083940       ft_lzwstate_init           0000000140084940 f   freetype253:ftlzw.obj
 0001:000839b0       ft_lzwstate_io             00000001400849b0 f   freetype253:ftlzw.obj
 0001:00083d90       ft_lzwstate_reset          0000000140084d90 f   freetype253:ftlzw.obj
 0001:00083e58       __tailMerge_openal32_dll   0000000140084e58     openal32:OpenAL32.dll
 0001:00083ed1       __imp_load_alDeleteSources 0000000140084ed1 f   openal32:OpenAL32.dll
 0001:00083edd       __imp_load_alBufferData    0000000140084edd f   openal32:OpenAL32.dll
 0001:00083ee9       __imp_load_alListenerfv    0000000140084ee9 f   openal32:OpenAL32.dll
 0001:00083ef5       __imp_load_alDeleteBuffers 0000000140084ef5 f   openal32:OpenAL32.dll
 0001:00083f01       __imp_load_alDopplerVelocity 0000000140084f01 f   openal32:OpenAL32.dll
 0001:00083f0d       __imp_load_alSource3f      0000000140084f0d f   openal32:OpenAL32.dll
 0001:00083f19       __imp_load_alGenSources    0000000140084f19 f   openal32:OpenAL32.dll
 0001:00083f25       __imp_load_alcMakeContextCurrent 0000000140084f25 f   openal32:OpenAL32.dll
 0001:00083f31       __imp_load_alcDestroyContext 0000000140084f31 f   openal32:OpenAL32.dll
 0001:00083f3d       __imp_load_alSourceUnqueueBuffers 0000000140084f3d f   openal32:OpenAL32.dll
 0001:00083f49       __imp_load_alDistanceModel 0000000140084f49 f   openal32:OpenAL32.dll
 0001:00083f55       __imp_load_alcOpenDevice   0000000140084f55 f   openal32:OpenAL32.dll
 0001:00083f61       __imp_load_alSourcePause   0000000140084f61 f   openal32:OpenAL32.dll
 0001:00083f6d       __imp_load_alSourcePlay    0000000140084f6d f   openal32:OpenAL32.dll
 0001:00083f79       __imp_load_alGetProcAddress 0000000140084f79 f   openal32:OpenAL32.dll
 0001:00083f85       __imp_load_alGetSourcei    0000000140084f85 f   openal32:OpenAL32.dll
 0001:00083f91       __imp_load_alSourceStop    0000000140084f91 f   openal32:OpenAL32.dll
 0001:00083f9d       __imp_load_alcCreateContext 0000000140084f9d f   openal32:OpenAL32.dll
 0001:00083fa9       __imp_load_alcGetIntegerv  0000000140084fa9 f   openal32:OpenAL32.dll
 0001:00083fb5       __imp_load_alGetString     0000000140084fb5 f   openal32:OpenAL32.dll
 0001:00083fc1       __imp_load_alListenerf     0000000140084fc1 f   openal32:OpenAL32.dll
 0001:00083fcd       __imp_load_alSourcefv      0000000140084fcd f   openal32:OpenAL32.dll
 0001:00083fd9       __imp_load_alGenBuffers    0000000140084fd9 f   openal32:OpenAL32.dll
 0001:00083fe5       __imp_load_alSourceQueueBuffers 0000000140084fe5 f   openal32:OpenAL32.dll
 0001:00083ff1       __imp_load_alcCloseDevice  0000000140084ff1 f   openal32:OpenAL32.dll
 0001:00083ffd       __imp_load_alListener3f    0000000140084ffd f   openal32:OpenAL32.dll
 0001:00084009       __imp_load_alSourcei       0000000140085009 f   openal32:OpenAL32.dll
 0001:00084015       __imp_load_alSourcef       0000000140085015 f   openal32:OpenAL32.dll
 0001:00084021       __imp_load_alDopplerFactor 0000000140085021 f   openal32:OpenAL32.dll
 0001:0008402d       __imp_load_alSource3i      000000014008502d f   openal32:OpenAL32.dll
 0001:00084040       ov_clear                   0000000140085040 f   libvorbisfile_static:vorbisfile.obj
 0001:00084170       ov_fopen                   0000000140085170 f   libvorbisfile_static:vorbisfile.obj
 0001:00084230       ov_open                    0000000140085230 f   libvorbisfile_static:vorbisfile.obj
 0001:000842a0       ov_open_callbacks          00000001400852a0 f   libvorbisfile_static:vorbisfile.obj
 0001:000842f0       ov_test                    00000001400852f0 f   libvorbisfile_static:vorbisfile.obj
 0001:00084340       ov_test_callbacks          0000000140085340 f   libvorbisfile_static:vorbisfile.obj
 0001:00084380       ov_test_open               0000000140085380 f   libvorbisfile_static:vorbisfile.obj
 0001:000843a0       ov_bitrate                 00000001400853a0 f   libvorbisfile_static:vorbisfile.obj
 0001:00084600       ov_bitrate_instant         0000000140085600 f   libvorbisfile_static:vorbisfile.obj
 0001:00084690       ov_streams                 0000000140085690 f   libvorbisfile_static:vorbisfile.obj
 0001:000846a0       ov_seekable                00000001400856a0 f   libvorbisfile_static:vorbisfile.obj
 0001:000846b0       ov_serialnumber            00000001400856b0 f   libvorbisfile_static:vorbisfile.obj
 0001:00084700       ov_raw_total               0000000140085700 f   libvorbisfile_static:vorbisfile.obj
 0001:00084790       ov_pcm_total               0000000140085790 f   libvorbisfile_static:vorbisfile.obj
 0001:00084820       ov_time_total              0000000140085820 f   libvorbisfile_static:vorbisfile.obj
 0001:000848d0       ov_raw_seek                00000001400858d0 f   libvorbisfile_static:vorbisfile.obj
 0001:00084d00       ov_pcm_seek                0000000140085d00 f   libvorbisfile_static:vorbisfile.obj
 0001:00085040       ov_pcm_seek_page           0000000140086040 f   libvorbisfile_static:vorbisfile.obj
 0001:00085830       ov_time_seek               0000000140086830 f   libvorbisfile_static:vorbisfile.obj
 0001:00085930       ov_time_seek_page          0000000140086930 f   libvorbisfile_static:vorbisfile.obj
 0001:00085a30       ov_raw_seek_lap            0000000140086a30 f   libvorbisfile_static:vorbisfile.obj
 0001:00085a50       ov_pcm_seek_lap            0000000140086a50 f   libvorbisfile_static:vorbisfile.obj
 0001:00085a70       ov_pcm_seek_page_lap       0000000140086a70 f   libvorbisfile_static:vorbisfile.obj
 0001:00085a90       ov_time_seek_lap           0000000140086a90 f   libvorbisfile_static:vorbisfile.obj
 0001:00085ab0       ov_time_seek_page_lap      0000000140086ab0 f   libvorbisfile_static:vorbisfile.obj
 0001:00085ad0       ov_raw_tell                0000000140086ad0 f   libvorbisfile_static:vorbisfile.obj
 0001:00085af0       ov_pcm_tell                0000000140086af0 f   libvorbisfile_static:vorbisfile.obj
 0001:00085b10       ov_time_tell               0000000140086b10 f   libvorbisfile_static:vorbisfile.obj
 0001:00085cd0       ov_info                    0000000140086cd0 f   libvorbisfile_static:vorbisfile.obj
 0001:00085d20       ov_comment                 0000000140086d20 f   libvorbisfile_static:vorbisfile.obj
 0001:00085d70       ov_read_float              0000000140086d70 f   libvorbisfile_static:vorbisfile.obj
 0001:00086210       ov_read_filter             0000000140087210 f   libvorbisfile_static:vorbisfile.obj
 0001:000865b0       ov_read                    00000001400875b0 f   libvorbisfile_static:vorbisfile.obj
 0001:00086600       ov_crosslap                0000000140087600 f   libvorbisfile_static:vorbisfile.obj
 0001:00086860       ov_halfrate                0000000140087860 f   libvorbisfile_static:vorbisfile.obj
 0001:00086930       ov_halfrate_p              0000000140087930 f   libvorbisfile_static:vorbisfile.obj
 0001:0008912e       __WSAFDIsSet               000000014008a12e f   ws2_32:WS2_32.dll
 0001:00089134       ?DloadAcquireSectionWriteAccess@@YAXXZ 000000014008a134 f i Delayimp:delayhlp.obj
 0001:000891e0       ?DloadGetSRWLockFunctionPointers@@YAEXZ 000000014008a1e0 f i Delayimp:delayhlp.obj
 0001:00089280       ?DloadMakePermanentImageCommit@@YAXPEAX_K@Z 000000014008a280 f i Delayimp:delayhlp.obj
 0001:00089318       ?DloadObtainSection@@YAPEAXPEAK0@Z 000000014008a318 f i Delayimp:delayhlp.obj
 0001:000893b4       ?DloadProtectSection@@YAXKPEAK@Z 000000014008a3b4 f i Delayimp:delayhlp.obj
 0001:00089444       ?DloadReleaseSectionWriteAccess@@YAXXZ 000000014008a444 f i Delayimp:delayhlp.obj
 0001:000894d8       __delayLoadHelper2         000000014008a4d8 f   Delayimp:delayhlp.obj
 0001:000897b0       ??0?$basic_ostream@DU?$char_traits@D@std@@@std@@QEAA@PEAV?$basic_streambuf@DU?$char_traits@D@std@@@1@_N@Z 000000014008a7b0 f i libcpmt:cout.obj
 0001:00089850       ?uncaught_exception@std@@YA_NXZ 000000014008a850 f   libcpmt:uncaught_exception.obj
 0001:00089858       ??0bad_alloc@std@@QEAA@XZ  000000014008a858 f i libcpmt:xthrow.obj
 0001:00089878       ??0length_error@std@@QEAA@AEBV01@@Z 000000014008a878 f i libcpmt:xthrow.obj
 0001:000898b4       ??0length_error@std@@QEAA@PEBD@Z 000000014008a8b4 f i libcpmt:xthrow.obj
 0001:000898fc       ??0logic_error@std@@QEAA@AEBV01@@Z 000000014008a8fc f i libcpmt:xthrow.obj
 0001:00089938       ??0out_of_range@std@@QEAA@AEBV01@@Z 000000014008a938 f i libcpmt:xthrow.obj
 0001:00089974       ??0out_of_range@std@@QEAA@PEBD@Z 000000014008a974 f i libcpmt:xthrow.obj
 0001:000899bc       ??0runtime_error@std@@QEAA@PEBD@Z 000000014008a9bc f i libcpmt:xthrow.obj
 0001:00089a04       ??1length_error@std@@UEAA@XZ 000000014008aa04 f i libcpmt:xthrow.obj
 0001:00089a04       ??1out_of_range@std@@UEAA@XZ 000000014008aa04 f i libcpmt:xthrow.obj
 0001:00089a18       ??_Elength_error@std@@UEAAPEAXI@Z 000000014008aa18 f i libcpmt:xthrow.obj
 0001:00089a18       ??_Elogic_error@std@@UEAAPEAXI@Z 000000014008aa18 f i libcpmt:xthrow.obj
 0001:00089a18       ??_Eout_of_range@std@@UEAAPEAXI@Z 000000014008aa18 f i libcpmt:xthrow.obj
 0001:00089a18       ??_Glength_error@std@@UEAAPEAXI@Z 000000014008aa18 f i libcpmt:xthrow.obj
 0001:00089a18       ??_Glogic_error@std@@UEAAPEAXI@Z 000000014008aa18 f i libcpmt:xthrow.obj
 0001:00089a18       ??_Gout_of_range@std@@UEAAPEAXI@Z 000000014008aa18 f i libcpmt:xthrow.obj
 0001:00089a5c       ?_Xbad_alloc@std@@YAXXZ    000000014008aa5c f   libcpmt:xthrow.obj
 0001:00089a5c       ?__scrt_throw_std_bad_alloc@@YAXXZ 000000014008aa5c f   MSVCRT:throw_bad_alloc.obj
 0001:00089a7c       ?_Xlength_error@std@@YAXPEBD@Z 000000014008aa7c f   libcpmt:xthrow.obj
 0001:00089aa0       ?_Xout_of_range@std@@YAXPEBD@Z 000000014008aaa0 f   libcpmt:xthrow.obj
 0001:00089ac4       ?_Xruntime_error@std@@YAXPEBD@Z 000000014008aac4 f   libcpmt:xthrow.obj
 0001:00089ae8       ?_Syserror_map@std@@YAPEBDH@Z 000000014008aae8 f   libcpmt:syserror.obj
 0001:00089b10       ??0_Init_locks@std@@QEAA@XZ 000000014008ab10 f   libcpmt:xlock.obj
 0001:00089b54       ??0_Lockit@std@@QEAA@H@Z   000000014008ab54 f   libcpmt:xlock.obj
 0001:00089b90       ??1_Init_locks@std@@QEAA@XZ 000000014008ab90 f   libcpmt:xlock.obj
 0001:00089bcc       ??1_Lockit@std@@QEAA@XZ    000000014008abcc f   libcpmt:xlock.obj
 0001:00089c00       ??0_Locimp@locale@std@@AEAA@_N@Z 000000014008ac00 f i libcpmt:locale0.obj
 0001:00089c88       ??4?$_Yarn@D@std@@QEAAAEAV01@PEBD@Z 000000014008ac88 f i libcpmt:locale0.obj
 0001:00089d00       ??_E_Locimp@locale@std@@MEAAPEAXI@Z 000000014008ad00 f i libcpmt:locale0.obj
 0001:00089d00       ??_G_Locimp@locale@std@@MEAAPEAXI@Z 000000014008ad00 f i libcpmt:locale0.obj
 0001:00089d5c       ?_Facet_Register@std@@YAXPEAV_Facet_base@1@@Z 000000014008ad5c f   libcpmt:locale0.obj
 0001:00089d94       ?_Getgloballocale@locale@std@@CAPEAV_Locimp@12@XZ 000000014008ad94 f   libcpmt:locale0.obj
 0001:00089d9c       ?_Init@locale@std@@CAPEAV_Locimp@12@_N@Z 000000014008ad9c f   libcpmt:locale0.obj
 0001:00089e90       ?_Locimp_dtor@_Locimp@locale@std@@CAXPEAV123@@Z 000000014008ae90 f   libcpmt:locale0.obj
 0001:00089f0c       ?_Locinfo_ctor@_Locinfo@std@@SAXPEAV12@PEBD@Z 000000014008af0c f   libcpmt:locale0.obj
 0001:00089f78       ?_Locinfo_dtor@_Locinfo@std@@SAXPEAV12@@Z 000000014008af78 f   libcpmt:locale0.obj
 0001:00089f94       ?_New_Locimp@_Locimp@locale@std@@CAPEAV123@_N@Z 000000014008af94 f   libcpmt:locale0.obj
 0001:00089fc4       ?_Setgloballocale@locale@std@@CAXPEAX@Z 000000014008afc4 f   libcpmt:locale0.obj
 0001:00089ff8       _Deletegloballocale        000000014008aff8 f   libcpmt:locale0.obj
 0001:0008a068       ?_Addstd@ios_base@std@@SAXPEAV12@@Z 000000014008b068 f   libcpmt:ios.obj
 0001:0008a0e0       ?_Ios_base_dtor@ios_base@std@@CAXPEAV12@@Z 000000014008b0e0 f   libcpmt:ios.obj
 0001:0008a158       ?_Tidy@ios_base@std@@AEAAXXZ 000000014008b158 f i libcpmt:ios.obj
 0001:0008a1d8       _Getctype                  000000014008b1d8 f   libcpmt:_tolower.obj
 0001:0008a298       _Tolower                   000000014008b298 f   libcpmt:_tolower.obj
 0001:0008a3cc       _Toupper                   000000014008b3cc f   libcpmt:_toupper.obj
 0001:0008a510       _Getcvt                    000000014008b510 f   libcpmt:xwctomb.obj
 0001:0008a5a8       ?_Atexit@@YAXP6AXXZ@Z      000000014008b5a8 f   libcpmt:iosptrs.obj
 0001:0008a5e4       _Mtxdst                    000000014008b5e4 f   libcpmt:xmtx.obj
 0001:0008a5ec       _Mtxinit                   000000014008b5ec f   libcpmt:xmtx.obj
 0001:0008a5fc       _Mtxlock                   000000014008b5fc f   libcpmt:xmtx.obj
 0001:0008a604       _Mtxunlock                 000000014008b604 f   libcpmt:xmtx.obj
 0001:0008a60c       __crtLCMapStringA          000000014008b60c f   libcpmt:StlLCMapStringA.obj
 0001:0008a920       __security_check_cookie    000000014008b920 f   MSVCRT:amdsecgs.obj
 0001:0008a940       ??3@YAXPEAX_K@Z            000000014008b940 f   MSVCRT:delete_scalar_size.obj
 0001:0008a940       ??_V@YAXPEAX@Z             000000014008b940 f   MSVCRT:delete_array.obj
 0001:0008a948       ??_V@YAXPEAX_K@Z           000000014008b948 f   MSVCRT:delete_array_size.obj
 0001:0008a950       ??_M@YAXPEAX_K1P6AX0@Z@Z   000000014008b950 f   MSVCRT:ehvecdtr.obj
 0001:0008a9bc       ?__ArrayUnwind@@YAXPEAX_K1P6AX0@Z@Z 000000014008b9bc f   MSVCRT:ehvecdtr.obj
 0001:0008aa20       ??_U@YAPEAX_K@Z            000000014008ba20 f   MSVCRT:new_array.obj
 0001:0008aa28       ??2@YAPEAX_K@Z             000000014008ba28 f   MSVCRT:new_scalar.obj
 0001:0008aa64       ??_L@YAXPEAX_K1P6AX0@Z2@Z  000000014008ba64 f   MSVCRT:ehvecctr.obj
 0001:0008aad4       ??_Etype_info@@UEAAPEAXI@Z 000000014008bad4 f i MSVCRT:std_type_info_static.obj
 0001:0008aad4       ??_Gtype_info@@UEAAPEAXI@Z 000000014008bad4 f i MSVCRT:std_type_info_static.obj
 0001:0008ab00       __raise_securityfailure    000000014008bb00 f   MSVCRT:gs_report.obj
 0001:0008ab34       __report_gsfailure         000000014008bb34 f   MSVCRT:gs_report.obj
 0001:0008ac08       __report_rangecheckfailure 000000014008bc08 f   MSVCRT:gs_report.obj
 0001:0008ac1c       __report_securityfailure   000000014008bc1c f   MSVCRT:gs_report.obj
 0001:0008ad9c       _Init_thread_abort         000000014008bd9c f   MSVCRT:thread_safe_statics.obj
 0001:0008add8       _Init_thread_footer        000000014008bdd8 f   MSVCRT:thread_safe_statics.obj
 0001:0008ae44       _Init_thread_header        000000014008be44 f   MSVCRT:thread_safe_statics.obj
 0001:0008aebc       __scrt_acquire_startup_lock 000000014008bebc f   MSVCRT:utility.obj
 0001:0008aef8       __scrt_initialize_crt      000000014008bef8 f   MSVCRT:utility.obj
 0001:0008af34       __scrt_initialize_onexit_tables 000000014008bf34 f   MSVCRT:utility.obj
 0001:0008afc0       __scrt_is_nonwritable_in_current_image 000000014008bfc0 f   MSVCRT:utility.obj
 0001:0008b058       __scrt_release_startup_lock 000000014008c058 f   MSVCRT:utility.obj
 0001:0008b07c       __scrt_uninitialize_crt    000000014008c07c f   MSVCRT:utility.obj
 0001:0008b0a8       _onexit                    000000014008c0a8 f   MSVCRT:utility.obj
 0001:0008b0e4       atexit                     000000014008c0e4 f   MSVCRT:utility.obj
 0001:0008b354       WinMainCRTStartup          000000014008c354 f   MSVCRT:exe_winmain.obj
 0001:0008b368       __GSHandlerCheck           000000014008c368 f   MSVCRT:gshandler.obj
 0001:0008b388       __GSHandlerCheckCommon     000000014008c388 f   MSVCRT:gshandler.obj
 0001:0008b400       __chkstk                   000000014008c400 f   MSVCRT:chkstk.obj
 0001:0008b400       _alloca_probe              000000014008c400 f   MSVCRT:chkstk.obj
 0001:0008b450       __isa_available_init       000000014008c450 f   MSVCRT:cpu_disp.obj
 0001:0008b5fc       ??3@YAXPEAX@Z              000000014008c5fc f   MSVCRT:delete_scalar.obj
 0001:0008b604       __GSHandlerCheck_EH4       000000014008c604 f   MSVCRT:gshandlereh4.obj
 0001:0008b684       __scrt_is_ucrt_dll_in_use  000000014008c684 f   MSVCRT:ucrt_detection.obj
 0001:0008b690       __crt_debugger_hook        000000014008c690 f   MSVCRT:utility_desktop.obj
 0001:0008b698       __scrt_fastfail            000000014008c698 f   MSVCRT:utility_desktop.obj
 0001:0008b7e0       __scrt_get_show_window_mode 000000014008c7e0 f   MSVCRT:utility_desktop.obj
 0001:0008b81c       __scrt_initialize_mta      000000014008c81c f   MSVCRT:utility_desktop.obj
 0001:0008b824       __scrt_is_managed_app      000000014008c824 f   MSVCRT:utility_desktop.obj
 0001:0008b878       __scrt_set_unhandled_exception_filter 000000014008c878 f   MSVCRT:utility_desktop.obj
 0001:0008b888       __scrt_unhandled_exception_filter 000000014008c888 f   MSVCRT:utility_desktop.obj
 0001:0008b8e4       __security_init_cookie     000000014008c8e4 f   MSVCRT:gs_support.obj
 0001:0008b990       _get_startup_file_mode     000000014008c990 f   MSVCRT:file_mode.obj
 0001:0008b998       ?__scrt_initialize_type_info@@YAXXZ 000000014008c998 f   MSVCRT:tncleanup.obj
 0001:0008b9a8       __local_stdio_scanf_options 000000014008c9a8 f i MSVCRT:default_local_stdio_options.obj
 0001:0008b9b0       __scrt_initialize_default_local_stdio_options 000000014008c9b0 f   MSVCRT:default_local_stdio_options.obj
 0001:0008b9cc       __scrt_is_user_matherr_present 000000014008c9cc f   MSVCRT:matherr_detection.obj
 0001:0008b9d8       __scrt_get_dyn_tls_init_callback 000000014008c9d8 f   MSVCRT:dyn_tls_init.obj
 0001:0008b9e0       __scrt_get_dyn_tls_dtor_callback 000000014008c9e0 f   MSVCRT:dyn_tls_dtor.obj
 0001:0008b9e8       _RTC_Initialize            000000014008c9e8 f   MSVCRT:initsect.obj
 0001:0008ba24       _RTC_Terminate             000000014008ca24 f   MSVCRT:initsect.obj
 0001:0008ba60       SetLastError               000000014008ca60 f   kernel32:KERNEL32.dll
 0001:0008ba66       GetModuleHandleW           000000014008ca66 f   kernel32:KERNEL32.dll
 0001:0008ba6c       __CxxFrameHandler4         000000014008ca6c f   vcruntime:VCRUNTIME140_1.dll
 0001:0008ba72       __std_terminate            000000014008ca72 f   vcruntime:VCRUNTIME140.dll
 0001:0008ba78       __std_exception_destroy    000000014008ca78 f   vcruntime:VCRUNTIME140.dll
 0001:0008ba7e       __std_exception_copy       000000014008ca7e f   vcruntime:VCRUNTIME140.dll
 0001:0008ba84       _purecall                  000000014008ca84 f   vcruntime:VCRUNTIME140.dll
 0001:0008ba8a       strrchr                    000000014008ca8a f   vcruntime:VCRUNTIME140.dll
 0001:0008ba90       longjmp                    000000014008ca90 f   vcruntime:VCRUNTIME140.dll
 0001:0008ba96       memcpy                     000000014008ca96 f   vcruntime:VCRUNTIME140.dll
 0001:0008ba9c       memmove                    000000014008ca9c f   vcruntime:VCRUNTIME140.dll
 0001:0008baa2       memset                     000000014008caa2 f   vcruntime:VCRUNTIME140.dll
 0001:0008baa8       strstr                     000000014008caa8 f   vcruntime:VCRUNTIME140.dll
 0001:0008baae       memchr                     000000014008caae f   vcruntime:VCRUNTIME140.dll
 0001:0008bab4       memcmp                     000000014008cab4 f   vcruntime:VCRUNTIME140.dll
 0001:0008baba       __C_specific_handler       000000014008caba f   vcruntime:VCRUNTIME140.dll
 0001:0008bac0       _CxxThrowException         000000014008cac0 f   vcruntime:VCRUNTIME140.dll
 0001:0008bac6       __uncaught_exception       000000014008cac6 f   vcruntime:VCRUNTIME140.dll
 0001:0008bacc       __current_exception        000000014008cacc f   vcruntime:VCRUNTIME140.dll
 0001:0008bad2       __current_exception_context 000000014008cad2 f   vcruntime:VCRUNTIME140.dll
 0001:0008bad8       __intrinsic_setjmp         000000014008cad8 f   vcruntime:VCRUNTIME140.dll
 0001:0008bad8       _setjmp                    000000014008cad8 f   vcruntime:VCRUNTIME140.dll
 0001:0008bade       ftell                      000000014008cade f   ucrt:api-ms-win-crt-stdio-l1-1-0.dll
 0001:0008bae4       fclose                     000000014008cae4 f   ucrt:api-ms-win-crt-stdio-l1-1-0.dll
 0001:0008baea       fread                      000000014008caea f   ucrt:api-ms-win-crt-stdio-l1-1-0.dll
 0001:0008baf0       strncmp                    000000014008caf0 f   ucrt:api-ms-win-crt-string-l1-1-0.dll
 0001:0008baf6       calloc                     000000014008caf6 f   ucrt:api-ms-win-crt-heap-l1-1-0.dll
 0001:0008bafc       fopen                      000000014008cafc f   ucrt:api-ms-win-crt-stdio-l1-1-0.dll
 0001:0008bb02       fseek                      000000014008cb02 f   ucrt:api-ms-win-crt-stdio-l1-1-0.dll
 0001:0008bb08       malloc                     000000014008cb08 f   ucrt:api-ms-win-crt-heap-l1-1-0.dll
 0001:0008bb0e       qsort                      000000014008cb0e f   ucrt:api-ms-win-crt-utility-l1-1-0.dll
 0001:0008bb14       exit                       000000014008cb14 f   ucrt:api-ms-win-crt-runtime-l1-1-0.dll
 0001:0008bb1a       free                       000000014008cb1a f   ucrt:api-ms-win-crt-heap-l1-1-0.dll
 0001:0008bb20       __acrt_iob_func            000000014008cb20 f   ucrt:api-ms-win-crt-stdio-l1-1-0.dll
 0001:0008bb26       strncpy                    000000014008cb26 f   ucrt:api-ms-win-crt-string-l1-1-0.dll
 0001:0008bb2c       strcmp                     000000014008cb2c f   ucrt:api-ms-win-crt-string-l1-1-0.dll
 0001:0008bb32       realloc                    000000014008cb32 f   ucrt:api-ms-win-crt-heap-l1-1-0.dll
 0001:0008bb38       atol                       000000014008cb38 f   ucrt:api-ms-win-crt-convert-l1-1-0.dll
 0001:0008bb3e       strtol                     000000014008cb3e f   ucrt:api-ms-win-crt-convert-l1-1-0.dll
 0001:0008bb44       strlen                     000000014008cb44 f   ucrt:api-ms-win-crt-string-l1-1-0.dll
 0001:0008bb4a       abort                      000000014008cb4a f   ucrt:api-ms-win-crt-runtime-l1-1-0.dll
 0001:0008bb50       floor                      000000014008cb50 f   ucrt:api-ms-win-crt-math-l1-1-0.dll
 0001:0008bb56       _lock_locales              000000014008cb56 f   ucrt:api-ms-win-crt-locale-l1-1-0.dll
 0001:0008bb5c       _unlock_locales            000000014008cb5c f   ucrt:api-ms-win-crt-locale-l1-1-0.dll
 0001:0008bb62       setlocale                  000000014008cb62 f   ucrt:api-ms-win-crt-locale-l1-1-0.dll
 0001:0008bb68       __pctype_func              000000014008cb68 f   ucrt:api-ms-win-crt-locale-l1-1-0.dll
 0001:0008bb6e       isupper                    000000014008cb6e f   ucrt:api-ms-win-crt-string-l1-1-0.dll
 0001:0008bb74       ___lc_locale_name_func     000000014008cb74 f   ucrt:api-ms-win-crt-locale-l1-1-0.dll
 0001:0008bb7a       ___lc_codepage_func        000000014008cb7a f   ucrt:api-ms-win-crt-locale-l1-1-0.dll
 0001:0008bb80       _wcsdup                    000000014008cb80 f   ucrt:api-ms-win-crt-string-l1-1-0.dll
 0001:0008bb86       islower                    000000014008cb86 f   ucrt:api-ms-win-crt-string-l1-1-0.dll
 0001:0008bb8c       ___mb_cur_max_func         000000014008cb8c f   ucrt:api-ms-win-crt-locale-l1-1-0.dll
 0001:0008bb92       _dclass                    000000014008cb92 f   ucrt:api-ms-win-crt-math-l1-1-0.dll
 0001:0008bb98       _ldclass                   000000014008cb98 f   ucrt:api-ms-win-crt-math-l1-1-0.dll
 0001:0008bb9e       __strncnt                  000000014008cb9e f   ucrt:api-ms-win-crt-string-l1-1-0.dll
 0001:0008bba4       terminate                  000000014008cba4 f   ucrt:api-ms-win-crt-runtime-l1-1-0.dll
 0001:0008bbaa       _callnewh                  000000014008cbaa f   ucrt:api-ms-win-crt-heap-l1-1-0.dll
 0001:0008bbb0       _configure_narrow_argv     000000014008cbb0 f   ucrt:api-ms-win-crt-runtime-l1-1-0.dll
 0001:0008bbb6       _initialize_narrow_environment 000000014008cbb6 f   ucrt:api-ms-win-crt-runtime-l1-1-0.dll
 0001:0008bbbc       _initialize_onexit_table   000000014008cbbc f   ucrt:api-ms-win-crt-runtime-l1-1-0.dll
 0001:0008bbc2       _register_onexit_function  000000014008cbc2 f   ucrt:api-ms-win-crt-runtime-l1-1-0.dll
 0001:0008bbc8       _crt_atexit                000000014008cbc8 f   ucrt:api-ms-win-crt-runtime-l1-1-0.dll
 0001:0008bbce       _cexit                     000000014008cbce f   ucrt:api-ms-win-crt-runtime-l1-1-0.dll
 0001:0008bbd4       _seh_filter_exe            000000014008cbd4 f   ucrt:api-ms-win-crt-runtime-l1-1-0.dll
 0001:0008bbda       _set_app_type              000000014008cbda f   ucrt:api-ms-win-crt-runtime-l1-1-0.dll
 0001:0008bbe0       __setusermatherr           000000014008cbe0 f   ucrt:api-ms-win-crt-math-l1-1-0.dll
 0001:0008bbe6       _get_narrow_winmain_command_line 000000014008cbe6 f   ucrt:api-ms-win-crt-runtime-l1-1-0.dll
 0001:0008bbec       _initterm                  000000014008cbec f   ucrt:api-ms-win-crt-runtime-l1-1-0.dll
 0001:0008bbf2       _initterm_e                000000014008cbf2 f   ucrt:api-ms-win-crt-runtime-l1-1-0.dll
 0001:0008bbf8       _exit                      000000014008cbf8 f   ucrt:api-ms-win-crt-runtime-l1-1-0.dll
 0001:0008bbfe       _set_fmode                 000000014008cbfe f   ucrt:api-ms-win-crt-stdio-l1-1-0.dll
 0001:0008bc04       _c_exit                    000000014008cc04 f   ucrt:api-ms-win-crt-runtime-l1-1-0.dll
 0001:0008bc0a       _register_thread_local_exe_atexit_callback 000000014008cc0a f   ucrt:api-ms-win-crt-runtime-l1-1-0.dll
 0001:0008bc10       _configthreadlocale        000000014008cc10 f   ucrt:api-ms-win-crt-locale-l1-1-0.dll
 0001:0008bc16       _set_new_mode              000000014008cc16 f   ucrt:api-ms-win-crt-heap-l1-1-0.dll
 0001:0008bc1c       __p__commode               000000014008cc1c f   ucrt:api-ms-win-crt-stdio-l1-1-0.dll
 0001:0008bc30       WinMain                    000000014008cc30 f   SDL2Main:SDL_windows_main.obj
 0001:0008be91       SDL_SetMainReady           000000014008ce91 f   SDL2:SDL2.dll
 0001:0008be97       __imp_load_SDL_SetMainReady 000000014008ce97 f   SDL2:SDL2.dll
 0001:0008beb0       ?BMP_Load@@YA_NPEBDPEBEAEAPEAEAEAI333AEAW4texture_compression_t@@P6AX0ZZ@Z 000000014008ceb0 f   bmp.obj
 0001:0008c060       ??1CBitSet@@QEAA@XZ        000000014008d060 f   cbitset.obj
 0001:0008c080       ??0CBitSet@@QEAA@XZ        000000014008d080 f   cbitset.obj
 0001:0008c090       ??1CBuffer@@QEAA@XZ        000000014008d090 f   cbuffer.obj
 0001:0008c0d0       ??0CBuffer@@QEAA@PEBXI@Z   000000014008d0d0 f   cbuffer.obj
 0001:0008c130       ??0CBuffer@@QEAA@I@Z       000000014008d130 f   cbuffer.obj
 0001:0008c1a0       ??0CBuffer@@QEAA@XZ        000000014008d1a0 f   cbuffer.obj
 0001:0008c1f0       ?ConvertStringToLowerCase@Common@@YAXPEAD@Z 000000014008d1f0 f   common.obj
 0001:0008c230       ?GetWADList@Common@@YA_NPEBDAEAV?$CArray@VCString@@@@@Z 000000014008d230 f   common.obj
 0001:0008d2b0       ?GetFileLineCount@Common@@YAIPEBD@Z 000000014008e2b0 f   common.obj
 0001:0008d310       ?FixVector@Common@@YAXPEAM@Z 000000014008e310 f   common.obj
 0001:0008d5b0       ?GetShiftedChar@Common@@YADD@Z 000000014008e5b0 f   common.obj
 0001:0008d6c0       ?StringToVector@Common@@YAXPEBDAEAVVector@@@Z 000000014008e6c0 f   common.obj
 0001:0008d900       ?IsNumber@Common@@YA_NAEBVCString@@@Z 000000014008e900 f   common.obj
 0001:0008d950       ?IsNumber@Common@@YA_NPEBD@Z 000000014008e950 f   common.obj
 0001:0008d9a0       ?Basename@Common@@YAXPEBDPEAD@Z 000000014008e9a0 f   common.obj
 0001:0008da90       ?Basename@Common@@YAXPEBDAEAVCString@@@Z 000000014008ea90 f   common.obj
 0001:0008dc30       ?ReadLine@Common@@YAPEBDPEBDAEAVCString@@@Z 000000014008ec30 f   common.obj
 0001:0008ddb0       ?ReadLine@Common@@YAPEBDPEBDPEAD@Z 000000014008edb0 f   common.obj
 0001:0008de80       ?Parse@Common@@YAPEBDPEBDPEAD0_N2@Z 000000014008ee80 f   common.obj
 0001:0008e0a0       ?Parse@Common@@YAPEBDPEBDAEAVCString@@0_N2@Z 000000014008f0a0 f   common.obj
 0001:0008e3f0       ?IsBreakCharacter@Common@@YA_NDPEBD@Z 000000014008f3f0 f   common.obj
 0001:0008e440       ?ResizeArray@Common@@YAPEAXPEAX_K11@Z 000000014008f440 f   common.obj
 0001:0008e4d0       ?IsPowerOfTwo@Common@@YA_NI@Z 000000014008f4d0 f   common.obj
 0001:0008e4f0       ??0CString@@QEAA@PEBDI@Z   000000014008f4f0 f   cstring.obj
 0001:0008e5b0       ??0CString@@QEAA@XZ        000000014008f5b0 f   cstring.obj
 0001:0008e5e0       ??0CString@@QEAA@PEBD@Z    000000014008f5e0 f   cstring.obj
 0001:0008e690       ??1CString@@QEAA@XZ        000000014008f690 f   cstring.obj
 0001:0008e6b0       ??0CString@@QEAA@AEBV0@@Z  000000014008f6b0 f   cstring.obj
 0001:0008e730       ?DDS_Load@@YA_NPEBDPEBEAEAPEAEAEAI333AEAW4texture_compression_t@@P6AX0ZZ@Z 000000014008f730 f   dds.obj
 0001:0008e960       ?Printf@CLogFile@@QEAA_NPEBDZZ 000000014008f960 f   logfile.obj
 0001:0008ea00       ?WriteInternal@CLogFile@@AEAA_NPEBD@Z 000000014008fa00 f   logfile.obj
 0001:0008eb10       ?Write@CLogFile@@QEAA_NPEBD@Z 000000014008fb10 f   logfile.obj
 0001:0008f430       ?Close@CLogFile@@QEAA_NXZ  0000000140090430 f   logfile.obj
 0001:0008f490       ?Init@CLogFile@@QEAA_NXZ   0000000140090490 f   logfile.obj
 0001:0008f9e0       ??1CLogFile@@QEAA@XZ       00000001400909e0 f   logfile.obj
 0001:0008fa20       ??0CLogFile@@QEAA@PEBDP6AX0ZZAEAUfile_interface_t@@_N3@Z 0000000140090a20 f   logfile.obj
 0001:0008fab0       ?LookAt@CMatrix@@QEAAXMMMMMMMMM@Z 0000000140090ab0 f   matrix.obj
 0001:0008fdd0       ?Ortho@CMatrix@@QEAAXMMMMMM@Z 0000000140090dd0 f   matrix.obj
 0001:0008fe90       ?SetFrustum@CMatrix@@QEAAXMMMMMM@Z 0000000140090e90 f   matrix.obj
 0001:0008ff60       ?Scale@CMatrix@@QEAAXMMM@Z 0000000140090f60 f   matrix.obj
 0001:0008ffa0       ?Rotate@CMatrix@@QEAAXMMMM@Z 0000000140090fa0 f   matrix.obj
 0001:00090190       ?Translate@CMatrix@@QEAAXMMM@Z 0000000140091190 f   matrix.obj
 0001:000901e0       ?MultMatrix@CMatrix@@QEAAXPEBM@Z 00000001400911e0 f   matrix.obj
 0001:000905e0       ?LoadIdentity@CMatrix@@QEAAXXZ 00000001400915e0 f   matrix.obj
 0001:00090630       ?SetMatrix@CMatrix@@QEAAXPEBM@Z 0000000140091630 f   matrix.obj
 0001:000906b0       ?Transpose@CMatrix@@QEAAPEBMXZ 00000001400916b0 f   matrix.obj
 0001:00090740       ?GetInverse@CMatrix@@QEAAPEBMXZ 0000000140091740 f   matrix.obj
 0001:00091140       ?GetMatrix@CMatrix@@QEAAPEBMXZ 0000000140092140 f   matrix.obj
 0001:000911d0       ?PopMatrix@CMatrix@@QEAAXXZ 00000001400921d0 f   matrix.obj
 0001:00091230       ?PushMatrix@CMatrix@@QEAAXXZ 0000000140092230 f   matrix.obj
 0001:000912c0       ??1CMatrix@@UEAA@XZ        00000001400922c0 f   matrix.obj
 0001:00091330       ??0CMatrix@@QEAA@PEBM@Z    0000000140092330 f   matrix.obj
 0001:00091510       ??0CMatrix@@QEAA@XZ        0000000140092510 f   matrix.obj
 0001:00091670       ?HexDigest@CMD5@@QEBA?AVCString@@XZ 0000000140092670 f   md5.obj
 0001:00091790       ?Finalize@CMD5@@QEAAAEAV1@XZ 0000000140092790 f   md5.obj
 0001:000918d0       ?Update@CMD5@@QEAAXPEBEI@Z 00000001400928d0 f   md5.obj
 0001:000919a0       ?Transform@CMD5@@AEAAXPEBE@Z 00000001400929a0 f   md5.obj
 0001:00092270       ?Encode@CMD5@@CAXPEAEPEBII@Z 0000000140093270 f   md5.obj
 0001:000922e0       ?Decode@CMD5@@CAXPEAIPEBEI@Z 00000001400932e0 f   md5.obj
 0001:00092330       ?Init@CMD5@@AEAAXXZ        0000000140093330 f   md5.obj
 0001:00092380       ??0CMD5@@QEAA@PEBEI@Z      0000000140093380 f   md5.obj
 0001:000924e0       ?AR_tellOgg@@YAJPEAX@Z     00000001400934e0 f   ogg_common.obj
 0001:000924f0       ?AR_closeOgg@@YAHPEAX@Z    00000001400934f0 f   ogg_common.obj
 0001:00092500       ?AR_seekOgg@@YAHPEAX_JH@Z  0000000140093500 f   ogg_common.obj
 0001:00092570       ?AR_readOgg@@YA_KPEAX_K10@Z 0000000140093570 f   ogg_common.obj
 0001:000925e0       ?R_WorldToScreenTransform@@YA_NAEAVCMatrix@@AEBVVector@@AEAV2@@Z 00000001400935e0 f   r_common.obj
 0001:00092740       ?R_FlipTexture@@YAXIII_N0AEAPEAE@Z 0000000140093740 f   r_common.obj
 0001:00092860       ?R_ResizeTextureToPOT@@YAXAEAI0AEAPEAE@Z 0000000140093860 f   r_common.obj
 0001:00092c70       ?R_GetRelativeY@@YAHHHH@Z  0000000140093c70 f   r_common.obj
 0001:00092ca0       ?R_GetRelativeX@@YAHHHH@Z  0000000140093ca0 f   r_common.obj
 0001:00092cd0       ?R_CheckShaderUniform@@YA_NHPEBDPEBVCGLSLShader@@P6AX0ZZ@Z 0000000140093cd0 f   r_common.obj
 0001:00093070       ?R_CheckShaderDeterminator@@YA_NHPEBDPEBVCGLSLShader@@P6AX0ZZ@Z 0000000140094070 f   r_common.obj
 0001:00093410       ?R_CheckShaderVertexAttribute@@YA_NHPEBDPEBVCGLSLShader@@P6AX0ZZ@Z 0000000140094410 f   r_common.obj
 0001:000937b0       ?R_RotateForEntity@@YAXAEAVCMatrix@@AEBUcl_entity_t@@@Z 00000001400947b0 f   r_common.obj
 0001:000938b0       ?R_IsEntityTransparent@@YA_NAEBUcl_entity_t@@_N@Z 00000001400948b0 f   r_common.obj
 0001:00093900       ?R_IsEntityRotated@@YA_NAEBUcl_entity_t@@@Z 0000000140094900 f   r_common.obj
 0001:00093940       ?R_IsEntityMoved@@YA_NAEBUcl_entity_t@@@Z 0000000140094940 f   r_common.obj
 0001:000939d0       ?R_BuildLightmap@@YAPEAUcolor24_t@@GGPEBU1@PEBUmsurface_t@@PEAUcolor32_t@@HIM_N3@Z 00000001400949d0 f   r_common.obj
 0001:00094060       ?R_AllocBlock@@YAXIIAEAI0I0PEAI@Z 0000000140095060 f   r_common.obj
 0001:000941b0       ?R_StyleIndex@@YAHPEBUmsurface_t@@I@Z 00000001400951b0 f   r_common.obj
 0001:00094250       ?TGA_Write@@YA_NPEBEIIIPEBDAEBUfile_interface_t@@P6AX1ZZ@Z 0000000140095250 f   tga.obj
 0001:000942e0       ?TGA_BuildFile@@YAXPEBEIIIAEAPEAEAEAI@Z 00000001400952e0 f   tga.obj
 0001:00094470       ?TGA_WriteData@@YAXPEBEIIIPEAE@Z 0000000140095470 f   tga.obj
 0001:00094590       ?TGA_Load@@YA_NPEBDPEBEAEAPEAEAEAI333AEAW4texture_compression_t@@P6AX0ZZ@Z 0000000140095590 f   tga.obj
 0001:00094930       ?DeleteInstance@CBasicDraw@@SAXXZ 0000000140095930 f   r_basicdraw.obj
 0001:00094980       ?GetInstance@CBasicDraw@@SAPEAV1@XZ 0000000140095980 f   r_basicdraw.obj
 0001:00094990       ?CreateInstance@CBasicDraw@@SAPEAV1@XZ 0000000140095990 f   r_basicdraw.obj
 0001:00094a20       ?ValidateShaderSetup@CBasicDraw@@QEAAXP6AXPEBDZZ@Z 0000000140095a20 f   r_basicdraw.obj
 0001:00094a30       ?HasError@CBasicDraw@@QEBA_NXZ 0000000140095a30 f   r_basicdraw.obj
 0001:00094a50       ?GetShaderError@CBasicDraw@@QEBAPEBDXZ 0000000140095a50 f   r_basicdraw.obj
 0001:00094a70       ?DisableFog@CBasicDraw@@QEAA_NXZ 0000000140095a70 f   r_basicdraw.obj
 0001:00094ad0       ?SetFogParams@CBasicDraw@@QEAAXAEBVVector@@MM@Z 0000000140095ad0 f   r_basicdraw.obj
 0001:00094b40       ?EnableFog@CBasicDraw@@QEAA_NXZ 0000000140095b40 f   r_basicdraw.obj
 0001:00094ba0       ?Vertex3fv@CBasicDraw@@QEAAXPEBM@Z 0000000140095ba0 f   r_basicdraw.obj
 0001:00094cc0       ?Vertex3f@CBasicDraw@@QEAAXMMM@Z 0000000140095cc0 f   r_basicdraw.obj
 0001:00094cf0       ?TexCoord2fv@CBasicDraw@@QEAAXPEBM@Z 0000000140095cf0 f   r_basicdraw.obj
 0001:00094d60       ?TexCoord2f@CBasicDraw@@QEAAXMM@Z 0000000140095d60 f   r_basicdraw.obj
 0001:00094dd0       ?SetColorMultiplier@CBasicDraw@@QEAAXM@Z 0000000140095dd0 f   r_basicdraw.obj
 0001:00094df0       ?Brightness1f@CBasicDraw@@QEAAXM@Z 0000000140095df0 f   r_basicdraw.obj
 0001:00094e00       ?Color4fv@CBasicDraw@@QEAAXPEBM@Z 0000000140095e00 f   r_basicdraw.obj
 0001:00094e20       ?Color4f@CBasicDraw@@QEAAXMMMM@Z 0000000140095e20 f   r_basicdraw.obj
 0001:00094e50       ?SetModelview@CBasicDraw@@QEAAXPEBM@Z 0000000140095e50 f   r_basicdraw.obj
 0001:00094e70       ?SetProjection@CBasicDraw@@QEAAXPEBM@Z 0000000140095e70 f   r_basicdraw.obj
 0001:00094e90       ?Disable@CBasicDraw@@QEAAXXZ 0000000140095e90 f   r_basicdraw.obj
 0001:00094ee0       ?Enable@CBasicDraw@@QEAA_NXZ 0000000140095ee0 f   r_basicdraw.obj
 0001:00094ff0       ?DisableRectangleTexture@CBasicDraw@@QEAA_NXZ 0000000140095ff0 f   r_basicdraw.obj
 0001:00095050       ?EnableRectangleTexture@CBasicDraw@@QEAA_NXZ 0000000140096050 f   r_basicdraw.obj
 0001:000950b0       ?DisableTexture@CBasicDraw@@QEAA_NXZ 00000001400960b0 f   r_basicdraw.obj
 0001:00095110       ?EnableTexture@CBasicDraw@@QEAA_NXZ 0000000140096110 f   r_basicdraw.obj
 0001:00095170       ?End@CBasicDraw@@QEAAX_N@Z 0000000140096170 f   r_basicdraw.obj
 0001:000951f0       ?Begin@CBasicDraw@@QEAAXH@Z 00000001400961f0 f   r_basicdraw.obj
 0001:00095210       ?ClearGL@CBasicDraw@@QEAAXXZ 0000000140096210 f   r_basicdraw.obj
 0001:000952a0       ?InitGL@CBasicDraw@@QEAA_NAEBVCGLExtF@@AEBUfile_interface_t@@P6AXPEBDZZ@Z 00000001400962a0 f   r_basicdraw.obj
 0001:00095680       ??1CBasicDraw@@AEAA@XZ     0000000140096680 f   r_basicdraw.obj
 0001:000956b0       ??0CBasicDraw@@AEAA@XZ     00000001400966b0 f   r_basicdraw.obj
 0001:00095710       ?GetNbWarnings@CSentencesFile@@QEBAIXZ 0000000140096710 f   sentencesfile.obj
 0001:00095720       ?GetWarning@CSentencesFile@@QEAAPEBDI@Z 0000000140096720 f   sentencesfile.obj
 0001:00095760       ?GetSentenceDuration@CSentencesFile@@QEAAMH@Z 0000000140096760 f   sentencesfile.obj
 0001:000957e0       ?GetSentenceDefinition@CSentencesFile@@QEBAPEBUsentence_t@1@PEBD@Z 00000001400967e0 f   sentencesfile.obj
 0001:00095910       ?GetSentenceDefinition@CSentencesFile@@QEBAPEBUsentence_t@1@H@Z 0000000140096910 f   sentencesfile.obj
 0001:00095970       ?PrecacheSentence@CSentencesFile@@QEAAXPEAUsentence_t@1@@Z 0000000140096970 f   sentencesfile.obj
 0001:00095c20       ?Clear@CSentencesFile@@QEAAXXZ 0000000140096c20 f   sentencesfile.obj
 0001:00095e30       ?ParseOptionToken@CSentencesFile@@AEAA_NPEAPEBDPEBDAEAI2222@Z 0000000140096e30 f   sentencesfile.obj
 0001:00096350       ?Init@CSentencesFile@@QEAA_NPEBE@Z 0000000140097350 f   sentencesfile.obj
 0001:00097f60       ??1CSentencesFile@@QEAA@XZ 0000000140098f60 f   sentencesfile.obj
 0001:00097ff0       ??0CSentencesFile@@QEAA@P6AHPEBD@ZP6AM0I@Z@Z 0000000140098ff0 f   sentencesfile.obj
 0001:00098050       ??1CStepSound@@QEAA@XZ     0000000140099050 f   stepsound.obj
 0001:000980b0       ?DeleteInstance@CTextureManager@@SAXXZ 00000001400990b0 f   texturemanager.obj
 0001:00098190       ?GetInstance@CTextureManager@@SAPEAV1@XZ 0000000140099190 f   texturemanager.obj
 0001:000981a0       ?CreateInstance@CTextureManager@@SAPEAV1@AEBUfile_interface_t@@P6AXPEBDZZ2AEBVCGLExtF@@_N@Z 00000001400991a0 f   texturemanager.obj
 0001:00098310       ?WritePMFFile@CTextureManager@@QEAAXPEAUen_material_t@@@Z 0000000140099310 f   texturemanager.obj
 0001:0009a900       ?GetNbAnisotropySettings@CTextureManager@@QEBAIXZ 000000014009b900 f   texturemanager.obj
 0001:0009a910       ?GetAnisotropySettingValue@CTextureManager@@QEAAHI@Z 000000014009b910 f   texturemanager.obj
 0001:0009a980       ?FindMaterialScriptByIndex@CTextureManager@@QEAAPEAUen_material_t@@H@Z 000000014009b980 f   texturemanager.obj
 0001:0009a9e0       ?PopulateAnisotropyList@CTextureManager@@QEAAXXZ 000000014009b9e0 f   texturemanager.obj
 0001:0009aa80       ?ResetMaterialsIndexArray@CTextureManager@@AEAAXXZ 000000014009ba80 f   texturemanager.obj
 0001:0009ab40       ?LoadPallettedTexture@CTextureManager@@QEAAPEAUen_texture_t@@PEBDW4rs_level_t@@PEBEPEBUcolor24_t@@IIH@Z 000000014009bb40 f   texturemanager.obj
 0001:0009b730       ?FindMaterialScript@CTextureManager@@QEAAPEAUen_material_t@@PEBDW4rs_level_t@@@Z 000000014009c730 f   texturemanager.obj
 0001:0009b940       ?FindTexture@CTextureManager@@QEAAPEAUen_texture_t@@PEBDW4rs_level_t@@@Z 000000014009c940 f   texturemanager.obj
 0001:0009ba40       ?LoadFromMemory@CTextureManager@@QEAAPEAUen_texture_t@@PEBDW4rs_level_t@@HPEBEIIII@Z 000000014009ca40 f   texturemanager.obj
 0001:0009beb0       ?LoadTexture@CTextureManager@@QEAAPEAUen_texture_t@@PEBDW4rs_level_t@@HPEBH@Z 000000014009ceb0 f   texturemanager.obj
 0001:0009cbd0       ?LoadMaterialScript@CTextureManager@@QEAAPEAUen_material_t@@PEBDW4rs_level_t@@_N2@Z 000000014009dbd0 f   texturemanager.obj
 0001:0009f610       ?GetTextureType@CTextureManager@@CA?AW4mt_texture_t@@PEBD@Z 00000001400a0610 f   texturemanager.obj
 0001:0009f870       ?GetFormat@CTextureManager@@CA?AW4texture_format_t@@PEBD@Z 00000001400a0870 f   texturemanager.obj
 0001:0009fa90       ?CreateDummyTexture@CTextureManager@@AEAAXXZ 00000001400a0a90 f   texturemanager.obj
 0001:0009ffa0       ?DeleteAllocation@CTextureManager@@QEAAXPEAUen_texalloc_t@@@Z 00000001400a0fa0 f   texturemanager.obj
 0001:000a0070       ?DeleteTexture@CTextureManager@@QEAAXPEAUen_texture_t@@@Z 00000001400a1070 f   texturemanager.obj
 0001:000a0130       ?DeleteTexture@CTextureManager@@QEAAXPEBD@Z 00000001400a1130 f   texturemanager.obj
 0001:000a0290       ?DeleteTextures@CTextureManager@@QEAAXW4rs_level_t@@_N@Z 00000001400a1290 f   texturemanager.obj
 0001:000a04c0       ?DeleteMaterials@CTextureManager@@QEAAXW4rs_level_t@@@Z 00000001400a14c0 f   texturemanager.obj
 0001:000a0900       ?DeleteBinds@CTextureManager@@AEAAXW4rs_level_t@@@Z 00000001400a1900 f   texturemanager.obj
 0001:000a0af0       ?AllocTexture@CTextureManager@@AEAAPEAUen_texture_t@@XZ 00000001400a1af0 f   texturemanager.obj
 0001:000a0bb0       ?GenTextureIndex@CTextureManager@@QEAAPEAUen_texalloc_t@@W4rs_level_t@@@Z 00000001400a1bb0 f   texturemanager.obj
 0001:000a0c60       ?UpdateAnisotropySettings@CTextureManager@@QEAAXM@Z 00000001400a1c60 f   texturemanager.obj
 0001:000a0d60       ?Shutdown@CTextureManager@@QEAAXXZ 00000001400a1d60 f   texturemanager.obj
 0001:000a0f00       ?ReloadResources@CTextureManager@@QEAAXXZ 00000001400a1f00 f   texturemanager.obj
 0001:000a11b0       ?Init@CTextureManager@@QEAAXXZ 00000001400a21b0 f   texturemanager.obj
 0001:000a1260       ??1CTextureManager@@AEAA@XZ 00000001400a2260 f   texturemanager.obj
 0001:000a1310       ??0CTextureManager@@AEAA@AEBUfile_interface_t@@P6AXPEBDZZ2AEBVCGLExtF@@_N@Z 00000001400a2310 f   texturemanager.obj
 0001:000a1440       ?ALD_ExportLightmaps@@YAXXZ 00000001400a2440 f   ald.obj
 0001:000a1810       ?ALD_HasBumpmapData@@YA_NPEAUbrushmodel_t@@@Z 00000001400a2810 f   ald.obj
 0001:000a1910       ?ALD_Load@@YA_NW4daystage_t@@@Z 00000001400a2910 f   ald.obj
 0001:000a1dd0       ?Mod_RecursiveLightPoint_BumpData@@YA_NPEBUbrushmodel_t@@PEAUmnode_t@@AEBVVector@@2AEAV3@33@Z 00000001400a2dd0 f   brushmodel.obj
 0001:000a23c0       ?Mod_RecursiveLightPoint@@YA_NPEBUbrushmodel_t@@PEAUmnode_t@@AEBVVector@@2AEAV3@@Z 00000001400a33c0 f   brushmodel.obj
 0001:000a2730       ?Mod_FindTouchedLeafs@@YAXPEBUbrushmodel_t@@AEAV?$CArray@I@@AEBVVector@@2PEAUmnode_t@@@Z 00000001400a3730 f   brushmodel.obj
 0001:000a2820       ?Mod_SurfaceAtPoint@@YAPEBUmsurface_t@@PEBUbrushmodel_t@@PEBUmnode_t@@AEBVVector@@2@Z 00000001400a3820 f   brushmodel.obj
 0001:000a2a70       ?Mod_LeafPAS@@YAPEBEPEAEIAEBUmleaf_t@@AEBUbrushmodel_t@@@Z 00000001400a3a70 f   brushmodel.obj
 0001:000a2b00       ?Mod_LeafPVS@@YAPEBEPEAEIAEBUmleaf_t@@AEBUbrushmodel_t@@@Z 00000001400a3b00 f   brushmodel.obj
 0001:000a2b90       ?Mod_DecompressPAS@@YAPEAEPEAEI0AEBUbrushmodel_t@@I@Z 00000001400a3b90 f   brushmodel.obj
 0001:000a2cd0       ?Mod_DecompressVIS@@YAPEAEPEAEI0AEBUbrushmodel_t@@I@Z 00000001400a3cd0 f   brushmodel.obj
 0001:000a2e10       ?Mod_PointInLeaf@@YAPEBUmleaf_t@@AEBVVector@@AEBUbrushmodel_t@@@Z 00000001400a3e10 f   brushmodel.obj
 0001:000a2e90       ?Cmd_Heartbeat@@YAXXZ      00000001400a3e90 f   cl_cmd.obj
 0001:000a2ea0       ?Cmd_DownloadFile@@YAXXZ   00000001400a3ea0 f   cl_cmd.obj
 0001:000a3160       ?Cmd_Connect@@YAXXZ        00000001400a4160 f   cl_cmd.obj
 0001:000a3270       ?Cmd_Disconnect@@YAXXZ     00000001400a4270 f   cl_cmd.obj
 0001:000a32e0       ?CL_InitCommands@@YAXXZ    00000001400a42e0 f   cl_cmd.obj
 0001:000a3370       ?CL_SetSkyTexture@@YAXH@Z  00000001400a4370 f   cl_efx.obj
 0001:000a33d0       ?CL_AddSkyTextureSet@@YAXPEBDH@Z 00000001400a43d0 f   cl_efx.obj
 0001:000a33f0       ?CL_SetSunFlare@@YAXH_NMMMAEBVVector@@0@Z 00000001400a43f0 f   cl_efx.obj
 0001:000a3440       ?CL_KillBlackHole@@YAXH@Z  00000001400a4440 f   cl_efx.obj
 0001:000a3670       ?CL_CreateBlackHole@@YAXHAEBVVector@@MMMMMM@Z 00000001400a4670 f   cl_efx.obj
 0001:000a37f0       ?CL_KillEntityBeams@@YAXH@Z 00000001400a47f0 f   cl_efx.obj
 0001:000a3800       ?CL_BeamVaporTrail@@YAPEAUbeam_t@@AEBVVector@@0HHMMMMMMMMMMMH@Z 00000001400a4800 f   cl_efx.obj
 0001:000a38e0       ?CL_BeamRing@@YAPEAUbeam_t@@HHHHHMMMMMMIMMMMH@Z 00000001400a48e0 f   cl_efx.obj
 0001:000a39c0       ?CL_BeamPoints@@YAPEAUbeam_t@@AEBVVector@@0HMMMMMMIMMMMH@Z 00000001400a49c0 f   cl_efx.obj
 0001:000a3a90       ?CL_BeamFollow@@YAPEAUbeam_t@@HHHMMMMMM@Z 00000001400a4a90 f   cl_efx.obj
 0001:000a3b00       ?CL_BeamEntities@@YAPEAUbeam_t@@HHHHHMMMMMMIMMMMH@Z 00000001400a4b00 f   cl_efx.obj
 0001:000a3be0       ?CL_BeamEntityPoint@@YAPEAUbeam_t@@HHAEBVVector@@HMMMMMMIMMMMH@Z 00000001400a4be0 f   cl_efx.obj
 0001:000a3cc0       ?CL_BeamCirclePoints@@YAPEAUbeam_t@@W4beam_types_t@@AEBVVector@@1HMMMMMMIMMMMH@Z 00000001400a4cc0 f   cl_efx.obj
 0001:000a3da0       ?CL_BeamLightning@@YAPEAUbeam_t@@AEBVVector@@0HMMMMMMH@Z 00000001400a4da0 f   cl_efx.obj
 0001:000a3e20       ?CL_InitEffectsInterface@@YAXAEAUcl_efxapi_t@@@Z 00000001400a4e20 f   cl_efx.obj
 0001:000a3ea0       ?CL_RocketTrail@@YAXAEBVVector@@0I@Z 00000001400a4ea0 f   cl_efx.obj
 0001:000a3ec0       ?CL_TeleportSplash@@YAXAEBVVector@@@Z 00000001400a4ec0 f   cl_efx.obj
 0001:000a3ed0       ?CL_LavaSplash@@YAXAEBVVector@@@Z 00000001400a4ed0 f   cl_efx.obj
 0001:000a3ee0       ?CL_ParticleEffect@@YAXAEBVVector@@0II@Z 00000001400a4ee0 f   cl_efx.obj
 0001:000a3f10       ?CL_RocketExplosion@@YAXAEBVVector@@I@Z 00000001400a4f10 f   cl_efx.obj
 0001:000a3f20       ?CL_BlobExplosion@@YAXAEBVVector@@@Z 00000001400a4f20 f   cl_efx.obj
 0001:000a3f30       ?CL_ParticleExplosion2@@YAXAEBVVector@@II@Z 00000001400a4f30 f   cl_efx.obj
 0001:000a3f50       ?CL_ParticleExplosion1@@YAXAEBVVector@@@Z 00000001400a4f50 f   cl_efx.obj
 0001:000a3f60       ?CL_TempSprite@@YAPEAUtempentity_t@@AEBVVector@@0MIHHMMHH@Z 00000001400a4f60 f   cl_efx.obj
 0001:000a3fd0       ?CL_TempModel@@YAPEAUtempentity_t@@AEBVVector@@00MIHMMH@Z 00000001400a4fd0 f   cl_efx.obj
 0001:000a4040       ?CL_SphereModel@@YAXAEBVVector@@MMIIMMH@Z 00000001400a5040 f   cl_efx.obj
 0001:000a40a0       ?CL_FunnelSprite@@YAXAEBVVector@@0MI_N@Z 00000001400a50a0 f   cl_efx.obj
 0001:000a40d0       ?CL_BubbleTrail@@YAXAEBVVector@@0MIIM@Z 00000001400a50d0 f   cl_efx.obj
 0001:000a4110       ?CL_Bubbles@@YAXAEBVVector@@0MIIM@Z 00000001400a5110 f   cl_efx.obj
 0001:000a4150       ?CL_BreakModel@@YAXAEBVVector@@00IMIIHMMH@Z 00000001400a5150 f   cl_efx.obj
 0001:000a41d0       ?CL_SetGaussianBlur@@YAX_NM@Z 00000001400a51d0 f   cl_efx.obj
 0001:000a4200       ?CL_SetFade@@YAXIMMHAEBUcolor24_t@@EM@Z 00000001400a5200 f   cl_efx.obj
 0001:000a4360       ?CL_SetMotionBlur@@YAX_NM0@Z 00000001400a5360 f   cl_efx.obj
 0001:000a43e0       ?CL_SpawnParticleSystem@@YAXAEBVVector@@0W4part_script_type_t@@PEBDHHHHH@Z 00000001400a53e0 f   cl_efx.obj
 0001:000a4440       ?CL_KillEntityParticleSystems@@YAXH@Z 00000001400a5440 f   cl_efx.obj
 0001:000a4450       ?CL_RemoveParticleSystem@@YAXIH_N@Z 00000001400a5450 f   cl_efx.obj
 0001:000a4540       ?CL_PrecacheParticleScript@@YAXW4part_script_type_t@@PEBD@Z 00000001400a5540 f   cl_efx.obj
 0001:000a4560       ?CL_CreateGenericDecal@@YAXPEBDAEBVVector@@1HHMMM@Z 00000001400a5560 f   cl_efx.obj
 0001:000a45c0       ?CL_DecalVBMEntity@@YAXAEBVVector@@0PEAUdecalgroupentry_t@@PEAUcl_entity_t@@H@Z 00000001400a55c0 f   cl_efx.obj
 0001:000a45f0       ?CL_GetDecalList@@YAAEAVCDecalList@@XZ 00000001400a55f0 f   cl_efx.obj
 0001:000a4600       ?CL_SetLightStyle@@YAXHPEBD_NM@Z 00000001400a5600 f   cl_efx.obj
 0001:000a4650       ?CL_FreeEntityData@@YAXHH@Z 00000001400a5650 f   cl_efx.obj
 0001:000a4830       ?CL_SetSpecialFog@@YAX_N@Z 00000001400a5830 f   cl_efx.obj
 0001:000a4870       ?CL_SetDayStage@@YAXW4daystage_t@@@Z 00000001400a5870 f   cl_efx.obj
 0001:000a4960       ?CL_AllocDynamicSpotLight@@YAPEAUcl_dlight_t@@HH_N0PEAUcl_entity_t@@@Z 00000001400a5960 f   cl_efx.obj
 0001:000a4990       ?CL_AllocDynamicPointLight@@YAPEAUcl_dlight_t@@HH_N0PEAUcl_entity_t@@@Z 00000001400a5990 f   cl_efx.obj
 0001:000a49c0       ?CL_SetSkyboxParameters@@YAXAEBVVector@@MMM0H_N1@Z 00000001400a59c0 f   cl_efx.obj
 0001:000a4ac0       ?CL_SetFogParameters@@YAXHAEBVVector@@MM_NM@Z 00000001400a5ac0 f   cl_efx.obj
 0001:000a4c30       ?CL_CreateCableEntity@@YAXAEBVVector@@0III@Z 00000001400a5c30 f   cl_efx.obj
 0001:000a4c60       ?CL_AllocEntityLight@@YAPEAUmlight_t@@HMH@Z 00000001400a5c60 f   cl_efx.obj
 0001:000a4e20       ?CL_AllocTempSpriteEntity@@YAPEAUcl_entity_t@@HM@Z 00000001400a5e20 f   cl_efx.obj
 0001:000a4e30       ?CL_AllocStaticSpriteEntity@@YAPEAUcl_entity_t@@XZ 00000001400a5e30 f   cl_efx.obj
 0001:000a4ea0       ?CL_NotifyLevelChange@@YAXXZ 00000001400a5ea0 f   cl_main.obj
 0001:000a4eb0       ?CL_SetPaused@@YAX_N0@Z    00000001400a5eb0 f   cl_main.obj
 0001:000a4f70       ?CL_UpdateEntityLights@@YAXXZ 00000001400a5f70 f   cl_main.obj
 0001:000a5050       ?CL_UpdateParentedEntities@@YAXXZ 00000001400a6050 f   cl_main.obj
 0001:000a5200       ?CL_GetMaxClients@@YAIXZ   00000001400a6200 f   cl_main.obj
 0001:000a5210       ?CL_UpdateAttachments@@YAXPEAUcl_entity_t@@@Z 00000001400a6210 f   cl_main.obj
 0001:000a5220       ?CL_LinkMapTextureMaterials@@YAXAEAV?$CArray@VCString@@@@@Z 00000001400a6220 f   cl_main.obj
 0001:000a5c40       ?CL_ServerCommand@@YAXPEBD@Z 00000001400a6c40 f   cl_main.obj
 0001:000a5d70       ?CL_ClientCommand@@YAXPEBD@Z 00000001400a6d70 f   cl_main.obj
 0001:000a5da0       ?CL_SetFlexScript@@YAXHPEBD@Z 00000001400a6da0 f   cl_main.obj
 0001:000a5ea0       ?CL_PrecacheFlexScript@@YAXW4flextypes_t@@PEBD@Z 00000001400a6ea0 f   cl_main.obj
 0001:000a5f10       ?CL_ClearEntities@@YAXXZ   00000001400a6f10 f   cl_main.obj
 0001:000a61f0       ?CL_ClearExtraInfos@@YAXXZ 00000001400a71f0 f   cl_main.obj
 0001:000a6320       ?CL_InitExtraInfos@@YAXXZ  00000001400a7320 f   cl_main.obj
 0001:000a6410       ?CL_GetEntityExtraData@@YAPEAUentity_extrainfo_t@@PEAUcl_entity_t@@@Z 00000001400a7410 f   cl_main.obj
 0001:000a6670       ?CL_SetEntityTypeData@@YAXPEAUcl_entity_t@@PEAUentity_extrainfo_t@@W4entity_type_t@@@Z 00000001400a7670 f   cl_main.obj
 0001:000a6850       ?CL_IsHostClient@@YA_NXZ   00000001400a7850 f   cl_main.obj
 0001:000a6870       ?CL_CanPlayGameSounds@@YA_NXZ 00000001400a7870 f   cl_main.obj
 0001:000a6890       ?CL_CheckGameReady@@YA_NXZ 00000001400a7890 f   cl_main.obj
 0001:000a6930       ?CL_InitGame@@YA_NXZ       00000001400a7930 f   cl_main.obj
 0001:000a6ff0       ?CL_UpdateSound@@YAXXZ     00000001400a7ff0 f   cl_main.obj
 0001:000a7020       ?CL_Frame@@YAXXZ           00000001400a8020 f   cl_main.obj
 0001:000a7460       ?CL_SendCmd@@YAXXZ         00000001400a8460 f   cl_main.obj
 0001:000a79a0       ?CL_AddUserCmd@@YAXAEBUusercmd_t@@@Z 00000001400a89a0 f   cl_main.obj
 0001:000a7a70       ?CL_CleanUserCmdHistory@@YAX_K@Z 00000001400a8a70 f   cl_main.obj
 0001:000a7bc0       ?CL_ResetGame@@YAXXZ       00000001400a8bc0 f   cl_main.obj
 0001:000a7eb0       ?CL_Shutdown@@YAXXZ        00000001400a8eb0 f   cl_main.obj
 0001:000a7f10       ?CL_Init@@YA_NXZ           00000001400a8f10 f   cl_main.obj
 0001:000a8d80       ?CL_ResetLighting@@YAXXZ   00000001400a9d80 f   cl_main.obj
 0001:000a8e30       ?CL_IsGameActive@@YA_NXZ   00000001400a9e30 f   cl_main.obj
 0001:000a8e50       ?CL_EstablishConnection@@YA_NPEBD_N@Z 00000001400a9e50 f   cl_main.obj
 0001:000a91d0       ?CL_Disconnect@@YAX_N0@Z   00000001400aa1d0 f   cl_main.obj
 0001:000a9370       ?CL_SendHeartbeat@@YAX_N@Z 00000001400aa370 f   cl_main.obj
 0001:000a9410       ?CL_ClientRegisterUserMessages@@YAXXZ 00000001400aa410 f   cl_msg.obj
 0001:000a9520       ?CL_ReadSoundEngineMessage@@YAXXZ 00000001400aa520 f   cl_msg.obj
 0001:000a9e50       ?CL_RegisterUserMessage@@YAXXZ 00000001400aae50 f   cl_msg.obj
 0001:000aa2f0       ?CL_ReadDecalPrecacheMessage@@YAXXZ 00000001400ab2f0 f   cl_msg.obj
 0001:000aa5d0       ?CL_ReadParticlePrecacheMessage@@YAXXZ 00000001400ab5d0 f   cl_msg.obj
 0001:000aa650       ?CL_ReadUserMessage@@YAXXZ 00000001400ab650 f   cl_msg.obj
 0001:000aa770       ?CL_FileConsistencyMsg@@YAXXZ 00000001400ab770 f   cl_msg.obj
 0001:000aa8a0       ?CL_ReadPacketEntities@@YA_NXZ 00000001400ab8a0 f   cl_msg.obj
 0001:000ae060       ?CL_ResetLatchedState@@YAXPEAUcl_entity_t@@@Z 00000001400af060 f   cl_msg.obj
 0001:000ae460       ?CL_UpdateLatchedState@@YAXPEAUcl_entity_t@@@Z 00000001400af460 f   cl_msg.obj
 0001:000ae800       ?CL_DisconnectMsg@@YAXXZ   00000001400af800 f   cl_msg.obj
 0001:000ae880       ?CL_ReadClientData@@YA_NXZ 00000001400af880 f   cl_msg.obj
 0001:000aea70       ?CL_ReadMoveVars@@YAXXZ    00000001400afa70 f   cl_msg.obj
 0001:000aec00       ?CL_ParseServerInfo@@YA_NXZ 00000001400afc00 f   cl_msg.obj
 0001:000af210       ?CL_ParseClientCommand@@YAXXZ 00000001400b0210 f   cl_msg.obj
 0001:000af320       ?CL_ParseViewSetAngles@@YAXXZ 00000001400b0320 f   cl_msg.obj
 0001:000af5b0       ?CL_ParseAddAVelocity@@YAXXZ 00000001400b05b0 f   cl_msg.obj
 0001:000af860       ?CL_ParseHeartBeat@@YAXXZ  00000001400b0860 f   cl_msg.obj
 0001:000af910       ?CL_ClientUserMessageBegin@@YAXH@Z 00000001400b0910 f   cl_msg.obj
 0001:000af9b0       ?CL_SendPlayerInfo@@YAXXZ  00000001400b09b0 f   cl_msg.obj
 0001:000afb70       ?CL_Msg_WriteUint64@@YAX_K@Z 00000001400b0b70 f   cl_msg.obj
 0001:000afbe0       ?CL_Msg_WriteInt16@@YAXF@Z 00000001400b0be0 f   cl_msg.obj
 0001:000afc50       ?CL_ClientUserMessageEnd@@YAXXZ 00000001400b0c50 f   cl_msg.obj
 0001:000afdd0       ?CL_RegisterClientUserMessage@@YAHPEBDH@Z 00000001400b0dd0 f   cl_msg.obj
 0001:000afdf0       ?CL_Msg_WriteByte@@YAXE@Z  00000001400b0df0 f   cl_msg.obj
 0001:000afe50       ?CL_Msg_WriteSmallFloat@@YAXM@Z 00000001400b0e50 f   cl_msg.obj
 0001:000afed0       ?CL_Msg_WriteBuffer@@YAXPEBEI@Z 00000001400b0ed0 f   cl_msg.obj
 0001:000aff60       ?CL_Msg_WriteUint16@@YAXG@Z 00000001400b0f60 f   cl_msg.obj
 0001:000affd0       ?CL_Msg_WriteEntindex@@YAXH@Z 00000001400b0fd0 f   cl_msg.obj
 0001:000b0030       ?CL_Msg_WriteUint32@@YAXI@Z 00000001400b1030 f   cl_msg.obj
 0001:000b0090       ?CL_Msg_WriteChar@@YAXD@Z  00000001400b1090 f   cl_msg.obj
 0001:000b00f0       ?CL_Msg_WriteString@@YAXPEBD@Z 00000001400b10f0 f   cl_msg.obj
 0001:000b0230       ?CL_ReadMessages@@YA_NXZ   00000001400b1230 f   cl_msg.obj
 0001:000b0f20       ?CL_Msg_WriteDouble@@YAXN@Z 00000001400b1f20 f   cl_msg.obj
 0001:000b0f90       ?CL_Msg_WriteInt32@@YAXH@Z 00000001400b1f90 f   cl_msg.obj
 0001:000b0ff0       ?CL_Msg_WriteFloat@@YAXM@Z 00000001400b1ff0 f   cl_msg.obj
 0001:000b1060       ?CL_Msg_WriteInt64@@YAX_J@Z 00000001400b2060 f   cl_msg.obj
 0001:000b10c0       ?CL_PointContents@@YAHPEAUcl_entity_t@@AEBVVector@@@Z 00000001400b20c0 f   cl_pmove.obj
 0001:000b1230       ?CL_HullForBSP@@YAPEBUhull_t@@HW4hull_types_t@@PEAVVector@@@Z 00000001400b2230 f   cl_pmove.obj
 0001:000b1330       ?CL_PointContents@@YAHAEBVVector@@PEAH@Z 00000001400b2330 f   cl_pmove.obj
 0001:000b1610       ?CL_PlayerTrace@@YAXAEBVVector@@0HW4hull_types_t@@HAEAUtrace_t@@@Z 00000001400b2610 f   cl_pmove.obj
 0001:000b2020       ?CL_TestPlayerPosition@@YAHW4hull_types_t@@HAEBVVector@@@Z 00000001400b3020 f   cl_pmove.obj
 0001:000b20b0       ?CL_TraceTexture@@YAPEBDHAEBVVector@@0@Z 00000001400b30b0 f   cl_pmove.obj
 0001:000b21a0       ?CL_TruePointContents@@YAHAEBVVector@@@Z 00000001400b31a0 f   cl_pmove.obj
 0001:000b21b0       ?CL_TraceModel@@YAMHAEBVVector@@0W4hull_types_t@@HAEAUtrace_t@@@Z 00000001400b31b0 f   cl_pmove.obj
 0001:000b22a0       ?CL_TraceLine@@YAXAEBVVector@@0HW4hull_types_t@@HAEAUtrace_t@@@Z 00000001400b32a0 f   cl_pmove.obj
 0001:000b22b0       ?CL_RunPrediction@@YAXXZ   00000001400b32b0 f   cl_predict.obj
 0001:000b2490       ?CL_PredictPlayer@@YAXAEAUusercmd_t@@AEAUpm_info_t@@_NPEAUcl_entity_t@@@Z 00000001400b3490 f   cl_predict.obj
 0001:000b24e0       ?CL_ReadResourceList@@YA_NXZ 00000001400b34e0 f   cl_resource.obj
 0001:000b3a20       ?CL_ReadFileChunk@@YA_NXZ  00000001400b4a20 f   cl_resource.obj
 0001:000b3e80       ?CL_FinishDownloadedFile@@YA_NXZ 00000001400b4e80 f   cl_resource.obj
 0001:000b4680       ?CL_LoadResources@@YA_NXZ  00000001400b5680 f   cl_resource.obj
 0001:000b4800       ?CL_ReadFileInfo@@YA_NXZ   00000001400b5800 f   cl_resource.obj
 0001:000b4990       ?CL_BeginResourceDownload@@YA_NPEAUcl_resource_t@@@Z 00000001400b5990 f   cl_resource.obj
 0001:000b4ac0       ?CL_GetResourceAbsolutePath@@YA?BVCString@@PEAUcl_resource_t@@@Z 00000001400b5ac0 f   cl_resource.obj
 0001:000b4d10       ?CL_CancelDownload@@YA_NXZ 00000001400b5d10 f   cl_resource.obj
 0001:000b4d60       ?CL_ClearDownload@@YAXXZ   00000001400b5d60 f   cl_resource.obj
 0001:000b4e00       ?CL_GetNextMissingResource@@YAPEAUcl_resource_t@@XZ 00000001400b5e00 f   cl_resource.obj
 0001:000b4e70       ?CL_ReadResourceMessage@@YA_NXZ 00000001400b5e70 f   cl_resource.obj
 0001:000b4ee0       ?CL_ClearResources@@YAXXZ  00000001400b5ee0 f   cl_resource.obj
 0001:000b4f50       ?CL_BeginFilesDownload@@YA_NXZ 00000001400b5f50 f   cl_resource.obj
 0001:000b5080       ?Sentences_GetSoundDuration@@YAMPEBDI@Z 00000001400b6080 f   cl_snd.obj
 0001:000b55a0       ?Sentences_PrecacheSound@@YAHPEBD@Z 00000001400b65a0 f   cl_snd.obj
 0001:000b55f0       ?SetHRTFCommand@CSoundEngine@@QEAAXXZ 00000001400b65f0 f   cl_snd.obj
 0001:000b5690       ?GetSentence@CSoundEngine@@QEBAPEBUsentence_t@CSentencesFile@@H@Z 00000001400b6690 f   cl_snd.obj
 0001:000b5700       ?SetPauseAllSounds@CSoundEngine@@QEAAX_N@Z 00000001400b6700 f   cl_snd.obj
 0001:000b5800       ?LoadSentences@CSoundEngine@@AEAA_NXZ 00000001400b6800 f   cl_snd.obj
 0001:000b5970       ?ApplySoundEffect@CSoundEngine@@QEAAXHPEBDHW4snd_effects_t@@MM@Z 00000001400b6970 f   cl_snd.obj
 0001:000b5d20       ?GetSoundFileForServerIndex@CSoundEngine@@QEAAPEBDH@Z 00000001400b6d20 f   cl_snd.obj
 0001:000b5d70       ?PrecacheOgg@CSoundEngine@@QEAAPEAUsnd_oggcache_t@@PEBDW4rs_level_t@@@Z 00000001400b6d70 f   cl_snd.obj
 0001:000b6080       ?UnPauseOggChannel@CSoundEngine@@QEAAXHM@Z 00000001400b7080 f   cl_snd.obj
 0001:000b6100       ?PauseOggChannel@CSoundEngine@@QEAAXH@Z 00000001400b7100 f   cl_snd.obj
 0001:000b61a0       ?UpdateMusicTrackPlayback@CSoundEngine@@AEAA_NAEAUsnd_music_t@1@PEBUref_params_t@@M@Z 00000001400b71a0 f   cl_snd.obj
 0001:000b6700       ?UpdateMusicPlayback@CSoundEngine@@AEAAXPEBUref_params_t@@M@Z 00000001400b7700 f   cl_snd.obj
 0001:000b6950       ?Stream@CSoundEngine@@AEAA?AW4stream_result_t@1@IAEAUsnd_music_t@1@@Z 00000001400b7950 f   cl_snd.obj
 0001:000b6a60       ?GetSyncOffset@CSoundEngine@@AEAAHPEBUsnd_cache_t@1@I@Z 00000001400b7a60 f   cl_snd.obj
 0001:000b6bf0       ?CalcGain@CSoundEngine@@AEBAMAEBVVector@@PEAUsnd_active_t@1@MM@Z 00000001400b7bf0 f   cl_snd.obj
 0001:000b6df0       ?GetSoundCache@CSoundEngine@@AEAA_NPEBDHAEAPEAUsnd_cache_t@1@AEAPEBUsentence_t@CSentencesFile@@AEAVCString@@@Z 00000001400b7df0 f   cl_snd.obj
 0001:000b7100       ?LoadSoundData@CSoundEngine@@QEAA_NPEBDPEAUsnd_cache_t@1@H_N@Z 00000001400b8100 f   cl_snd.obj
 0001:000b76b0       ?ClearCache@CSoundEngine@@AEAAXXZ 00000001400b86b0 f   cl_snd.obj
 0001:000b7ec0       ?UpdateReverb@CSoundEngine@@AEAAXPEAUref_params_t@@@Z 00000001400b8ec0 f   cl_snd.obj
 0001:000b82e0       ?DrawNormal@CSoundEngine@@QEAA_NXZ 00000001400b92e0 f   cl_snd.obj
 0001:000b8840       ?ShouldPlay@CSoundEngine@@AEBA_NPEAUsnd_active_t@1@AEBVVector@@NHM@Z 00000001400b9840 f   cl_snd.obj
 0001:000b8920       ?CalcMouth16@CSoundEngine@@CAXAEAUsnd_active_t@1@@Z 00000001400b9920 f   cl_snd.obj
 0001:000b89e0       ?CalcMouth8@CSoundEngine@@CAXAEAUsnd_active_t@1@@Z 00000001400b99e0 f   cl_snd.obj
 0001:000b8aa0       ?KillSound@CSoundEngine@@AEAAXAEAUsnd_active_t@1@@Z 00000001400b9aa0 f   cl_snd.obj
 0001:000b8cd0       ?AllocSound@CSoundEngine@@AEAAPEAUsnd_active_t@1@PEBDHHH@Z 00000001400b9cd0 f   cl_snd.obj
 0001:000b8f30       ?RemovePlaying@CSoundEngine@@CAXAEAUsnd_active_t@1@@Z 00000001400b9f30 f   cl_snd.obj
 0001:000b8fa0       ?ResetEngine@CSoundEngine@@QEAAX_N@Z 00000001400b9fa0 f   cl_snd.obj
 0001:000b90c0       ?FreeResources@CSoundEngine@@QEAAXW4rs_level_t@@_N@Z 00000001400ba0c0 f   cl_snd.obj
 0001:000b9570       ?PrintStats@CSoundEngine@@AEAAXXZ 00000001400ba570 f   cl_snd.obj
 0001:000b9660       ?Shutdown@CSoundEngine@@QEAAXXZ 00000001400ba660 f   cl_snd.obj
 0001:000b9800       ??1CSoundEngine@@QEAA@XZ   00000001400ba800 f   cl_snd.obj
 0001:000b9980       ??0CSoundEngine@@QEAA@XZ   00000001400ba980 f   cl_snd.obj
 0001:000b9e10       ?Cmd_SetHRTF@@YAXXZ        00000001400bae10 f   cl_snd.obj
 0001:000b9eb0       ?Cmd_StopMusic@@YAXXZ      00000001400baeb0 f   cl_snd.obj
 0001:000b9ed0       ?Cmd_PlayMusic@@YAXXZ      00000001400baed0 f   cl_snd.obj
 0001:000ba100       ?PrecacheSound@CSoundEngine@@QEAAPEAUsnd_cache_t@1@PEBDHW4rs_level_t@@_N@Z 00000001400bb100 f   cl_snd.obj
 0001:000ba6c0       ?SetMuted@CSoundEngine@@QEAAX_N@Z 00000001400bb6c0 f   cl_snd.obj
 0001:000ba6d0       ?SetActiveReverb@CSoundEngine@@QEAAXH@Z 00000001400bb6d0 f   cl_snd.obj
 0001:000ba6e0       ?StopOgg@CSoundEngine@@QEAAXH_N@Z 00000001400bb6e0 f   cl_snd.obj
 0001:000ba970       ?StopOggFade@CSoundEngine@@QEAAXPEBDHM@Z 00000001400bb970 f   cl_snd.obj
 0001:000bab40       ?PlayOgg@CSoundEngine@@QEAAXPEBDHMHM@Z 00000001400bbb40 f   cl_snd.obj
 0001:000bb140       ?CacheEffect@CSoundEngine@@QEAAXHHHW4snd_effects_t@@MM@Z 00000001400bc140 f   cl_snd.obj
 0001:000bb290       ?CacheMessage@CSoundEngine@@QEAAXPEBVVector@@HHHHHMM_NM@Z 00000001400bc290 f   cl_snd.obj
 0001:000bb770       ?PrecacheServerSound@CSoundEngine@@QEAA_NPEBDH@Z 00000001400bc770 f   cl_snd.obj
 0001:000bbef0       ?IsSoundPlaying@CSoundEngine@@QEAA_NHHH@Z 00000001400bcef0 f   cl_snd.obj
 0001:000bbfa0       ?ApplySoundEffect@CSoundEngine@@QEAAXHHHW4snd_effects_t@@MM@Z 00000001400bcfa0 f   cl_snd.obj
 0001:000bc010       ?StopSound@CSoundEngine@@QEAAXHH@Z 00000001400bd010 f   cl_snd.obj
 0001:000bc140       ?UpdateSound@CSoundEngine@@QEAAXPEBDPEBVVector@@HHMHMPEAUcl_entity_t@@HHM@Z 00000001400bd140 f   cl_snd.obj
 0001:000bc4d0       ?PlaySound@CSoundEngine@@QEAAXPEBDPEBVVector@@HHMHMPEAUcl_entity_t@@HHM@Z 00000001400bd4d0 f   cl_snd.obj
 0001:000bcee0       ?ResetGame@CSoundEngine@@QEAAXXZ 00000001400bdee0 f   cl_snd.obj
 0001:000bcf00       ?Update@CSoundEngine@@QEAAXPEAUref_params_t@@@Z 00000001400bdf00 f   cl_snd.obj
 0001:000be770       ?InitGame@CSoundEngine@@QEAAXXZ 00000001400bf770 f   cl_snd.obj
 0001:000be780       ?Init@CSoundEngine@@QEAA_NXZ 00000001400bf780 f   cl_snd.obj
 0001:000bfbb0       ?FreeEntity@CSoundEngine@@QEAAXH@Z 00000001400c0bb0 f   cl_snd.obj
 0001:000bfd00       ?PlayTempEntitySound@CTempEntityManager@@CAXPEAUtempentity_t@@M@Z 00000001400c0d00 f   cl_tempentities.obj
 0001:000c08e0       ?UpdateTempEntity@CTempEntityManager@@AEBA_NPEAUtempentity_t@@@Z 00000001400c18e0 f   cl_tempentities.obj
 0001:000c12f0       ?UpdateTempEntities@CTempEntityManager@@QEAAXXZ 00000001400c22f0 f   cl_tempentities.obj
 0001:000c1400       ?AllocTempEntity@CTempEntityManager@@QEAAPEAUtempentity_t@@AEBVVector@@PEBUcache_model_t@@@Z 00000001400c2400 f   cl_tempentities.obj
 0001:000c15e0       ?FreeTempEntity@CTempEntityManager@@AEAAXPEAUtempentity_t@@@Z 00000001400c25e0 f   cl_tempentities.obj
 0001:000c16f0       ?FreeActiveTempEntities@CTempEntityManager@@AEAAXXZ 00000001400c26f0 f   cl_tempentities.obj
 0001:000c1820       ?AllocateTempEntities@CTempEntityManager@@AEAAXXZ 00000001400c2820 f   cl_tempentities.obj
 0001:000c18e0       ?DeleteAllTempEntities@CTempEntityManager@@AEAAXXZ 00000001400c28e0 f   cl_tempentities.obj
 0001:000c1970       ??1CTempEntityManager@@QEAA@XZ 00000001400c2970 f   cl_tempentities.obj
 0001:000c1990       ??0CTempEntityManager@@QEAA@XZ 00000001400c2990 f   cl_tempentities.obj
 0001:000c19f0       ?ClearGame@CTempEntityManager@@QEAAXXZ 00000001400c29f0 f   cl_tempentities.obj
 0001:000c1a10       ?Shutdown@CTempEntityManager@@QEAAXXZ 00000001400c2a10 f   cl_tempentities.obj
 0001:000c1a30       ?Init@CTempEntityManager@@QEAA_NXZ 00000001400c2a30 f   cl_tempentities.obj
 0001:000c1b50       ?CreateTempSprite@CTempEntityManager@@QEAAPEAUtempentity_t@@AEBVVector@@0MIHHMMHH@Z 00000001400c2b50 f   cl_tempentities.obj
 0001:000c1d50       ?CreateTempModel@CTempEntityManager@@QEAAPEAUtempentity_t@@AEBVVector@@00MIHMMH@Z 00000001400c2d50 f   cl_tempentities.obj
 0001:000c1ff0       ?CreateSphereModel@CTempEntityManager@@QEAAXAEBVVector@@MMIIMMH@Z 00000001400c2ff0 f   cl_tempentities.obj
 0001:000c25b0       ?CreateBubbleTrail@CTempEntityManager@@QEAAXAEBVVector@@0MIIM@Z 00000001400c35b0 f   cl_tempentities.obj
 0001:000c2e10       ?CreateBubbles@CTempEntityManager@@QEAAXAEBVVector@@0MIIM@Z 00000001400c3e10 f   cl_tempentities.obj
 0001:000c3660       ?CreateBreakModel@CTempEntityManager@@QEAAXAEBVVector@@00IMIIHMMH@Z 00000001400c4660 f   cl_tempentities.obj
 0001:000c4080       ?CreateFunnel@CTempEntityManager@@QEAAXAEBVVector@@0MI_N@Z 00000001400c5080 f   cl_tempentities.obj
 0001:000c4600       ?CL_UILoadSchemaFile@@YAPEAUui_schemeinfo_t@@PEBD@Z 00000001400c5600 f   cl_utils.obj
 0001:000c4630       ?CL_ResetMouse@@YAXXZ      00000001400c5630 f   cl_utils.obj
 0001:000c4640       ?CL_PrecacheSound@@YAHPEBDW4rs_level_t@@@Z 00000001400c5640 f   cl_utils.obj
 0001:000c46a0       ?CL_GetResolutionSchemaFontSet@@YAPEBUfont_set_t@@PEBDI@Z 00000001400c56a0 f   cl_utils.obj
 0001:000c46c0       ?CL_GetSoundFileForServerIndex@@YAPEBDH@Z 00000001400c56c0 f   cl_utils.obj
 0001:000c4710       ?CL_HideMouse@@YAXXZ       00000001400c5710 f   cl_utils.obj
 0001:000c4740       ?CL_GetClientTime@@YANXZ   00000001400c5740 f   cl_utils.obj
 0001:000c4750       ?CL_GetMouseDelta@@YAXAEAH0@Z 00000001400c5750 f   cl_utils.obj
 0001:000c48b0       ?CL_StopMusic@@YAXH@Z      00000001400c58b0 f   cl_utils.obj
 0001:000c48e0       ?CL_PlayEntitySound@@YAXHHAEBVCString@@MMHHM@Z 00000001400c58e0 f   cl_utils.obj
 0001:000c4980       ?CL_PrecacheDecal@@YAXPEBD@Z 00000001400c5980 f   cl_utils.obj
 0001:000c4ce0       ?CL_PlayMusic@@YAXAEBVCString@@HMMH@Z 00000001400c5ce0 f   cl_utils.obj
 0001:000c4d10       ?CL_GetMousePosition@@YAXAEAH0@Z 00000001400c5d10 f   cl_utils.obj
 0001:000c4d20       ?CL_SetShouldHideMouse@@YAX_N@Z 00000001400c5d20 f   cl_utils.obj
 0001:000c4d30       ?CL_PrecacheDecalGroup@@YAXPEBD@Z 00000001400c5d30 f   cl_utils.obj
 0001:000c5090       ?CL_LeafPVS@@YAPEBEAEBUmleaf_t@@@Z 00000001400c6090 f   cl_utils.obj
 0001:000c50c0       ?CL_UpdateMousePositions@@YAXXZ 00000001400c60c0 f   cl_utils.obj
 0001:000c50d0       ?CL_GetNumEntities@@YAHXZ  00000001400c60d0 f   cl_utils.obj
 0001:000c50e0       ?CL_GetBonePosition@@YA?AVVector@@HPEBD@Z 00000001400c60e0 f   cl_utils.obj
 0001:000c51b0       ?CL_GetFrameTime@@YANXZ    00000001400c61b0 f   cl_utils.obj
 0001:000c51c0       ?CL_GetMoveVars@@YAPEBUmovevars_t@@XZ 00000001400c61c0 f   cl_utils.obj
 0001:000c51d0       ?CL_PlayAmbientSound@@YAXHAEBVVector@@HAEBVCString@@MMHHM@Z 00000001400c61d0 f   cl_utils.obj
 0001:000c5240       ?CL_ApplySoundEffect@@YAXHPEBDHW4snd_effects_t@@MM@Z 00000001400c6240 f   cl_utils.obj
 0001:000c5280       ?CL_SetViewAngles@@YAXAEBVVector@@@Z 00000001400c6280 f   cl_utils.obj
 0001:000c52b0       ?CL_GetViewAngles@@YAAEBVVector@@XZ 00000001400c62b0 f   cl_utils.obj
 0001:000c52c0       ?CL_GetSchemaFontSet@@YAPEBUfont_set_t@@PEBD@Z 00000001400c62c0 f   cl_utils.obj
 0001:000c52d0       ?CL_GetAttachment@@YA?AVVector@@HI@Z 00000001400c62d0 f   cl_utils.obj
 0001:000c5390       ?CL_GetLocalPlayer@@YAPEAUcl_entity_t@@XZ 00000001400c6390 f   cl_utils.obj
 0001:000c53b0       ?CL_ShowMouse@@YAXXZ       00000001400c63b0 f   cl_utils.obj
 0001:000c53e0       ?CL_GetMapTextureMaterial@@YAPEBUen_material_t@@PEBD@Z 00000001400c63e0 f   cl_utils.obj
 0001:000c5520       ?CL_GetEntityByIndex@@YAPEAUcl_entity_t@@H@Z 00000001400c6520 f   cl_utils.obj
 0001:000c5590       ?UpdateTextHistory@CConsole@@QEAAXXZ 00000001400c6590 f   console.obj
 0001:000c5610       ?CmdConDump@CConsole@@QEBAXXZ 00000001400c6610 f   console.obj
 0001:000c5b00       ?CmdInputList@CConsole@@QEAAXW4input_type_t@@@Z 00000001400c6b00 f   console.obj
 0001:000c6f60       ?CmdClearHistory@CConsole@@QEAAXXZ 00000001400c7f60 f   console.obj
 0001:000c6fb0       ?ResetTabbing@CConsole@@QEAAXXZ 00000001400c7fb0 f   console.obj
 0001:000c7020       ?GetBestInputChoice@CConsole@@QEAAPEBDPEBD_N@Z 00000001400c8020 f   console.obj
 0001:000c7340       ?CVarSetStringValue@CConsole@@QEAA_NPEBD0@Z 00000001400c8340 f   console.obj
 0001:000c74e0       ?CVarSetFloatValue@CConsole@@QEAA_NPEBDM@Z 00000001400c84e0 f   console.obj
 0001:000c75f0       ?ProcessCommand@CConsole@@QEAA_NXZ 00000001400c85f0 f   console.obj
 0001:000c7af0       ?AddInput@CConsole@@QEAAXW4input_type_t@@PEBD1@Z 00000001400c8af0 f   console.obj
 0001:000c8300       ?ToggleConsole@CConsole@@SAXXZ 00000001400c9300 f   console.obj
 0001:000c83f0       ?IsConsoleVisible@CConsole@@SA_NXZ 00000001400c93f0 f   console.obj
 0001:000c8420       ?HideConsole@CConsole@@SAXXZ 00000001400c9420 f   console.obj
 0001:000c8450       ?ShowConsole@CConsole@@SAXXZ 00000001400c9450 f   console.obj
 0001:000c8500       ?Draw@CConsole@@QEAA_NXZ   00000001400c9500 f   console.obj
 0001:000c9480       ?Think@CConsole@@QEAAXXZ   00000001400ca480 f   console.obj
 0001:000c9940       ?HistoryStepBack@CConsole@@QEAAXXZ 00000001400ca940 f   console.obj
 0001:000c9990       ?HistoryStepForward@CConsole@@QEAAXXZ 00000001400ca990 f   console.obj
 0001:000c9a00       ?GetCurrentInputHistory@CConsole@@QEAAPEBDXZ 00000001400caa00 f   console.obj
 0001:000c9a30       ?ProcessInput@CConsole@@QEAAXPEBD@Z 00000001400caa30 f   console.obj
 0001:000c9bb0       ?AddTextHistory@CConsole@@QEAAXPEBD@Z 00000001400cabb0 f   console.obj
 0001:000c9f20       ?InitGL@CConsole@@QEAA_NXZ 00000001400caf20 f   console.obj
 0001:000c9f70       ?Init@CConsole@@QEAAXXZ    00000001400caf70 f   console.obj
 0001:000ca2b0       ??1CConsole@@QEAA@XZ       00000001400cb2b0 f   console.obj
 0001:000ca430       ??0CConsole@@QEAA@XZ       00000001400cb430 f   console.obj
 0001:000ca590       ?Cmd_ConDump@@YAXXZ        00000001400cb590 f   console.obj
 0001:000ca5a0       ?Cmd_CmdList@@YAXXZ        00000001400cb5a0 f   console.obj
 0001:000ca5b0       ?Cmd_CVarList@@YAXXZ       00000001400cb5b0 f   console.obj
 0001:000ca5c0       ?Cmd_ClearHistory@@YAXXZ   00000001400cb5c0 f   console.obj
 0001:000ca610       ?Cmd_ToggleConsole@@YAXXZ  00000001400cb610 f   console.obj
 0001:000ca620       ?GetCVar@CConsole@@QEAAPEAVCCVar@@PEBD@Z 00000001400cb620 f   console.obj
 0001:000ca720       ?CreateCVar@CConsole@@QEAAPEAVCCVar@@W4cvar_type_t@@HPEBD11P6AXPEAV2@@Z@Z 00000001400cb720 f   console.obj
 0001:000ca990       ?updateRichPresence@@YAXPEBD@Z 00000001400cb990 f   discordrpc.obj
 0001:000cadb0       ?cleanMapName@@YA?AV?$basic_string@DU?$char_traits@D@std@@V?$allocator@D@2@@std@@AEBV12@@Z 00000001400cbdb0 f   discordrpc.obj
 0001:000caec0       ?initializeDiscord@@YAXXZ  00000001400cbec0 f   discordrpc.obj
 0001:000caf10       ?handleDiscordReady@@YAXPEBUDiscordUser@@@Z 00000001400cbf10 f   discordrpc.obj
 0001:000caf40       ?GetEdict@CEdictManager@@QEAAPEAUedict_t@@H@Z 00000001400cbf40 f   edictmanager.obj
 0001:000cafc0       ?ClearEdict@CEdictManager@@CAXPEAUedict_t@@@Z 00000001400cbfc0 f   edictmanager.obj
 0001:000cb0a0       ?FreeEdict@CEdictManager@@QEAAXPEAUedict_t@@@Z 00000001400cc0a0 f   edictmanager.obj
 0001:000cb250       ?AllocEdict@CEdictManager@@QEAAPEAUedict_t@@XZ 00000001400cc250 f   edictmanager.obj
 0001:000cb410       ?AllocIdentifier@CEdictManager@@AEAAIXZ 00000001400cc410 f   edictmanager.obj
 0001:000cb440       ?CreatePlayerEntity@CEdictManager@@QEAAPEAUedict_t@@I@Z 00000001400cc440 f   edictmanager.obj
 0001:000cb4f0       ?LoadEntities@CEdictManager@@QEAA_NPEBD@Z 00000001400cc4f0 f   edictmanager.obj
 0001:000cc6f0       ?ClearEdicts@CEdictManager@@QEAAXXZ 00000001400cd6f0 f   edictmanager.obj
 0001:000cc780       ?AllocEdicts@CEdictManager@@QEAAXXZ 00000001400cd780 f   edictmanager.obj
 0001:000cc870       ??1CEdictManager@@QEAA@XZ  00000001400cd870 f   edictmanager.obj
 0001:000cc8c0       ??0CEdictManager@@QEAA@XZ  00000001400cd8c0 f   edictmanager.obj
 0001:000cc8f0       ?Engine_GetVISBufferSize@@YAIXZ 00000001400cd8f0 f   enginefuncs.obj
 0001:000cc900       ?Engine_GetLevelName@@YAPEBDXZ 00000001400cd900 f   enginefuncs.obj
 0001:000cc990       ?Engine_GetCVarPointer@@YAPEAVCCVar@@PEBD@Z 00000001400cd990 f   enginefuncs.obj
 0001:000cc9a0       ?Engine_Cmd_Argc@@YAIXZ    00000001400cd9a0 f   enginefuncs.obj
 0001:000cc9b0       ?Engine_GetEngineTime@@YANXZ 00000001400cd9b0 f   enginefuncs.obj
 0001:000cc9c0       ?Engine_GetCvarStringValue@@YAPEBDPEBD@Z 00000001400cd9c0 f   enginefuncs.obj
 0001:000cca40       ?Engine_GetMaterialScript@@YAPEBUen_material_t@@PEBD@Z 00000001400cda40 f   enginefuncs.obj
 0001:000cca60       ?Engine_GetCvarFloatValue@@YAMPEBD@Z 00000001400cda60 f   enginefuncs.obj
 0001:000ccad0       ?Engine_CreateCVarCallback@@YAPEAVCCVar@@W4cvar_type_t@@HPEBD11P6AXPEAV1@@Z@Z 00000001400cdad0 f   enginefuncs.obj
 0001:000ccb10       ?Engine_SetCVarString@@YAXPEBD0@Z 00000001400cdb10 f   enginefuncs.obj
 0001:000ccb30       ?Engine_CreateCVar@@YAPEAVCCVar@@W4cvar_type_t@@HPEBD11@Z 00000001400cdb30 f   enginefuncs.obj
 0001:000ccb70       ?Engine_SetCVarFloat@@YAXPEBDM@Z 00000001400cdb70 f   enginefuncs.obj
 0001:000ccb90       ?Engine_LoadModel@@YAPEBUcache_model_t@@PEBD@Z 00000001400cdb90 f   enginefuncs.obj
 0001:000ccba0       ?Engine_PointInLeaf@@YAPEBUmleaf_t@@AEBVVector@@@Z 00000001400cdba0 f   enginefuncs.obj
 0001:000ccbc0       ?Engine_CreateCommand@@YAXPEBDP6AXXZ0@Z 00000001400cdbc0 f   enginefuncs.obj
 0001:000ccbf0       ?Engine_Cmd_Argv@@YAPEBDI@Z 00000001400cdbf0 f   enginefuncs.obj
 0001:000ccc20       ?FL_DeleteFile@@YA_NPEBD@Z 00000001400cdc20 f   file.obj
 0001:000cd0a0       ?FL_LoadFileFromRoot@@YAPEBEPEBDPEAI@Z 00000001400ce0a0 f   file.obj
 0001:000cd6d0       ?FL_WriteFileRoot@@YA_NPEBEIPEBD_N@Z 00000001400ce6d0 f   file.obj
 0001:000cda30       ?FL_WriteLogFile@@YA_NPEBEIPEBD_N@Z 00000001400cea30 f   file.obj
 0001:000cdc10       ?FL_CreateDirectory@@YA_NPEBD@Z 00000001400cec10 f   file.obj
 0001:000ce030       ?FL_FileExists@@YA_NPEBD@Z 00000001400cf030 f   file.obj
 0001:000ce550       ?FL_GetInterface@@YAAEAUfile_interface_t@@XZ 00000001400cf550 f   file.obj
 0001:000ce560       ?FL_LoadFile@@YAPEBEPEBDPEAI@Z 00000001400cf560 f   file.obj
 0001:000ceda0       ?FL_GetFileDate@@YA_NPEBDAEAUfile_dateinfo_t@@@Z 00000001400cfda0 f   file.obj
 0001:000cf3f0       ?FL_FreeFile@@YAXPEBX@Z    00000001400d03f0 f   file.obj
 0001:000cf400       ?FL_CompareFileDates@@YAHAEBUfile_dateinfo_t@@0@Z 00000001400d0400 f   file.obj
 0001:000cf490       ?FL_WriteFile@@YA_NPEBEIPEBD_N@Z 00000001400d0490 f   file.obj
 0001:000cf9f0       ?FWT_Con_Printf@@YAXPEAUwriterthread_t@@PEBDZZ 00000001400d09f0 f   filewriterthread.obj
 0001:000cfb20       ?FileWriterThread@@YAKPEAX@Z 00000001400d0b20 f   filewriterthread.obj
 0001:000d0280       ?FWT_AddFile@@YA_NPEBDPEBEI_N22@Z 00000001400d1280 f   filewriterthread.obj
 0001:000d0660       ?FWT_Shutdown@@YAXXZ       00000001400d1660 f   filewriterthread.obj
 0001:000d06d0       ?FWT_Init@@YAXXZ           00000001400d16d0 f   filewriterthread.obj
 0001:000d0760       ?FWT_GetConsolePrints@@YAXAEAV?$CArray@VCString@@@@@Z 00000001400d1760 f   filewriterthread.obj
 0001:000d0860       ?GatherMaterialResources@CModelCache@@CAXPEAUen_material_t@@AEAV?$CArray@VCString@@@@1@Z 00000001400d1860 f   modelcache.obj
 0001:000d0aa0       ?GatherModelResources@CModelCache@@QEAAXPEBDAEAV?$CArray@Umaptexturematerial_t@@@@AEAV?$CArray@VCString@@@@2@Z 00000001400d1aa0 f   modelcache.obj
 0001:000d10a0       ?GetType@CModelCache@@QEAA?AW4cmodel_type_t@@I@Z 00000001400d20a0 f   modelcache.obj
 0001:000d1110       ?FindModelByName@CModelCache@@QEAAPEAUcache_model_t@@PEBD@Z 00000001400d2110 f   modelcache.obj
 0001:000d1240       ?SetupBSPSubmodels@CModelCache@@AEAAXAEAUbrushmodel_t@@PEBD@Z 00000001400d2240 f   modelcache.obj
 0001:000d2130       ?LoadBSPModel@CModelCache@@AEAAPEAUcache_model_t@@PEBDPEBE@Z 00000001400d3130 f   modelcache.obj
 0001:000d2220       ?LoadVBMModel@CModelCache@@AEAAPEAUcache_model_t@@PEBDPEBEI@Z 00000001400d3220 f   modelcache.obj
 0001:000d2d40       ?LoadSpriteModel@CModelCache@@AEAAPEAUcache_model_t@@PEBDPEBEI@Z 00000001400d3d40 f   modelcache.obj
 0001:000d2f60       ?ClearCache@CModelCache@@QEAAXXZ 00000001400d3f60 f   modelcache.obj
 0001:000d30f0       ?ClearGL@CModelCache@@QEAAXXZ 00000001400d40f0 f   modelcache.obj
 0001:000d3160       ?Init@CModelCache@@QEAAXXZ 00000001400d4160 f   modelcache.obj
 0001:000d31a0       ??1CModelCache@@QEAA@XZ    00000001400d41a0 f   modelcache.obj
 0001:000d3200       ??0CModelCache@@QEAA@XZ    00000001400d4200 f   modelcache.obj
 0001:000d3230       ?Mod_DumpCacheModels@@YAXXZ 00000001400d4230 f   modelcache.obj
 0001:000d32e0       ?Cache_GetModelFrameCount@@YA_KAEBUcache_model_t@@@Z 00000001400d42e0 f   modelcache.obj
 0001:000d33c0       ?LoadModel@CModelCache@@QEAAPEAUcache_model_t@@PEBD@Z 00000001400d43c0 f   modelcache.obj
 0001:000d3620       ?Cache_GetNbModels@@YAIXZ  00000001400d4620 f   modelcache.obj
 0001:000d3630       ?Cache_GetModelBounds@@YAXAEBUcache_model_t@@AEAVVector@@1@Z 00000001400d4630 f   modelcache.obj
 0001:000d36b0       ?Cache_GetModelByName@@YAPEBUcache_model_t@@PEBD@Z 00000001400d46b0 f   modelcache.obj
 0001:000d37f0       ?Cache_GetModelType@@YA?AW4cmodel_type_t@@AEBUcache_model_t@@@Z 00000001400d47f0 f   modelcache.obj
 0001:000d3800       ?Cache_GetModel@@YAPEBUcache_model_t@@H@Z 00000001400d4800 f   modelcache.obj
 0001:000d3820       ?GetModelByIndex@CModelCache@@QEAAPEAUcache_model_t@@I@Z 00000001400d4820 f   modelcache.obj
 0001:000d3880       ?Poll@CNetworking@@UEAAXXZ 00000001400d4880 f   networking.obj
 0001:000d38f0       ?GetIPAddress@CNetworking@@QEAA?AVCString@@I@Z 00000001400d48f0 f   networking.obj
 0001:000d3a90       ?InitClient@CNetworking@@IEAAXIAEAUnet_client_t@@_N@Z 00000001400d4a90 f   networking.obj
 0001:000d3b10       ?CheckBuffer@CNetworking@@KAXAEAUnet_msg_t@@I@Z 00000001400d4b10 f   networking.obj
 0001:000d3bf0       ?WriteDouble@CNetworking@@QEAAXM@Z 00000001400d4bf0 f   networking.obj
 0001:000d3c40       ?WriteSmallFloat@CNetworking@@QEAAXM@Z 00000001400d4c40 f   networking.obj
 0001:000d3cb0       ?WriteInt64@CNetworking@@QEAAX_J@Z 00000001400d4cb0 f   networking.obj
 0001:000d3d10       ?WriteInt32@CNetworking@@QEAAXH@Z 00000001400d4d10 f   networking.obj
 0001:000d3d70       ?WriteInt16@CNetworking@@QEAAXF@Z 00000001400d4d70 f   networking.obj
 0001:000d3dd0       ?ResetClient@CNetworking@@IEAAXAEAUnet_client_t@@@Z 00000001400d4dd0 f   networking.obj
 0001:000d3e60       ?ClearCache@CNetworking@@UEAAXPEAUnet_msgcache_t@@@Z 00000001400d4e60 f   networking.obj
 0001:000d3e70       ?CLS_ClearMessages@CNetworking@@QEAAXI@Z 00000001400d4e70 f   networking.obj
 0001:000d3f40       ?CLS_GetMessage@CNetworking@@QEAA_NIAEAPEAEAEAI@Z 00000001400d4f40 f   networking.obj
 0001:000d4030       ?CLS_MessageEnd_Local@CNetworking@@IEAA_NXZ 00000001400d5030 f   networking.obj
 0001:000d4080       ?CLS_GetWriteCache_Local@CNetworking@@IEAAPEAUnet_msgcache_t@@XZ 00000001400d5080 f   networking.obj
 0001:000d4090       ?SVC_GetWriteCache_Local@CNetworking@@IEAAPEAUnet_msgcache_t@@I@Z 00000001400d5090 f   networking.obj
 0001:000d40e0       ?SVC_MessageEnd_Local@CNetworking@@IEAA_NXZ 00000001400d50e0 f   networking.obj
 0001:000d4180       ?SVC_MessageBegin@CNetworking@@QEAAXW4msgdest_t@@IPEBUedict_t@@H@Z 00000001400d5180 f   networking.obj
 0001:000d4360       ?AllocMsg@CNetworking@@IEAAPEAUnet_msg_t@@PEAUnet_msgcache_t@@@Z 00000001400d5360 f   networking.obj
 0001:000d43d0       ?Init@CNetworking@@UEAA_NPEBD@Z 00000001400d53d0 f   networking.obj
 0001:000d45a0       ??1CNetworking@@UEAA@XZ    00000001400d55a0 f   networking.obj
 0001:000d47c0       ??0CNetworking@@QEAA@XZ    00000001400d57c0 f   networking.obj
 0001:000d4820       ?WriteString@CNetworking@@QEAAXPEBD@Z 00000001400d5820 f   networking.obj
 0001:000d49b0       ?WriteBuffer@CNetworking@@QEAAXPEBEI@Z 00000001400d59b0 f   networking.obj
 0001:000d4a30       ?WriteUint16@CNetworking@@QEAAXG@Z 00000001400d5a30 f   networking.obj
 0001:000d4a90       ?SVC_GetMessage@CNetworking@@QEAA_NAEAPEAEAEAI@Z 00000001400d5a90 f   networking.obj
 0001:000d4b50       ?WriteFloat@CNetworking@@QEAAXM@Z 00000001400d5b50 f   networking.obj
 0001:000d4ba0       ?WriteUint64@CNetworking@@QEAAX_K@Z 00000001400d5ba0 f   networking.obj
 0001:000d4c00       ?WriteUint32@CNetworking@@QEAAXI@Z 00000001400d5c00 f   networking.obj
 0001:000d4c60       ?WriteByte@CNetworking@@QEAAXE@Z 00000001400d5c60 f   networking.obj
 0001:000d4cc0       ?GetInfoString@CNetworking@@QEAAPEBDI@Z 00000001400d5cc0 f   networking.obj
 0001:000d4d30       ?GetClientState@CNetworking@@QEAA?AW4netcl_state_t@@I@Z 00000001400d5d30 f   networking.obj
 0001:000d4da0       ?GetLastMessageTime@CNetworking@@QEAANI@Z 00000001400d5da0 f   networking.obj
 0001:000d4e00       ?CLS_MessageBegin@CNetworking@@QEAAXIH@Z 00000001400d5e00 f   networking.obj
 0001:000d4f80       ?SVC_ClearMessages@CNetworking@@QEAAXXZ 00000001400d5f80 f   networking.obj
 0001:000d5010       ?GetInstance@CNetworking@@SAPEAV1@XZ 00000001400d6010 f   networking.obj
 0001:000d5020       ?CreateInstance@CNetworking@@SAPEAV1@_N@Z 00000001400d6020 f   networking.obj
 0001:000d5150       ?DeleteInstance@CNetworking@@SAXXZ 00000001400d6150 f   networking.obj
 0001:000d5180       ?CLS_MessageEnd@CMPNetworking@@UEAAXXZ 00000001400d6180 f   net_mp.obj
 0001:000d5260       ?SVC_GetWriteCache@CMPNetworking@@UEAAPEAUnet_msgcache_t@@I@Z 00000001400d6260 f   net_mp.obj
 0001:000d52b0       ?SVC_MessageEnd@CMPNetworking@@UEAAXXZ 00000001400d62b0 f   net_mp.obj
 0001:000d5490       ?CLS_GetWriteCache@CMPNetworking@@UEAAPEAUnet_msgcache_t@@XZ 00000001400d6490 f   net_mp.obj
 0001:000d54b0       ?ReadUDPMessage@CMPNetworking@@AEAAXPEAUnet_msgcache_t@@PEAU_ENetEvent@@@Z 00000001400d64b0 f   net_mp.obj
 0001:000d55b0       ?SendUDPMessage@CMPNetworking@@AEAA_NW4msgdest_t@@PEAEIPEAU_ENetPeer@@@Z 00000001400d65b0 f   net_mp.obj
 0001:000d5630       ?RejectClient@CMPNetworking@@EEAAXPEAU_ENetPeer@@PEBD@Z 00000001400d6630 f   net_mp.obj
 0001:000d5760       ?ClientConnect@CMPNetworking@@UEAAXPEAU_ENetEvent@@@Z 00000001400d6760 f   net_mp.obj
 0001:000d5920       ?Poll_Client@CMPNetworking@@EEAAXXZ 00000001400d6920 f   net_mp.obj
 0001:000d5ae0       ?Poll_Host@CMPNetworking@@EEAAXXZ 00000001400d6ae0 f   net_mp.obj
 0001:000d5d10       ?ConnectionLost@CMPNetworking@@AEAAXI@Z 00000001400d6d10 f   net_mp.obj
 0001:000d5db0       ?Disconnect@CMPNetworking@@UEAAXI@Z 00000001400d6db0 f   net_mp.obj
 0001:000d5e30       ?Poll@CMPNetworking@@UEAAXXZ 00000001400d6e30 f   net_mp.obj
 0001:000d5eb0       ?AttemptConnection@CMPNetworking@@UEAA_NXZ 00000001400d6eb0 f   net_mp.obj
 0001:000d6060       ?InitClientNetworking@CMPNetworking@@AEAA_NIPEBD@Z 00000001400d7060 f   net_mp.obj
 0001:000d61e0       ?InitServerNetworking@CMPNetworking@@AEAA_NI@Z 00000001400d71e0 f   net_mp.obj
 0001:000d6270       ?Init@CMPNetworking@@UEAA_NPEBD@Z 00000001400d7270 f   net_mp.obj
 0001:000d63e0       ??1CMPNetworking@@UEAA@XZ  00000001400d73e0 f   net_mp.obj
 0001:000d6490       ??0CMPNetworking@@QEAA@XZ  00000001400d7490 f   net_mp.obj
 0001:000d6540       ?CLS_MessageEnd@CSPNetworking@@UEAAXXZ 00000001400d7540 f   net_sp.obj
 0001:000d6590       ?SVC_GetWriteCache@CSPNetworking@@UEAAPEAUnet_msgcache_t@@I@Z 00000001400d7590 f   net_sp.obj
 0001:000d65e0       ?SVC_MessageEnd@CSPNetworking@@UEAAXXZ 00000001400d75e0 f   net_sp.obj
 0001:000d65f0       ?CLS_GetWriteCache@CSPNetworking@@UEAAPEAUnet_msgcache_t@@XZ 00000001400d75f0 f   net_sp.obj
 0001:000d6600       ?Init@CSPNetworking@@UEAA_NPEBD@Z 00000001400d7600 f   net_sp.obj
 0001:000d6620       ??1CSPNetworking@@UEAA@XZ  00000001400d7620 f   net_sp.obj
 0001:000d6640       ??0CSPNetworking@@QEAA@XZ  00000001400d7640 f   net_sp.obj
 0001:000d66b0       ?PBSPV1_MakeHullZero@@YAXAEAUbrushmodel_t@@@Z 00000001400d76b0 f   pbspv1.obj
 0001:000d6810       ?PBSPV1_CalcSurfaceExtents@@YA_NPEAUmsurface_t@@AEAUbrushmodel_t@@@Z 00000001400d7810 f   pbspv1.obj
 0001:000d6c20       ?PBSPV1_SetNodeParent@@YAXPEAUmnode_t@@0@Z 00000001400d7c20 f   pbspv1.obj
 0001:000d6c60       ?PBSPV1_LoadSubmodels@@YA_NPEBEAEAUbrushmodel_t@@AEBUlump_t@@@Z 00000001400d7c60 f   pbspv1.obj
 0001:000d6e10       ?PBSPV1_LoadEntities@@YA_NPEBEAEAUbrushmodel_t@@AEBUlump_t@@@Z 00000001400d7e10 f   pbspv1.obj
 0001:000d6e70       ?PBSPV1_LoadClipnodes@@YA_NPEBEAEAUbrushmodel_t@@AEBUlump_t@@@Z 00000001400d7e70 f   pbspv1.obj
 0001:000d70a0       ?PBSPV1_LoadNodes@@YA_NPEBEAEAUbrushmodel_t@@AEBUlump_t@@@Z 00000001400d80a0 f   pbspv1.obj
 0001:000d7500       ?PBSPV1_LoadLeafs@@YA_NPEBEAEAUbrushmodel_t@@AEBUlump_t@@@Z 00000001400d8500 f   pbspv1.obj
 0001:000d78d0       ?PBSPV1_LoadVisibility@@YA_NPEBEAEAUbrushmodel_t@@AEBUlump_t@@@Z 00000001400d88d0 f   pbspv1.obj
 0001:000d7950       ?PBSPV1_LoadMarksurfaces@@YA_NPEBEAEAUbrushmodel_t@@AEBUlump_t@@@Z 00000001400d8950 f   pbspv1.obj
 0001:000d7a30       ?PBSPV1_LoadFaces@@YA_NPEBEAEAUbrushmodel_t@@AEBUlump_t@@@Z 00000001400d8a30 f   pbspv1.obj
 0001:000d7d30       ?PBSPV1_LoadTexinfo@@YA_NPEBEAEAUbrushmodel_t@@AEBUlump_t@@@Z 00000001400d8d30 f   pbspv1.obj
 0001:000d7e90       ?PBSPV1_LoadPlanes@@YA_NPEBEAEAUbrushmodel_t@@AEBUlump_t@@@Z 00000001400d8e90 f   pbspv1.obj
 0001:000d81d0       ?PBSPV1_LoadLighting@@YA_NPEBEAEAUbrushmodel_t@@AEBUlump_t@@@Z 00000001400d91d0 f   pbspv1.obj
 0001:000d8280       ?PBSPV1_LoadTextures@@YA_NPEBEAEAUbrushmodel_t@@AEBUlump_t@@@Z 00000001400d9280 f   pbspv1.obj
 0001:000d8af0       ?PBSPV1_LoadSurfedges@@YA_NPEBEAEAUbrushmodel_t@@AEBUlump_t@@@Z 00000001400d9af0 f   pbspv1.obj
 0001:000d8ba0       ?PBSPV1_LoadEdges@@YA_NPEBEAEAUbrushmodel_t@@AEBUlump_t@@@Z 00000001400d9ba0 f   pbspv1.obj
 0001:000d8c90       ?PBSPV1_LoadVertexes@@YA_NPEBEAEAUbrushmodel_t@@AEBUlump_t@@@Z 00000001400d9c90 f   pbspv1.obj
 0001:000d8e70       ?PBSPV1_Load@@YAPEAUbrushmodel_t@@PEBEPEBUdpbspv1header_t@@PEBD@Z 00000001400d9e70 f   pbspv1.obj
 0001:000d9580       ?ApplySegmentNoise@CBeamRenderer@@AEAAXAEAVVector@@IIMIAEBV2@1H@Z 00000001400da580 f   r_beams.obj
 0001:000d97d0       ?SetBeamAttributes@CBeamRenderer@@AEAAXPEAUbeam_t@@MMMMI@Z 00000001400da7d0 f   r_beams.obj
 0001:000d9820       ?BeamSetup@CBeamRenderer@@AEAA_NPEAUbeam_t@@AEBVVector@@1HMMMMMMH@Z 00000001400da820 f   r_beams.obj
 0001:000d9a90       ?AddBeamEntity@CBeamRenderer@@QEAAXPEAUcl_entity_t@@@Z 00000001400daa90 f   r_beams.obj
 0001:000d9cd0       ?GetBeamAttachmentPoint@CBeamRenderer@@AEAA?AVVector@@PEAUcl_entity_t@@H@Z 00000001400dacd0 f   r_beams.obj
 0001:000d9d40       ?GetBeamAttachmentEntity@CBeamRenderer@@AEAAPEAUcl_entity_t@@H@Z 00000001400dad40 f   r_beams.obj
 0001:000d9d50       ?DrawVaporTrailSegments@CBeamRenderer@@AEAAXAEBV?$CArray@Ubeamsegment_t@@@@VVector@@M_NM@Z 00000001400dad50 f   r_beams.obj
 0001:000da510       ?DrawBeamVaporTrail@CBeamRenderer@@AEAAXPEAUbeam_t@@M@Z 00000001400db510 f   r_beams.obj
 0001:000dae10       ?DrawBeamFollow@CBeamRenderer@@AEAAXPEAUbeam_t@@@Z 00000001400dbe10 f   r_beams.obj
 0001:000db740       ?DrawBeam@CBeamRenderer@@AEAAXPEAUbeam_t@@@Z 00000001400dc740 f   r_beams.obj
 0001:000dbeb0       ?BindSprite@CBeamRenderer@@AEAAXPEAUcache_model_t@@PEAUbeam_t@@@Z 00000001400dceb0 f   r_beams.obj
 0001:000dbf50       ?GetSpriteModel@CBeamRenderer@@AEAAPEAUcache_model_t@@H@Z 00000001400dcf50 f   r_beams.obj
 0001:000dbf90       ?DrawBeamRing@CBeamRenderer@@AEAAXAEBVVector@@0MMMMMIHH@Z 00000001400dcf90 f   r_beams.obj
 0001:000dc9d0       ?DrawBeamCylinder@CBeamRenderer@@AEAAXAEBVVector@@0MMMMMI@Z 00000001400dd9d0 f   r_beams.obj
 0001:000dcf70       ?DrawBeamDisk@CBeamRenderer@@AEAAXAEBVVector@@0MMMMMI@Z 00000001400ddf70 f   r_beams.obj
 0001:000dd4b0       ?DrawBeamTorus@CBeamRenderer@@AEAAXAEBVVector@@0MMMMMIHH@Z 00000001400de4b0 f   r_beams.obj
 0001:000ddca0       ?DrawBeamTesla@CBeamRenderer@@AEAAXAEBVVector@@0MMMMMMIHH@Z 00000001400deca0 f   r_beams.obj
 0001:000deb20       ?DrawBeamSegments@CBeamRenderer@@AEAAXAEBVVector@@0MMMMMIHH@Z 00000001400dfb20 f   r_beams.obj
 0001:000df620       ?DrawBeams@CBeamRenderer@@QEAA_NXZ 00000001400e0620 f   r_beams.obj
 0001:000dfe20       ?Update@CBeamRenderer@@QEAAXXZ 00000001400e0e20 f   r_beams.obj
 0001:000dfee0       ?CullBeam@CBeamRenderer@@AEAA_NAEBVVector@@0_N@Z 00000001400e0ee0 f   r_beams.obj
 0001:000e0210       ?AllocBeamPosition@CBeamRenderer@@AEAAPEAUbeam_position_t@@PEAUbeam_t@@@Z 00000001400e1210 f   r_beams.obj
 0001:000e02a0       ?FreeBeamPosition@CBeamRenderer@@AEAAXPEAUbeam_t@@PEAUbeam_position_t@@@Z 00000001400e12a0 f   r_beams.obj
 0001:000e0310       ?AllocateBeamPositions@CBeamRenderer@@AEAAXXZ 00000001400e1310 f   r_beams.obj
 0001:000e0390       ?FreeActiveBeamPositions@CBeamRenderer@@AEAAXPEAUbeam_t@@@Z 00000001400e1390 f   r_beams.obj
 0001:000e0430       ?FindBeamByEntity@CBeamRenderer@@AEAAPEAUbeam_t@@PEBUcl_entity_t@@@Z 00000001400e1430 f   r_beams.obj
 0001:000e0470       ?AllocBeam@CBeamRenderer@@AEAAPEAUbeam_t@@XZ 00000001400e1470 f   r_beams.obj
 0001:000e05a0       ?FreeBeam@CBeamRenderer@@AEAAXPEAUbeam_t@@@Z 00000001400e15a0 f   r_beams.obj
 0001:000e0750       ?AllocateBeams@CBeamRenderer@@AEAAXXZ 00000001400e1750 f   r_beams.obj
 0001:000e0870       ?FreeActiveBeams@CBeamRenderer@@AEAAXXZ 00000001400e1870 f   r_beams.obj
 0001:000e0a60       ?ClearGame@CBeamRenderer@@QEAAXXZ 00000001400e1a60 f   r_beams.obj
 0001:000e0a70       ?InitGame@CBeamRenderer@@QEAA_NXZ 00000001400e1a70 f   r_beams.obj
 0001:000e0a80       ?ClearGL@CBeamRenderer@@QEAAXXZ 00000001400e1a80 f   r_beams.obj
 0001:000e0a90       ?InitGL@CBeamRenderer@@QEAA_NXZ 00000001400e1a90 f   r_beams.obj
 0001:000e0aa0       ?Shutdown@CBeamRenderer@@QEAAXXZ 00000001400e1aa0 f   r_beams.obj
 0001:000e0b30       ?Init@CBeamRenderer@@QEAA_NXZ 00000001400e1b30 f   r_beams.obj
 0001:000e0d80       ??1CBeamRenderer@@QEAA@XZ  00000001400e1d80 f   r_beams.obj
 0001:000e0db0       ??0CBeamRenderer@@QEAA@XZ  00000001400e1db0 f   r_beams.obj
 0001:000e0e20       ?KillEntityBeams@CBeamRenderer@@QEAAXH@Z 00000001400e1e20 f   r_beams.obj
 0001:000e1040       ?BeamVaporTrail@CBeamRenderer@@QEAAPEAUbeam_t@@AEBVVector@@0HHMMMMMMMMMMMH@Z 00000001400e2040 f   r_beams.obj
 0001:000e1520       ?BeamRing@CBeamRenderer@@QEAAPEAUbeam_t@@HHHHHMMMMMMIMMMMH@Z 00000001400e2520 f   r_beams.obj
 0001:000e1700       ?BeamPoints@CBeamRenderer@@QEAAPEAUbeam_t@@AEBVVector@@0HMMMMMMIMMMMH@Z 00000001400e2700 f   r_beams.obj
 0001:000e1850       ?BeamFollow@CBeamRenderer@@QEAAPEAUbeam_t@@HHHMMMMMM@Z 00000001400e2850 f   r_beams.obj
 0001:000e1990       ?BeamEntities@CBeamRenderer@@QEAAPEAUbeam_t@@HHHHHMMMMMMIMMMMH@Z 00000001400e2990 f   r_beams.obj
 0001:000e1b70       ?BeamEntityPoint@CBeamRenderer@@QEAAPEAUbeam_t@@HHAEBVVector@@HMMMMMMIMMMMH@Z 00000001400e2b70 f   r_beams.obj
 0001:000e1d00       ?BeamCirclePoints@CBeamRenderer@@QEAAPEAUbeam_t@@W4beam_types_t@@AEBVVector@@1HMMMMMMIMMMMH@Z 00000001400e2d00 f   r_beams.obj
 0001:000e1e20       ?BeamLightning@CBeamRenderer@@QEAAPEAUbeam_t@@AEBVVector@@0HMMMMMMH@Z 00000001400e2e20 f   r_beams.obj
 0001:000e1f00       ?DrawBlackHoles@CBlackHoleRenderer@@QEAA_NXZ 00000001400e2f00 f   r_blackhole.obj
 0001:000e36b0       ?GetBlackHoleScale@CBlackHoleRenderer@@QEBAMAEBUblackhole_t@1@@Z 00000001400e46b0 f   r_blackhole.obj
 0001:000e3780       ?Think@CBlackHoleRenderer@@QEAAXXZ 00000001400e4780 f   r_blackhole.obj
 0001:000e3840       ?ClearGame@CBlackHoleRenderer@@QEAAXXZ 00000001400e4840 f   r_blackhole.obj
 0001:000e3860       ?ClearGL@CBlackHoleRenderer@@QEAAXXZ 00000001400e4860 f   r_blackhole.obj
 0001:000e38f0       ?InitGL@CBlackHoleRenderer@@QEAA_NXZ 00000001400e48f0 f   r_blackhole.obj
 0001:000e3d40       ?Init@CBlackHoleRenderer@@QEAA_NXZ 00000001400e4d40 f   r_blackhole.obj
 0001:000e41c0       ??1CBlackHoleRenderer@@QEAA@XZ 00000001400e51c0 f   r_blackhole.obj
 0001:000e4200       ??0CBlackHoleRenderer@@QEAA@XZ 00000001400e5200 f   r_blackhole.obj
 0001:000e42d0       ?AffectObject@CBlackHoleRenderer@@QEAA_NAEBVVector@@AEAV2@M@Z 00000001400e52d0 f   r_blackhole.obj
 0001:000e4880       ?KillBlackHole@CBlackHoleRenderer@@QEAAXH@Z 00000001400e5880 f   r_blackhole.obj
 0001:000e4ab0       ?CreateBlackHole@CBlackHoleRenderer@@QEAAXHAEBVVector@@MMMMMM@Z 00000001400e5ab0 f   r_blackhole.obj
 0001:000e4c10       ?InitCableVBOData@CCableRenderer@@AEAAXAEAUcable_object_t@@@Z 00000001400e5c10 f   r_cables.obj
 0001:000e56d0       ?DrawCables@CCableRenderer@@QEAA_NXZ 00000001400e66d0 f   r_cables.obj
 0001:000e5d30       ?ClearGame@CCableRenderer@@QEAAXXZ 00000001400e6d30 f   r_cables.obj
 0001:000e5e00       ?InitGame@CCableRenderer@@QEAA_NXZ 00000001400e6e00 f   r_cables.obj
 0001:000e5ea0       ?ClearGL@CCableRenderer@@QEAAXXZ 00000001400e6ea0 f   r_cables.obj
 0001:000e5ef0       ?InitGL@CCableRenderer@@QEAA_NXZ 00000001400e6ef0 f   r_cables.obj
 0001:000e6380       ?Shutdown@CCableRenderer@@QEAAXXZ 00000001400e7380 f   r_cables.obj
 0001:000e63e0       ?Init@CCableRenderer@@QEAA_NXZ 00000001400e73e0 f   r_cables.obj
 0001:000e63f0       ??1CCableRenderer@@QEAA@XZ 00000001400e73f0 f   r_cables.obj
 0001:000e6490       ??0CCableRenderer@@QEAA@XZ 00000001400e7490 f   r_cables.obj
 0001:000e64e0       ?AddCable@CCableRenderer@@QEAAXAEBVVector@@0III@Z 00000001400e74e0 f   r_cables.obj
 0001:000e6ec0       ?RenderCubemaps@CCubemapManager@@AEAA_NPEAUcl_entity_t@@I@Z 00000001400e7ec0 f   r_cubemaps.obj
 0001:000e8350       ?SaveCubemapFile@CCubemapManager@@AEAAXXZ 00000001400e9350 f   r_cubemaps.obj
 0001:000e8c70       ?VerifyECDFile@CCubemapManager@@AEAA_NPEBUecdheader_t@@@Z 00000001400e9c70 f   r_cubemaps.obj
 0001:000e8e60       ?BuildEntityList@CCubemapManager@@AEAAXPEAPEAUcl_entity_t@@PEAIPEBUentitydata_t@@I@Z 00000001400e9e60 f   r_cubemaps.obj
 0001:000e9760       ?BuildCubemapList@CCubemapManager@@AEAAXPEBUentitydata_t@@I@Z 00000001400ea760 f   r_cubemaps.obj
 0001:000e9b50       ?AddCubemap@CCubemapManager@@QEAAXHAEBVVector@@I@Z 00000001400eab50 f   r_cubemaps.obj
 0001:000e9c00       ?GetInterpolant@CCubemapManager@@QEBAMXZ 00000001400eac00 f   r_cubemaps.obj
 0001:000e9c10       ?GetPrevCubemap@CCubemapManager@@QEAAPEAUcubemapinfo_t@@XZ 00000001400eac10 f   r_cubemaps.obj
 0001:000e9c20       ?GetIdealCubemap@CCubemapManager@@QEAAPEAUcubemapinfo_t@@XZ 00000001400eac20 f   r_cubemaps.obj
 0001:000e9c30       ?BuildCubemaps@CCubemapManager@@QEAAXXZ 00000001400eac30 f   r_cubemaps.obj
 0001:000e9d90       ?Update@CCubemapManager@@QEAAXAEBVVector@@@Z 00000001400ead90 f   r_cubemaps.obj
 0001:000e9fc0       ?Cleanup@CCubemapManager@@AEAAX_N@Z 00000001400eafc0 f   r_cubemaps.obj
 0001:000ea0f0       ?ClearGame@CCubemapManager@@QEAAXXZ 00000001400eb0f0 f   r_cubemaps.obj
 0001:000ea140       ?ClearGL@CCubemapManager@@QEAAXXZ 00000001400eb140 f   r_cubemaps.obj
 0001:000ea150       ?InitGL@CCubemapManager@@QEAA_NXZ 00000001400eb150 f   r_cubemaps.obj
 0001:000ea180       ?Shutdown@CCubemapManager@@QEAAXXZ 00000001400eb180 f   r_cubemaps.obj
 0001:000ea1d0       ?Init@CCubemapManager@@QEAA_NXZ 00000001400eb1d0 f   r_cubemaps.obj
 0001:000ea210       ??1CCubemapManager@@QEAA@XZ 00000001400eb210 f   r_cubemaps.obj
 0001:000ea230       ??0CCubemapManager@@QEAA@XZ 00000001400eb230 f   r_cubemaps.obj
 0001:000ea260       ?Cmd_BuildCubemaps@@YAXXZ  00000001400eb260 f   r_cubemaps.obj
 0001:000ea3b0       ?InitGame@CCubemapManager@@QEAA_NXZ 00000001400eb3b0 f   r_cubemaps.obj
 0001:000ead90       ?Decal_ClipPolygon@@YAIPEBVVector@@HAEBV1@1PEAV1@@Z 00000001400ebd90 f   r_decals.obj
 0001:000eb490       ?FindIntersectionPoint@@YAXAEBVVector@@000AEAV1@@Z 00000001400ec490 f   r_decals.obj
 0001:000eb590       ?PrecacheTexture@CDecalManager@@QEAAXPEBD@Z 00000001400ec590 f   r_decals.obj
 0001:000eb6b0       ?PrecacheGroup@CDecalManager@@QEAAXPEBD@Z 00000001400ec6b0 f   r_decals.obj
 0001:000eb7e0       ?SendDecalToServer@CDecalManager@@AEAAXAEAUcached_decal_t@@@Z 00000001400ec7e0 f   r_decals.obj
 0001:000ebd30       ?LoadTexture@CDecalManager@@SAXPEAUdecalgroupentry_t@@@Z 00000001400ecd30 f   r_decals.obj
 0001:000ebf30       ?CreateCached@CDecalManager@@QEAAXXZ 00000001400ecf30 f   r_decals.obj
 0001:000ec8c0       ?FindLeaf@CDecalManager@@CAXPEAUcached_decal_t@@@Z 00000001400ed8c0 f   r_decals.obj
 0001:000ecab0       ?DrawBogusDecals@CDecalManager@@QEAA_NXZ 00000001400edab0 f   r_decals.obj
 0001:000ed050       ?ClearGame@CDecalManager@@QEAAXXZ 00000001400ee050 f   r_decals.obj
 0001:000ed0f0       ?InitGame@CDecalManager@@QEAA_NXZ 00000001400ee0f0 f   r_decals.obj
 0001:000ed4a0       ?Init@CDecalManager@@QEAAXXZ 00000001400ee4a0 f   r_decals.obj
 0001:000ed710       ??1CDecalManager@@QEAA@XZ  00000001400ee710 f   r_decals.obj
 0001:000ed7b0       ??0CDecalManager@@QEAA@XZ  00000001400ee7b0 f   r_decals.obj
 0001:000ed880       ?AddCached@CDecalManager@@QEAAXPEAUdecalgroupentry_t@@PEBDAEBVVector@@2HHMMM@Z 00000001400ee880 f   r_decals.obj
 0001:000edd00       ?R_CheckShadowmapSizeCvarCallBack@@YAXPEAVCCVar@@@Z 00000001400eed00 f   r_dlights.obj
 0001:000edda0       ?DL_CanShadow@@YA_NPEBUcl_dlight_t@@@Z 00000001400eeda0 f   r_dlights.obj
 0001:000ede10       ?DL_IsLightVisible@@YA_NAEBVCFrustum@@AEBVVector@@1PEAUcl_dlight_t@@@Z 00000001400eee10 f   r_dlights.obj
 0001:000edeb0       ?GetCubeShadowmapSize@CDynamicLightManager@@QEBAHXZ 00000001400eeeb0 f   r_dlights.obj
 0001:000edec0       ?GetShadowmapSize@CDynamicLightManager@@QEBAHXZ 00000001400eeec0 f   r_dlights.obj
 0001:000eded0       ?ShouldRedrawShadowMap@CDynamicLightManager@@CA_NPEAUcl_dlight_t@@PEAUdlight_sceneinfo_t@@_N@Z 00000001400eeed0 f   r_dlights.obj
 0001:000eeb30       ?GetLightByKey@CDynamicLightManager@@AEAAPEAUcl_dlight_t@@HH@Z 00000001400efb30 f   r_dlights.obj
 0001:000eeb80       ?SetupLight@CDynamicLightManager@@AEAAXPEAUcl_dlight_t@@_N11PEAUcl_entity_t@@@Z 00000001400efb80 f   r_dlights.obj
 0001:000eedf0       ?ClearGame@CDynamicLightManager@@QEAAXXZ 00000001400efdf0 f   r_dlights.obj
 0001:000eef60       ?Update@CDynamicLightManager@@QEAA_NXZ 00000001400eff60 f   r_dlights.obj
 0001:000ef300       ?FreeDynamicLight@CDynamicLightManager@@AEAAXPEAUcl_dlight_t@@_N@Z 00000001400f0300 f   r_dlights.obj
 0001:000ef3b0       ?DrawCubemapPass@CDynamicLightManager@@AEAA_NPEAUcl_dlight_t@@VVector@@HPEAPEAUcl_entity_t@@H_N@Z 00000001400f03b0 f   r_dlights.obj
 0001:000f00c0       ?DrawProjectivePass@CDynamicLightManager@@AEAA_NPEAUcl_dlight_t@@PEAPEAUcl_entity_t@@H_N@Z 00000001400f10c0 f   r_dlights.obj
 0001:000f0e20       ?DrawShadowMapPasses@CDynamicLightManager@@AEAA_NPEAUcl_dlight_t@@PEAPEAUcl_entity_t@@H_N@Z 00000001400f1e20 f   r_dlights.obj
 0001:000f1050       ?DrawPasses@CDynamicLightManager@@QEAA_NXZ 00000001400f2050 f   r_dlights.obj
 0001:000f19d0       ?UpdateLights@CDynamicLightManager@@AEAAXXZ 00000001400f29d0 f   r_dlights.obj
 0001:000f2200       ?SetVIS@CDynamicLightManager@@QEAAXXZ 00000001400f3200 f   r_dlights.obj
 0001:000f2400       ?ClearShadowMaps@CDynamicLightManager@@AEAAXXZ 00000001400f3400 f   r_dlights.obj
 0001:000f27b0       ?DeleteFBOs@CDynamicLightManager@@AEAAXXZ 00000001400f37b0 f   r_dlights.obj
 0001:000f2850       ?ReleaseShadowmapBlitFBOs@CDynamicLightManager@@AEAAXAEAUshadowmap_t@@@Z 00000001400f3850 f   r_dlights.obj
 0001:000f2920       ?CreateShadowmapBlitFBOs@CDynamicLightManager@@AEAA_NAEAUshadowmap_t@@II@Z 00000001400f3920 f   r_dlights.obj
 0001:000f2c70       ?ClearCubemapShadowMap@CDynamicLightManager@@QEAAXPEAUshadowmap_t@@@Z 00000001400f3c70 f   r_dlights.obj
 0001:000f2c90       ?ClearProjectiveShadowMap@CDynamicLightManager@@QEAAXPEAUshadowmap_t@@@Z 00000001400f3c90 f   r_dlights.obj
 0001:000f2cb0       ?CreateCubemapFBO@CDynamicLightManager@@AEAA_NAEAUshadowmap_t@@@Z 00000001400f3cb0 f   r_dlights.obj
 0001:000f2eb0       ?CreateProjectiveFBO@CDynamicLightManager@@AEAA_NAEAUshadowmap_t@@@Z 00000001400f3eb0 f   r_dlights.obj
 0001:000f3060       ?AllocCubemapShadowMap@CDynamicLightManager@@AEAAPEAUshadowmap_t@@_N@Z 00000001400f4060 f   r_dlights.obj
 0001:000f3160       ?AllocProjectiveShadowMap@CDynamicLightManager@@AEAAPEAUshadowmap_t@@_N@Z 00000001400f4160 f   r_dlights.obj
 0001:000f33f0       ?InitFBOs@CDynamicLightManager@@AEAA_NXZ 00000001400f43f0 f   r_dlights.obj
 0001:000f3a30       ?CheckFBOs@CDynamicLightManager@@AEAA_NXZ 00000001400f4a30 f   r_dlights.obj
 0001:000f3db0       ?ApplyLightStyle@CDynamicLightManager@@QEAAXPEAUcl_dlight_t@@AEAVVector@@@Z 00000001400f4db0 f   r_dlights.obj
 0001:000f3e40       ?AnimateStyles@CDynamicLightManager@@AEAAXXZ 00000001400f4e40 f   r_dlights.obj
 0001:000f4050       ?AddLightStyle@CDynamicLightManager@@AEAAXIH_NPEBD@Z 00000001400f5050 f   r_dlights.obj
 0001:000f41d0       ?ResetStyles@CDynamicLightManager@@AEAAXXZ 00000001400f51d0 f   r_dlights.obj
 0001:000f4240       ?SetDefaultStyles@CDynamicLightManager@@AEAAXXZ 00000001400f5240 f   r_dlights.obj
 0001:000f43b0       ?InitGame@CDynamicLightManager@@QEAA_NXZ 00000001400f53b0 f   r_dlights.obj
 0001:000f4520       ?Shutdown@CDynamicLightManager@@QEAAXXZ 00000001400f5520 f   r_dlights.obj
 0001:000f4550       ?ClearGL@CDynamicLightManager@@QEAAXXZ 00000001400f5550 f   r_dlights.obj
 0001:000f46c0       ?InitGL@CDynamicLightManager@@QEAA_NXZ 00000001400f56c0 f   r_dlights.obj
 0001:000f4d60       ?Init@CDynamicLightManager@@QEAA_NXZ 00000001400f5d60 f   r_dlights.obj
 0001:000f54c0       ??1CDynamicLightManager@@QEAA@XZ 00000001400f64c0 f   r_dlights.obj
 0001:000f5580       ??0CDynamicLightManager@@QEAA@XZ 00000001400f6580 f   r_dlights.obj
 0001:000f56d0       ?ReleaseEntityDynamicLights@CDynamicLightManager@@QEAAXH@Z 00000001400f66d0 f   r_dlights.obj
 0001:000f59a0       ?AddCustomLightStyle@CDynamicLightManager@@QEAAXIH_NPEBD@Z 00000001400f69a0 f   r_dlights.obj
 0001:000f59d0       ?AllocDynamicSpotlight@CDynamicLightManager@@QEAAPEAUcl_dlight_t@@HH_N0PEAUcl_entity_t@@@Z 00000001400f69d0 f   r_dlights.obj
 0001:000f5d60       ?AllocDynamicPointLight@CDynamicLightManager@@QEAAPEAUcl_dlight_t@@HH_N0PEAUcl_entity_t@@@Z 00000001400f6d60 f   r_dlights.obj
 0001:000f60f0       ?DrawAuras@CGlowAura@@QEAA_NXZ 00000001400f70f0 f   r_glowaura.obj
 0001:000f6ac0       ?DrawFinal@CGlowAura@@AEAA_NXZ 00000001400f7ac0 f   r_glowaura.obj
 0001:000f6c90       ?BlurTexture@CGlowAura@@AEAA_NXZ 00000001400f7c90 f   r_glowaura.obj
 0001:000f6fe0       ?DrawColors@CGlowAura@@AEAA_NXZ 00000001400f7fe0 f   r_glowaura.obj
 0001:000f72d0       ?DrawSolid@CGlowAura@@AEAA_NXZ 00000001400f82d0 f   r_glowaura.obj
 0001:000f7460       ?GetEntities@CGlowAura@@AEAAXXZ 00000001400f8460 f   r_glowaura.obj
 0001:000f7590       ?ClearGL@CGlowAura@@QEAAXXZ 00000001400f8590 f   r_glowaura.obj
 0001:000f7630       ?InitGL@CGlowAura@@QEAA_NXZ 00000001400f8630 f   r_glowaura.obj
 0001:000f7b60       ?Shutdown@CGlowAura@@QEAAXXZ 00000001400f8b60 f   r_glowaura.obj
 0001:000f7b80       ?Init@CGlowAura@@QEAA_NXZ  00000001400f8b80 f   r_glowaura.obj
 0001:000f7e20       ??1CGlowAura@@QEAA@XZ      00000001400f8e20 f   r_glowaura.obj
 0001:000f7e30       ??0CGlowAura@@QEAA@XZ      00000001400f8e30 f   r_glowaura.obj
 0001:000f7ec0       ?R_ReleaseRenderPassQueryObjects@@YAXIW4querytype_t@@@Z 00000001400f8ec0 f   r_glqueries.obj
 0001:000f8000       ?R_ReleaseQueryObject@@YAXPEAUglowquery_t@@@Z 00000001400f9000 f   r_glqueries.obj
 0001:000f8020       ?R_CalcOcclusionFactor@@YAMAEBVVector@@HMMMIW4querytype_t@@AEAUglowstate_t@@_N333PEAY03MPEAXP6AX5@ZP6AX50@Z@Z 00000001400f9020 f   r_glqueries.obj
 0001:000f8ba0       ?R_AllocQueryObject@@YAPEAUglowquery_t@@HIIW4querytype_t@@@Z 00000001400f9ba0 f   r_glqueries.obj
 0001:000f8e00       ?R_ClearQueryObjects@@YAXXZ 00000001400f9e00 f   r_glqueries.obj
 0001:000f8f30       ?R_InitQueryObjects@@YAXXZ 00000001400f9f30 f   r_glqueries.obj
 0001:000f8f60       ?R_IF_ValidateBasicDraw@@YAXXZ 00000001400f9f60 f   r_interfacefuncs.obj
 0001:000f8f90       ?R_IF_ValidateShader@@YAXPEAVCGLSLShader@@@Z 00000001400f9f90 f   r_interfacefuncs.obj
 0001:000f8fb0       ?R_GetRenderEntityByIndex@@YAPEAUcl_entity_t@@I@Z 00000001400f9fb0 f   r_interfacefuncs.obj
 0001:000f8fd0       ?R_GetNumRenderEntities@@YAIXZ 00000001400f9fd0 f   r_interfacefuncs.obj
 0001:000f8fe0       ?R_DrawVBMModelVSM@@YA_NPEAUcl_entity_t@@PEAUcl_dlight_t@@@Z 00000001400f9fe0 f   r_interfacefuncs.obj
 0001:000f9000       ?R_VBMGetShaderError@@YAPEBDXZ 00000001400fa000 f   r_interfacefuncs.obj
 0001:000f9030       ?R_VBMEndVSMDraw@@YAXXZ    00000001400fa030 f   r_interfacefuncs.obj
 0001:000f9040       ?R_VBMPrepareVSMDraw@@YA_NPEAUcl_dlight_t@@@Z 00000001400fa040 f   r_interfacefuncs.obj
 0001:000f9050       ?R_DrawVBMModel@@YA_NPEAUcl_entity_t@@H@Z 00000001400fa050 f   r_interfacefuncs.obj
 0001:000f9060       ?R_VBMEndDraw@@YAXXZ       00000001400fa060 f   r_interfacefuncs.obj
 0001:000f9070       ?R_VBMPrepareDraw@@YA_NXZ  00000001400fa070 f   r_interfacefuncs.obj
 0001:000f9080       ?R_GetStringDrawError@@YAPEBDXZ 00000001400fa080 f   r_interfacefuncs.obj
 0001:000f90b0       ?R_SetStringRectangle@@YAXFFFFHH@Z 00000001400fa0b0 f   r_interfacefuncs.obj
 0001:000f9100       ?R_EstimateStringHeight@@YAHPEBUfont_set_t@@PEBDI@Z 00000001400fa100 f   r_interfacefuncs.obj
 0001:000f9120       ?R_GetStringSize@@YAXPEBUfont_set_t@@PEBDPEAI2PEAH@Z 00000001400fa120 f   r_interfacefuncs.obj
 0001:000f91f0       ?R_BasicDrawIsActive@@YA_NXZ 00000001400fa1f0 f   r_interfacefuncs.obj
 0001:000f9210       ?R_GetScreenSize@@YAXAEAI0@Z 00000001400fa210 f   r_interfacefuncs.obj
 0001:000f9240       ?R_LoadFontSet@@YAPEBUfont_set_t@@PEBDH@Z 00000001400fa240 f   r_interfacefuncs.obj
 0001:000f9270       ?R_GetDefaultFontSet@@YAPEBUfont_set_t@@XZ 00000001400fa270 f   r_interfacefuncs.obj
 0001:000f9280       ?R_GetViewParams@@YAAEBUref_params_t@@XZ 00000001400fa280 f   r_interfacefuncs.obj
 0001:000f9290       ?R_GetModelViewMatrix@@YAAEAVCMatrix@@XZ 00000001400fa290 f   r_interfacefuncs.obj
 0001:000f92a0       ?R_GetProjectionMatrix@@YAAEAVCMatrix@@XZ 00000001400fa2a0 f   r_interfacefuncs.obj
 0001:000f92b0       ?R_GetExportFunctionsClass@@YAAEBVCGLExtF@@XZ 00000001400fa2b0 f   r_interfacefuncs.obj
 0001:000f92c0       ?R_BasicDrawVertex3fv@@YAXPEBM@Z 00000001400fa2c0 f   r_interfacefuncs.obj
 0001:000f92e0       ?R_BasicDrawVertex3f@@YAXMMM@Z 00000001400fa2e0 f   r_interfacefuncs.obj
 0001:000f9320       ?R_BasicDrawTexCoord2fv@@YAXPEBM@Z 00000001400fa320 f   r_interfacefuncs.obj
 0001:000f9390       ?R_BasicDrawTexCoord2f@@YAXMM@Z 00000001400fa390 f   r_interfacefuncs.obj
 0001:000f93b0       ?R_BasicDrawColor4fv@@YAXPEBM@Z 00000001400fa3b0 f   r_interfacefuncs.obj
 0001:000f93e0       ?R_BasicDrawColor4f@@YAXMMMM@Z 00000001400fa3e0 f   r_interfacefuncs.obj
 0001:000f9410       ?R_BasicDrawSetModelView@@YAXPEBM@Z 00000001400fa410 f   r_interfacefuncs.obj
 0001:000f9430       ?R_BasicDrawSetProjection@@YAXPEBM@Z 00000001400fa430 f   r_interfacefuncs.obj
 0001:000f9450       ?R_BasicDrawEnd@@YAXXZ     00000001400fa450 f   r_interfacefuncs.obj
 0001:000f9470       ?R_BasicDrawBegin@@YAXH@Z  00000001400fa470 f   r_interfacefuncs.obj
 0001:000f9490       ?R_BasicDrawDisableTextures@@YA_NXZ 00000001400fa490 f   r_interfacefuncs.obj
 0001:000f94f0       ?R_BasicDrawEnableTextures@@YA_NXZ 00000001400fa4f0 f   r_interfacefuncs.obj
 0001:000f9550       ?R_DisableBasicDraw@@YAXXZ 00000001400fa550 f   r_interfacefuncs.obj
 0001:000f95a0       ?R_EnableBasicDraw@@YA_NXZ 00000001400fa5a0 f   r_interfacefuncs.obj
 0001:000f95c0       ?R_LoadMaterialScript@@YAPEAUen_material_t@@PEBDW4rs_level_t@@@Z 00000001400fa5c0 f   r_interfacefuncs.obj
 0001:000f95f0       ?R_LoadTextureFromMemory@@YAPEAUen_texture_t@@PEBDW4rs_level_t@@HPEBEIII@Z 00000001400fa5f0 f   r_interfacefuncs.obj
 0001:000f9650       ?R_LoadTexture@@YAPEAUen_texture_t@@PEBDW4rs_level_t@@HPEBH@Z 00000001400fa650 f   r_interfacefuncs.obj
 0001:000f9680       ?R_AllocTextureIndex@@YAPEAUen_texalloc_t@@W4rs_level_t@@@Z 00000001400fa680 f   r_interfacefuncs.obj
 0001:000f96a0       ?R_GetDummyMaterial@@YAPEAUen_material_t@@XZ 00000001400fa6a0 f   r_interfacefuncs.obj
 0001:000f96c0       ?R_GetDummyTexture@@YAPEAUen_texture_t@@XZ 00000001400fa6c0 f   r_interfacefuncs.obj
 0001:000f96e0       ?R_InitRenderInterface@@YAXAEAUr_interface_t@@@Z 00000001400fa6e0 f   r_interfacefuncs.obj
 0001:000f9760       ?LF_DrawFunction@@YAXPEAXAEBVVector@@@Z 00000001400fa760 f   r_lensflare.obj
 0001:000f9820       ?LF_PreRender@@YAXPEAX@Z   00000001400fa820 f   r_lensflare.obj
 0001:000f9830       ?DrawFunction@CLensFlareRenderer@@QEAAXAEBVVector@@@Z 00000001400fa830 f   r_lensflare.obj
 0001:000f98f0       ?PreDrawFunction@CLensFlareRenderer@@QEAAXXZ 00000001400fa8f0 f   r_lensflare.obj
 0001:000f9b70       ?DrawQuad@CLensFlareRenderer@@AEAAXAEBVVector@@0PEAUen_texture_t@@MM@Z 00000001400fab70 f   r_lensflare.obj
 0001:000fa130       ?DrawLensFlare@CLensFlareRenderer@@AEAA_NHAEBVVector@@0MMAEAUglowstate_t@@H_N2@Z 00000001400fb130 f   r_lensflare.obj
 0001:000fac20       ?DrawLensFlares@CLensFlareRenderer@@QEAA_NXZ 00000001400fbc20 f   r_lensflare.obj
 0001:000fb290       ?DrawSunFlare@CLensFlareRenderer@@AEAAXAEAUsunflare_t@1@@Z 00000001400fc290 f   r_lensflare.obj
 0001:000fb430       ?ClearGame@CLensFlareRenderer@@QEAAXXZ 00000001400fc430 f   r_lensflare.obj
 0001:000fb4a0       ?InitGame@CLensFlareRenderer@@QEAA_NXZ 00000001400fc4a0 f   r_lensflare.obj
 0001:000fb6c0       ?Shutdown@CLensFlareRenderer@@QEAAXXZ 00000001400fc6c0 f   r_lensflare.obj
 0001:000fb6d0       ?Init@CLensFlareRenderer@@QEAA_NXZ 00000001400fc6d0 f   r_lensflare.obj
 0001:000fbb50       ??1CLensFlareRenderer@@QEAA@XZ 00000001400fcb50 f   r_lensflare.obj
 0001:000fbbc0       ??0CLensFlareRenderer@@QEAA@XZ 00000001400fcbc0 f   r_lensflare.obj
 0001:000fbc50       ?SetSunFlare@CLensFlareRenderer@@QEAAXH_NMMMAEBVVector@@0@Z 00000001400fcc50 f   r_lensflare.obj
 0001:000fbe40       ?GetShaderError@CMenuParticles@@QEAAPEBDXZ 00000001400fce40 f   r_menuparticles.obj
 0001:000fbe70       ?BatchVertex@CMenuParticles@@AEAAXAEBVVector@@0MMM@Z 00000001400fce70 f   r_menuparticles.obj
 0001:000fbf00       ?SpawnParticle@CMenuParticles@@AEAA_NMM_N@Z 00000001400fcf00 f   r_menuparticles.obj
 0001:000fc2a0       ?KillParticles@CMenuParticles@@QEAAXXZ 00000001400fd2a0 f   r_menuparticles.obj
 0001:000fc320       ?StartParticles@CMenuParticles@@QEAAXXZ 00000001400fd320 f   r_menuparticles.obj
 0001:000fc410       ?Think@CMenuParticles@@QEAAXXZ 00000001400fd410 f   r_menuparticles.obj
 0001:000fcb10       ?Draw@CMenuParticles@@QEAA_NXZ 00000001400fdb10 f   r_menuparticles.obj
 0001:000fd700       ?ClearGL@CMenuParticles@@QEAAXXZ 00000001400fe700 f   r_menuparticles.obj
 0001:000fd790       ?InitGL@CMenuParticles@@QEAA_NXZ 00000001400fe790 f   r_menuparticles.obj
 0001:000fdbd0       ?Init@CMenuParticles@@QEAA_NXZ 00000001400febd0 f   r_menuparticles.obj
 0001:000fdcb0       ??1CMenuParticles@@QEAA@XZ 00000001400fecb0 f   r_menuparticles.obj
 0001:000fdcf0       ??0CMenuParticles@@QEAA@XZ 00000001400fecf0 f   r_menuparticles.obj
 0001:000fddc0       ?GetVertexNormal@CNormalSmoothing@@QEAAPEBVVector@@I@Z 00000001400fedc0 f   r_nsmoothing.obj
 0001:000fde30       ?ManageVertex@CNormalSmoothing@@QEAAXAEBVVector@@0I@Z 00000001400fee30 f   r_nsmoothing.obj
 0001:000fdee0       ?RecursiveAddVertex@CNormalSmoothing@@AEAAPEAUvertexnode_t@1@PEAU21@AEBVVector@@1H@Z 00000001400feee0 f   r_nsmoothing.obj
 0001:000fe120       ?CreateVertexNode@CNormalSmoothing@@AEAAPEAUvertexnode_t@1@AEBVVector@@0H@Z 00000001400ff120 f   r_nsmoothing.obj
 0001:000fe590       ??1CNormalSmoothing@@QEAA@XZ 00000001400ff590 f   r_nsmoothing.obj
 0001:000fe690       ??0CNormalSmoothing@@QEAA@AEBVVector@@0IM@Z 00000001400ff690 f   r_nsmoothing.obj
 0001:000fe780       ?DrawPortals@CPortalManager@@QEAA_NXZ 00000001400ff780 f   r_portals.obj
 0001:000fed90       ?FinishPortalPass@CPortalManager@@AEAAXXZ 00000001400ffd90 f   r_portals.obj
 0001:000feea0       ?SetupPortalPass@CPortalManager@@AEAA_NXZ 00000001400ffea0 f   r_portals.obj
 0001:000ff540       ?GetMatchingPortal@CPortalManager@@QEAAPEAUcl_portal_t@@IAEAVCFrustum@@@Z 0000000140100540 f   r_portals.obj
 0001:000ff600       ?DrawPortalPasses@CPortalManager@@QEAA_NXZ 0000000140100600 f   r_portals.obj
 0001:000ffbf0       ?AllocNewPortal@CPortalManager@@QEAAXPEAUcl_entity_t@@@Z 0000000140100bf0 f   r_portals.obj
 0001:00100fe0       ?CreatePortalTexture@CPortalManager@@CA_NPEAUcl_portal_t@@@Z 0000000140101fe0 f   r_portals.obj
 0001:001010d0       ?ClearGL@CPortalManager@@QEAAXXZ 00000001401020d0 f   r_portals.obj
 0001:00101180       ?InitGL@CPortalManager@@QEAA_NXZ 0000000140102180 f   r_portals.obj
 0001:00101510       ?ClearGame@CPortalManager@@QEAAXXZ 0000000140102510 f   r_portals.obj
 0001:001016b0       ?InitGame@CPortalManager@@QEAA_NXZ 00000001401026b0 f   r_portals.obj
 0001:001016c0       ?Shutdown@CPortalManager@@QEAAXXZ 00000001401026c0 f   r_portals.obj
 0001:001016f0       ?Init@CPortalManager@@QEAA_NXZ 00000001401026f0 f   r_portals.obj
 0001:00101940       ??1CPortalManager@@QEAA@XZ 0000000140102940 f   r_portals.obj
 0001:00101980       ??0CPortalManager@@QEAA@XZ 0000000140102980 f   r_portals.obj
 0001:00101a60       ?FindSkySet@CSkyRenderer@@AEAAHH@Z 0000000140102a60 f   r_sky.obj
 0001:00101ae0       ?LoadSkyTextures@CSkyRenderer@@AEAAXPEBDPEAPEAUen_texture_t@@@Z 0000000140102ae0 f   r_sky.obj
 0001:001020f0       ?DrawSky@CSkyRenderer@@QEAA_NXZ 00000001401030f0 f   r_sky.obj
 0001:00103800       ?PreFrame@CSkyRenderer@@QEAAXXZ 0000000140104800 f   r_sky.obj
 0001:00103820       ?CreateVBO@CSkyRenderer@@AEAAXXZ 0000000140104820 f   r_sky.obj
 0001:00103f60       ?ClearGame@CSkyRenderer@@QEAAXXZ 0000000140104f60 f   r_sky.obj
 0001:00104050       ?InitGame@CSkyRenderer@@QEAA_NXZ 0000000140105050 f   r_sky.obj
 0001:00104110       ?ClearGL@CSkyRenderer@@QEAAXXZ 0000000140105110 f   r_sky.obj
 0001:00104170       ?InitGL@CSkyRenderer@@QEAA_NXZ 0000000140105170 f   r_sky.obj
 0001:001044a0       ?Shutdown@CSkyRenderer@@QEAAXXZ 00000001401054a0 f   r_sky.obj
 0001:00104500       ?Init@CSkyRenderer@@QEAA_NXZ 0000000140105500 f   r_sky.obj
 0001:00104760       ??1CSkyRenderer@@QEAA@XZ   0000000140105760 f   r_sky.obj
 0001:00104800       ??0CSkyRenderer@@QEAA@XZ   0000000140105800 f   r_sky.obj
 0001:00104890       ?SetCurrentSkySet@CSkyRenderer@@QEAAXH@Z 0000000140105890 f   r_sky.obj
 0001:001048f0       ?SetSkyTexture@CSkyRenderer@@QEAAXH@Z 00000001401058f0 f   r_sky.obj
 0001:00104940       ?SetSkyBoxSkySet@CSkyRenderer@@QEAAXH@Z 0000000140105940 f   r_sky.obj
 0001:00104990       ?AddSkyTextureSet@CSkyRenderer@@QEAAXPEBDH@Z 0000000140105990 f   r_sky.obj
 0001:00104dd0       ?WAD_GetWADTexturePath@@YA?AVCString@@PEBD0@Z 0000000140105dd0 f   r_wadtextures.obj
 0001:00104fb0       ?WAD_GetWADFolderPath@@YA?AVCString@@PEBD0@Z 0000000140105fb0 f   r_wadtextures.obj
 0001:001051d0       ?WAD_LoadDetailTextureAssociations@@YA_NAEAV?$CArray@PEAUdetailtexture_t@@@@AEAV?$CArray@PEAUdetail_association_t@@@@@Z 00000001401061d0 f   r_wadtextures.obj
 0001:00105b70       ?GetWADTexture@CWADTextureResource@@QEAAPEAUen_texture_t@@PEAUen_material_t@@PEBD1@Z 0000000140106b70 f   r_wadtextures.obj
 0001:00106160       ?CreateMaterialScript@CWADTextureResource@@AEAAXPEBUdmiptex_t@@PEBD@Z 0000000140107160 f   r_wadtextures.obj
 0001:001076a0       ?IsMaterialScriptPresent@CWADTextureResource@@CA_NPEBD0@Z 00000001401086a0 f   r_wadtextures.obj
 0001:00107710       ?LoadMaterialTextureAssociations@CWADTextureResource@@AEAA_NXZ 0000000140108710 f   r_wadtextures.obj
 0001:00107d10       ?LoadMaterialTypeCodeAssociations@CWADTextureResource@@AEAA_NXZ 0000000140108d10 f   r_wadtextures.obj
 0001:001082c0       ?Init@CWADTextureResource@@QEAA_NPEBDAEBV?$CArray@VCString@@@@_N2@Z 00000001401092c0 f   r_wadtextures.obj
 0001:00108f70       ??1CWADTextureResource@@QEAA@XZ 0000000140109f70 f   r_wadtextures.obj
 0001:00109200       ??0CWADTextureResource@@QEAA@XZ 000000014010a200 f   r_wadtextures.obj
 0001:00109260       ?DrawMirrors@CMirrorManager@@QEAA_NXZ 000000014010a260 f   r_mirror.obj
 0001:001099a0       ?FinishMirrorPass@CMirrorManager@@AEAAXXZ 000000014010a9a0 f   r_mirror.obj
 0001:00109a80       ?SetupMirrorPass@CMirrorManager@@AEAAXXZ 000000014010aa80 f   r_mirror.obj
 0001:00109da0       ?SetupClipping@CMirrorManager@@AEAAXXZ 000000014010ada0 f   r_mirror.obj
 0001:0010a3f0       ?DrawMirrorPasses@CMirrorManager@@QEAA_NXZ 000000014010b3f0 f   r_mirror.obj
 0001:0010a9a0       ?AllocNewMirror@CMirrorManager@@QEAAXPEAUcl_entity_t@@@Z 000000014010b9a0 f   r_mirror.obj
 0001:0010b9d0       ?AllocTextures@CMirrorManager@@AEAA_NPEAUcl_mirror_t@@@Z 000000014010c9d0 f   r_mirror.obj
 0001:0010bc80       ?CreateDepthTexture@CMirrorManager@@AEAAXXZ 000000014010cc80 f   r_mirror.obj
 0001:0010bd60       ?ClearGame@CMirrorManager@@QEAAXXZ 000000014010cd60 f   r_mirror.obj
 0001:0010bf20       ?InitGame@CMirrorManager@@QEAA_NXZ 000000014010cf20 f   r_mirror.obj
 0001:0010bf30       ?ClearGL@CMirrorManager@@QEAAXXZ 000000014010cf30 f   r_mirror.obj
 0001:0010c080       ?InitGL@CMirrorManager@@QEAA_NXZ 000000014010d080 f   r_mirror.obj
 0001:0010c540       ??1CMirrorManager@@QEAA@XZ 000000014010d540 f   r_mirror.obj
 0001:0010c580       ??0CMirrorManager@@QEAA@XZ 000000014010d580 f   r_mirror.obj
 0001:0010c650       ?DrawMonitors@CMonitorManager@@QEAA_NXZ 000000014010d650 f   r_monitor.obj
 0001:0010cca0       ?FinishMonitorPass@CMonitorManager@@AEAAXXZ 000000014010dca0 f   r_monitor.obj
 0001:0010cda0       ?SetupMonitorPass@CMonitorManager@@AEAA_NXZ 000000014010dda0 f   r_monitor.obj
 0001:0010d3e0       ?GetMatchingMonitor@CMonitorManager@@QEAAPEAUcl_monitor_t@@I@Z 000000014010e3e0 f   r_monitor.obj
 0001:0010d4d0       ?DrawMonitorPasses@CMonitorManager@@QEAA_NXZ 000000014010e4d0 f   r_monitor.obj
 0001:0010daa0       ?AllocNewMonitor@CMonitorManager@@QEAAXPEAUcl_entity_t@@@Z 000000014010eaa0 f   r_monitor.obj
 0001:0010f070       ?CreateMonitorTextures@CMonitorManager@@CA_NPEAUcl_monitor_t@@@Z 0000000140110070 f   r_monitor.obj
 0001:0010f390       ?CreateScanlineTexture@CMonitorManager@@QEAAXXZ 0000000140110390 f   r_monitor.obj
 0001:0010f4f0       ?ClearGL@CMonitorManager@@QEAAXXZ 00000001401104f0 f   r_monitor.obj
 0001:0010f6f0       ?InitGL@CMonitorManager@@QEAA_NXZ 00000001401106f0 f   r_monitor.obj
 0001:0010fc10       ?ClearGame@CMonitorManager@@QEAAXXZ 0000000140110c10 f   r_monitor.obj
 0001:0010feb0       ?InitGame@CMonitorManager@@QEAA_NXZ 0000000140110eb0 f   r_monitor.obj
 0001:0010fec0       ?Shutdown@CMonitorManager@@QEAAXXZ 0000000140110ec0 f   r_monitor.obj
 0001:0010fef0       ?Init@CMonitorManager@@QEAA_NXZ 0000000140110ef0 f   r_monitor.obj
 0001:00110140       ??1CMonitorManager@@QEAA@XZ 0000000140111140 f   r_monitor.obj
 0001:00110180       ??0CMonitorManager@@QEAA@XZ 0000000140111180 f   r_monitor.obj
 0001:00110260       ?RemoveSystem@CParticleEngine@@AEAAXHH_N@Z 0000000140111260 f   r_particles.obj
 0001:001104a0       ?ReleaseSystem@CParticleEngine@@AEAAXPEAUparticle_system_t@@@Z 00000001401114a0 f   r_particles.obj
 0001:00110590       ?BatchParticle@CParticleEngine@@AEAAXPEAUcl_particle_t@@MMPEBM@Z 0000000140111590 f   r_particles.obj
 0001:001126d0       ?GetLights@CParticleEngine@@CAXPEAUparticle_system_t@@PEAPEAUcl_dlight_t@@PEAI_NI@Z 00000001401136d0 f   r_particles.obj
 0001:00113d30       ?UpdateParticle@CParticleEngine@@AEAA_NPEAUcl_particle_t@@@Z 0000000140114d30 f   r_particles.obj
 0001:00114bc0       ?GetBoneRotatedVector@CParticleEngine@@AEAAXAEBVVector@@PEAUcl_entity_t@@HAEAV2@_N@Z 0000000140115bc0 f   r_particles.obj
 0001:00114c10       ?GetBoneTransformedPosition@CParticleEngine@@AEAAXAEBVVector@@PEAUcl_entity_t@@HAEAV2@_N@Z 0000000140115c10 f   r_particles.obj
 0001:00114c80       ?CheckCollision@CParticleEngine@@AEAA_NAEAVVector@@0PEAUparticle_system_t@@PEAUcl_particle_t@@@Z 0000000140115c80 f   r_particles.obj
 0001:001153e0       ?TransformRelativeVector@CParticleEngine@@AEAAXAEBVVector@@PEAUparticle_system_t@@AEAV2@_N3@Z 00000001401163e0 f   r_particles.obj
 0001:001156b0       ?UpdateSystems@CParticleEngine@@AEAAXXZ 00000001401166b0 f   r_particles.obj
 0001:00115f60       ?Update@CParticleEngine@@QEAAXXZ 0000000140116f60 f   r_particles.obj
 0001:00116380       ?CreateParticle@CParticleEngine@@AEAAPEAUcl_particle_t@@PEAUparticle_system_t@@PEAM1@Z 0000000140117380 f   r_particles.obj
 0001:00118410       ?EnvironmentCreateFirst@CParticleEngine@@AEAAXPEAUparticle_system_t@@@Z 0000000140119410 f   r_particles.obj
 0001:00118790       ?LoadClusterScript@CParticleEngine@@QEAA_NPEAUscript_cache_t@@PEBD@Z 0000000140119790 f   r_particles.obj
 0001:00119110       ?LoadSystemScript@CParticleEngine@@QEAA_NPEAUscript_cache_t@@PEBD@Z 000000014011a110 f   r_particles.obj
 0001:001197c0       ?ReadField@CParticleEngine@@QEAA_NPEAUscript_definition_t@@PEBD1@Z 000000014011a7c0 f   r_particles.obj
 0001:0011d190       ?CreateSystem@CParticleEngine@@AEAAPEAUparticle_system_t@@PEBDAEBVVector@@1IPEAU2@PEAUcl_entity_t@@HIHH@Z 000000014011e190 f   r_particles.obj
 0001:0011dc70       ?CreateCluster@CParticleEngine@@AEAAXPEBDAEBVVector@@1IPEAUcl_entity_t@@HIHH@Z 000000014011ec70 f   r_particles.obj
 0001:0011ddb0       ?AllocSystem@CParticleEngine@@AEAAPEAUparticle_system_t@@XZ 000000014011edb0 f   r_particles.obj
 0001:0011def0       ?ClearGame@CParticleEngine@@QEAAXXZ 000000014011eef0 f   r_particles.obj
 0001:0011e230       ?InitGame@CParticleEngine@@QEAA_NXZ 000000014011f230 f   r_particles.obj
 0001:0011e240       ?ClearGL@CParticleEngine@@QEAAXXZ 000000014011f240 f   r_particles.obj
 0001:0011e2e0       ?InitGL@CParticleEngine@@QEAA_NXZ 000000014011f2e0 f   r_particles.obj
 0001:0011f970       ?Shutdown@CParticleEngine@@QEAAXXZ 0000000140120970 f   r_particles.obj
 0001:0011f9d0       ?Init@CParticleEngine@@QEAA_NXZ 00000001401209d0 f   r_particles.obj
 0001:00120310       ??1CParticleEngine@@QEAA@XZ 0000000140121310 f   r_particles.obj
 0001:001203b0       ??0CParticleEngine@@QEAA@XZ 00000001401213b0 f   r_particles.obj
 0001:00120510       ?DrawParticles@CParticleEngine@@QEAA_NW4prt_render_pass_e@@@Z 0000000140121510 f   r_particles.obj
 0001:00122530       ?KillEntityParticleSystems@CParticleEngine@@QEAAXH@Z 0000000140123530 f   r_particles.obj
 0001:00122790       ?PrecacheScript@CParticleEngine@@QEAAPEBUscript_cache_t@@HPEBDPEAV?$CArray@VCString@@@@@Z 0000000140123790 f   r_particles.obj
 0001:00122f00       ?CacheRemoveSystem@CParticleEngine@@QEAAXHH_N@Z 0000000140123f00 f   r_particles.obj
 0001:00122ff0       ?CacheCreateSystem@CParticleEngine@@QEAAXAEBVVector@@0W4part_script_type_t@@PEBDIHHHH@Z 0000000140123ff0 f   r_particles.obj
 0001:00123320       ?Draw@CPostProcess@@QEAA_NXZ 0000000140124320 f   r_postprocess.obj
 0001:001251a0       ?CreateScreenTexture@CPostProcess@@AEAAXXZ 00000001401261a0 f   r_postprocess.obj
 0001:00125280       ?ClearMotionBlur@CPostProcess@@AEAAXXZ 0000000140126280 f   r_postprocess.obj
 0001:001252e0       ?DrawSepia@CPostProcess@@AEAA_NXZ 00000001401262e0 f   r_postprocess.obj
 0001:00125390       ?DrawTonemap@CPostProcess@@AEAA_NXZ 0000000140126390 f   r_postprocess.obj
 0001:00125470       ?DrawSSAO@CPostProcess@@AEAA_NXZ 0000000140126470 f   r_postprocess.obj
 0001:00125550       ?DrawVignette@CPostProcess@@AEAA_NXZ 0000000140126550 f   r_postprocess.obj
 0001:00125630       ?DrawBloom@CPostProcess@@AEAA_NXZ 0000000140126630 f   r_postprocess.obj
 0001:001256e0       ?DrawBleachBypass@CPostProcess@@AEAA_NXZ 00000001401266e0 f   r_postprocess.obj
 0001:00125790       ?DrawBW@CPostProcess@@AEAA_NXZ 0000000140126790 f   r_postprocess.obj
 0001:00125840       ?DrawFXAA@CPostProcess@@AEAA_NXZ 0000000140126840 f   r_postprocess.obj
 0001:001258f0       ?DrawBokeh@CPostProcess@@AEAA_NXZ 00000001401268f0 f   r_postprocess.obj
 0001:001259d0       ?DrawChromatic@CPostProcess@@AEAA_NXZ 00000001401269d0 f   r_postprocess.obj
 0001:00125a80       ?DrawFilmGrain@CPostProcess@@AEAA_NXZ 0000000140126a80 f   r_postprocess.obj
 0001:00125b30       ?DrawFade@CPostProcess@@AEAA_NAEAUscreenfade_t@@@Z 0000000140126b30 f   r_postprocess.obj
 0001:00125d30       ?DrawMotionBlur@CPostProcess@@AEAA_NXZ 0000000140126d30 f   r_postprocess.obj
 0001:00125ea0       ?DrawBlur@CPostProcess@@AEAA_NXZ 0000000140126ea0 f   r_postprocess.obj
 0001:00125fc0       ?DrawDistortion@CPostProcess@@AEAA_NXZ 0000000140126fc0 f   r_postprocess.obj
 0001:00126080       ?DrawGamma@CPostProcess@@AEAA_NXZ 0000000140127080 f   r_postprocess.obj
 0001:00126190       ?FetchScreen@CPostProcess@@CAXPEAPEAUrtt_texture_t@@@Z 0000000140127190 f   r_postprocess.obj
 0001:00126220       ?ClearGame@CPostProcess@@QEAAXXZ 0000000140127220 f   r_postprocess.obj
 0001:00126480       ?InitGame@CPostProcess@@QEAA_NXZ 0000000140127480 f   r_postprocess.obj
 0001:00126490       ?ClearGL@CPostProcess@@QEAAXXZ 0000000140127490 f   r_postprocess.obj
 0001:00126520       ?InitGL@CPostProcess@@QEAA_NXZ 0000000140127520 f   r_postprocess.obj
 0001:00127060       ?Shutdown@CPostProcess@@QEAAXXZ 0000000140128060 f   r_postprocess.obj
 0001:00127080       ?Init@CPostProcess@@QEAA_NXZ 0000000140128080 f   r_postprocess.obj
 0001:00128530       ??1CPostProcess@@QEAA@XZ   0000000140129530 f   r_postprocess.obj
 0001:00128540       ??0CPostProcess@@QEAA@XZ   0000000140129540 f   r_postprocess.obj
 0001:00128730       ?SetGaussianBlur@CPostProcess@@QEAAX_NM@Z 0000000140129730 f   r_postprocess.obj
 0001:00128760       ?SetFade@CPostProcess@@QEAAXIMMHAEBUcolor24_t@@EM@Z 0000000140129760 f   r_postprocess.obj
 0001:001288c0       ?SetMotionBlur@CPostProcess@@QEAAX_NM0@Z 00000001401298c0 f   r_postprocess.obj
 0001:00128940       ?DrawParticles@CLegacyParticles@@QEAA_NXZ 0000000140129940 f   r_legacyparticles.obj
 0001:00129780       ?UpdateParticles@CLegacyParticles@@QEAAXXZ 000000014012a780 f   r_legacyparticles.obj
 0001:00129e20       ?AllocParticle@CLegacyParticles@@AEAAPEAUparticle_t@1@XZ 000000014012ae20 f   r_legacyparticles.obj
 0001:00129ea0       ?FreeParticle@CLegacyParticles@@AEAAXPEAUparticle_t@1@@Z 000000014012aea0 f   r_legacyparticles.obj
 0001:00129f10       ?FreeActiveParticles@CLegacyParticles@@AEAAXXZ 000000014012af10 f   r_legacyparticles.obj
 0001:00129f90       ?AllocateParticles@CLegacyParticles@@AEAAXXZ 000000014012af90 f   r_legacyparticles.obj
 0001:0012a170       ?ClearGame@CLegacyParticles@@QEAAXXZ 000000014012b170 f   r_legacyparticles.obj
 0001:0012a190       ?InitGame@CLegacyParticles@@QEAA_NXZ 000000014012b190 f   r_legacyparticles.obj
 0001:0012a1f0       ?ClearGL@CLegacyParticles@@QEAAXXZ 000000014012b1f0 f   r_legacyparticles.obj
 0001:0012a200       ?InitGL@CLegacyParticles@@QEAA_NXZ 000000014012b200 f   r_legacyparticles.obj
 0001:0012a210       ?ReleaseAllParticles@CLegacyParticles@@AEAAXXZ 000000014012b210 f   r_legacyparticles.obj
 0001:0012a2f0       ?Shutdown@CLegacyParticles@@QEAAXXZ 000000014012b2f0 f   r_legacyparticles.obj
 0001:0012a320       ?Init@CLegacyParticles@@QEAA_NXZ 000000014012b320 f   r_legacyparticles.obj
 0001:0012a4d0       ??1CLegacyParticles@@QEAA@XZ 000000014012b4d0 f   r_legacyparticles.obj
 0001:0012a520       ??0CLegacyParticles@@QEAA@XZ 000000014012b520 f   r_legacyparticles.obj
 0001:0012a580       ?Legacy_SortParticles@@YAHPEBX0@Z 000000014012b580 f   r_legacyparticles.obj
 0001:0012a680       ?CreateRocketTrail@CLegacyParticles@@QEAAXAEBVVector@@0I@Z 000000014012b680 f   r_legacyparticles.obj
 0001:0012aff0       ?CreateTeleportSplash@CLegacyParticles@@QEAAXAEBVVector@@@Z 000000014012bff0 f   r_legacyparticles.obj
 0001:0012b4c0       ?CreateLavaSplash@CLegacyParticles@@QEAAXAEBVVector@@@Z 000000014012c4c0 f   r_legacyparticles.obj
 0001:0012b8e0       ?CreateParticleEffect@CLegacyParticles@@QEAAXAEBVVector@@0II@Z 000000014012c8e0 f   r_legacyparticles.obj
 0001:0012bf00       ?CreateRocketExplosion@CLegacyParticles@@QEAAXAEBVVector@@I@Z 000000014012cf00 f   r_legacyparticles.obj
 0001:0012c600       ?CreateBlobExplosion@CLegacyParticles@@QEAAXAEBVVector@@@Z 000000014012d600 f   r_legacyparticles.obj
 0001:0012cd60       ?CreateParticleExplosion2@CLegacyParticles@@QEAAXAEBVVector@@II@Z 000000014012dd60 f   r_legacyparticles.obj
 0001:0012d430       ?CreateParticleExplosion1@CLegacyParticles@@QEAAXAEBVVector@@@Z 000000014012e430 f   r_legacyparticles.obj
 0001:0012dae0       ?Delete@CRenderToTextureCache@@QEAAXPEAUrtt_texture_t@@@Z 000000014012eae0 f   r_rttcache.obj
 0001:0012db60       ?CreateTexture@CRenderToTextureCache@@CAXPEAUrtt_texture_t@@W4rs_level_t@@@Z 000000014012eb60 f   r_rttcache.obj
 0001:0012dca0       ?Think@CRenderToTextureCache@@QEAAXXZ 000000014012eca0 f   r_rttcache.obj
 0001:0012ddc0       ?Clear@CRenderToTextureCache@@QEAAXW4rs_level_t@@@Z 000000014012edc0 f   r_rttcache.obj
 0001:0012dfd0       ?InitGL@CRenderToTextureCache@@QEAAXXZ 000000014012efd0 f   r_rttcache.obj
 0001:0012e040       ??1CRenderToTextureCache@@QEAA@XZ 000000014012f040 f   r_rttcache.obj
 0001:0012e080       ??0CRenderToTextureCache@@QEAA@XZ 000000014012f080 f   r_rttcache.obj
 0001:0012e0d0       ?Free@CRenderToTextureCache@@QEAAXPEAUrtt_texture_t@@@Z 000000014012f0d0 f   r_rttcache.obj
 0001:0012e170       ?Alloc@CRenderToTextureCache@@QEAAPEAUrtt_texture_t@@II_NIW4rs_level_t@@@Z 000000014012f170 f   r_rttcache.obj
 0001:0012e3a0       ?SPR_DrawFunction@@YAXPEAXAEBVVector@@@Z 000000014012f3a0 f   r_sprites.obj
 0001:0012e450       ?DrawFunction@CSpriteRenderer@@QEAAXAEBVVector@@@Z 000000014012f450 f   r_sprites.obj
 0001:0012e500       ?Animate@CSpriteRenderer@@QEAAXXZ 000000014012f500 f   r_sprites.obj
 0001:0012e740       ?BatchVertex@CSpriteRenderer@@AEAAXIAEBVVector@@MMMMMM@Z 000000014012f740 f   r_sprites.obj
 0001:0012e7c0       ?BatchVertex@CSpriteRenderer@@AEAAXAEBVVector@@AEAY03$$CBMMM@Z 000000014012f7c0 f   r_sprites.obj
 0001:0012e930       ?BatchSprite@CSpriteRenderer@@AEAA_NPEAUcl_entity_t@@@Z 000000014012f930 f   r_sprites.obj
 0001:0012fa00       ?DrawSprites@CSpriteRenderer@@QEAA_NXZ 0000000140130a00 f   r_sprites.obj
 0001:00130300       ?DrawSpriteArrays@CSpriteRenderer@@AEAA_NPEAUcl_entity_t@@I@Z 0000000140131300 f   r_sprites.obj
 0001:001305b0       ?BatchSprites@CSpriteRenderer@@AEAAXPEAUcl_entity_t@@I@Z 00000001401315b0 f   r_sprites.obj
 0001:00130910       ?ClearGame@CSpriteRenderer@@QEAAXXZ 0000000140131910 f   r_sprites.obj
 0001:00130a30       ?InitGame@CSpriteRenderer@@QEAA_NXZ 0000000140131a30 f   r_sprites.obj
 0001:00130ad0       ?ClearGL@CSpriteRenderer@@QEAAXXZ 0000000140131ad0 f   r_sprites.obj
 0001:00130b70       ?InitGL@CSpriteRenderer@@QEAA_NXZ 0000000140131b70 f   r_sprites.obj
 0001:00131020       ?Shutdown@CSpriteRenderer@@QEAAXXZ 0000000140132020 f   r_sprites.obj
 0001:00131060       ?Init@CSpriteRenderer@@QEAA_NXZ 0000000140132060 f   r_sprites.obj
 0001:001312c0       ??1CSpriteRenderer@@QEAA@XZ 00000001401322c0 f   r_sprites.obj
 0001:00131360       ??0CSpriteRenderer@@QEAA@XZ 0000000140132360 f   r_sprites.obj
 0001:001314a0       ?AllocTempSprite@CSpriteRenderer@@QEAAPEAUcl_entity_t@@HM@Z 00000001401324a0 f   r_sprites.obj
 0001:001315a0       ?AllocStaticSprite@CSpriteRenderer@@QEAAPEAUcl_entity_t@@XZ 00000001401325a0 f   r_sprites.obj
 0001:00131600       ?VBM_FindMaterialScriptByIndex@@YAPEAUen_material_t@@H@Z 0000000140132600 f   r_vbm.obj
 0001:00131660       ?BatchVertex@CVBMRenderer@@AEAAXAEBVVector@@@Z 0000000140132660 f   r_vbm.obj
 0001:00131720       ?DrawLine@CVBMRenderer@@AEAAXAEBVVector@@00@Z 0000000140132720 f   r_vbm.obj
 0001:001317f0       ?DrawBox@CVBMRenderer@@AEAAXAEBVVector@@0@Z 00000001401327f0 f   r_vbm.obj
 0001:00131a80       ?DrawHullBoundingBox@CVBMRenderer@@AEAA_NXZ 0000000140132a80 f   r_vbm.obj
 0001:00131df0       ?DrawAttachments@CVBMRenderer@@AEAA_NXZ 0000000140132df0 f   r_vbm.obj
 0001:001324e0       ?DrawLightVectors@CVBMRenderer@@AEAA_NXZ 00000001401334e0 f   r_vbm.obj
 0001:001331d0       ?DrawBoundingBox@CVBMRenderer@@AEAA_NXZ 00000001401341d0 f   r_vbm.obj
 0001:001334e0       ?DrawHitBoxes@CVBMRenderer@@AEAA_NXZ 00000001401344e0 f   r_vbm.obj
 0001:00133870       ?DrawBones@CVBMRenderer@@AEAA_NXZ 0000000140134870 f   r_vbm.obj
 0001:00133d90       ?GetIdealLOD@CVBMRenderer@@AEAAPEBUvbmsubmodel_t@@PEBU2@W4vbmlod_type_t@@@Z 0000000140134d90 f   r_vbm.obj
 0001:00133f60       ?SetupModel@CVBMRenderer@@AEAAXIW4vbmlod_type_t@@@Z 0000000140134f60 f   r_vbm.obj
 0001:001341e0       ?DispatchClientEvents@CVBMRenderer@@AEAAXXZ 00000001401351e0 f   r_vbm.obj
 0001:00134450       ?PlayEvents@CVBMRenderer@@QEAAXXZ 0000000140135450 f   r_vbm.obj
 0001:001344e0       ?DrawTransparent@CVBMRenderer@@QEAA_NXZ 00000001401354e0 f   r_vbm.obj
 0001:001346d0       ?DrawNormal@CVBMRenderer@@QEAA_NXZ 00000001401356d0 f   r_vbm.obj
 0001:001348e0       ?DrawFlexedSubmodels@CVBMRenderer@@AEAA_NXZ 00000001401358e0 f   r_vbm.obj
 0001:00134b50       ?DrawNormalSubmodels@CVBMRenderer@@AEAA_NXZ 0000000140135b50 f   r_vbm.obj
 0001:00134c20       ?GetDecalOffsets@CVBMRenderer@@AEAAXIIAEAI0@Z 0000000140135c20 f   r_vbm.obj
 0001:00134dc0       ?DrawDecals@CVBMRenderer@@AEAA_NXZ 0000000140135dc0 f   r_vbm.obj
 0001:00135670       ?DeleteDecal@CVBMRenderer@@CAXPEAUvbmdecal_t@@@Z 0000000140136670 f   r_vbm.obj
 0001:00135850       ?DecalTriangle@CVBMRenderer@@AEAAXPEAUvbmdecal_t@@AEAPEAUvbm_decal_mesh_t@@PEAPEBUvbmvertex_t@@PEBEAEBVVector@@4044AEAIEPEAUen_material_t@@@Z 0000000140136850 f   r_vbm.obj
 0001:00136b80       ?FinalizeDecalMesh@CVBMRenderer@@AEAAXPEAUvbmdecal_t@@PEAUvbm_decal_mesh_t@@AEAI@Z 0000000140137b80 f   r_vbm.obj
 0001:00136e00       ?AllocDecal@CVBMRenderer@@AEAAPEAUvbmdecal_t@@XZ 0000000140137e00 f   r_vbm.obj
 0001:00136f60       ?AllocDecalSlot@CVBMRenderer@@AEAAPEAUvbmdecal_t@@XZ 0000000140137f60 f   r_vbm.obj
 0001:00137100       ?DrawWireframe@CVBMRenderer@@AEAA_NXZ 0000000140138100 f   r_vbm.obj
 0001:00137b90       ?DrawFinal@CVBMRenderer@@AEAA_NXZ 0000000140138b90 f   r_vbm.obj
 0001:0013a300       ?DrawLights@CVBMRenderer@@AEAA_N_N@Z 000000014013b300 f   r_vbm.obj
 0001:0013bcc0       ?DrawMesh@CVBMRenderer@@AEAA_NPEAUen_material_t@@PEBUvbmmesh_t@@_N@Z 000000014013ccc0 f   r_vbm.obj
 0001:0013c490       ?DrawFirst@CVBMRenderer@@AEAA_NXZ 000000014013d490 f   r_vbm.obj
 0001:0013cc10       ?CalculateFlexesSW@CVBMRenderer@@AEAAXPEBUvbmsubmodel_t@@@Z 000000014013dc10 f   r_vbm.obj
 0001:0013dbb0       ?CalculateFlexesHW@CVBMRenderer@@AEAAXPEBUvbmsubmodel_t@@@Z 000000014013ebb0 f   r_vbm.obj
 0001:0013e1a0       ?RestoreRenderer@CVBMRenderer@@AEAA_NXZ 000000014013f1a0 f   r_vbm.obj
 0001:0013e2e0       ?SetupRenderer@CVBMRenderer@@AEAA_NXZ 000000014013f2e0 f   r_vbm.obj
 0001:0013f390       ?Render@CVBMRenderer@@AEAA_NXZ 0000000140140390 f   r_vbm.obj
 0001:0013f5e0       ?RenderScreenSpaceNormals@CVBMRenderer@@AEAA_NXZ 00000001401405e0 f   r_vbm.obj
 0001:0013f7b0       ?CheckBBox@CVBMRenderer@@AEAA_NXZ 00000001401407b0 f   r_vbm.obj
 0001:00140240       ?GetDynamicLights@CVBMRenderer@@AEAAXXZ 0000000140141240 f   r_vbm.obj
 0001:00140d10       ?GetModelLights@CVBMRenderer@@AEAAXXZ 0000000140141d10 f   r_vbm.obj
 0001:00141720       ?SetupLighting@CVBMRenderer@@AEAAXXZ 0000000140142720 f   r_vbm.obj
 0001:00142c90       ?BlendLightValues@CVBMRenderer@@AEAAXXZ 0000000140143c90 f   r_vbm.obj
 0001:00142e80       ?BuildVBO@CVBMRenderer@@AEAAXXZ 0000000140143e80 f   r_vbm.obj
 0001:00143310       ?AddVBM@CVBMRenderer@@AEAAXPEAUstudiohdr_t@@PEAUvbmheader_t@@@Z 0000000140144310 f   r_vbm.obj
 0001:00144180       ?CalculateAttachments@CVBMRenderer@@AEAAXXZ 0000000140145180 f   r_vbm.obj
 0001:001442e0       ?SetModel@CVBMRenderer@@AEAA_NXZ 00000001401452e0 f   r_vbm.obj
 0001:00144370       ?ShouldAnimate@CVBMRenderer@@AEAA_NXZ 0000000140145370 f   r_vbm.obj
 0001:00144620       ?SetExtraInfo@CVBMRenderer@@AEAAXXZ 0000000140145620 f   r_vbm.obj
 0001:001446b0       ?SetupBones@CVBMRenderer@@AEAA_NH@Z 00000001401456b0 f   r_vbm.obj
 0001:00145490       ?ApplyRenderFX@CVBMRenderer@@AEAAXPEAY03M@Z 0000000140146490 f   r_vbm.obj
 0001:00145670       ?SetupTransformationMatrix@CVBMRenderer@@AEAAXXZ 0000000140146670 f   r_vbm.obj
 0001:001458c0       ?SetOrientation@CVBMRenderer@@AEAAXXZ 00000001401468c0 f   r_vbm.obj
 0001:00146260       ?DeleteDecals@CVBMRenderer@@AEAAXXZ 0000000140147260 f   r_vbm.obj
 0001:00146490       ?CreateVertexTexture@CVBMRenderer@@AEAAXXZ 0000000140147490 f   r_vbm.obj
 0001:00146580       ?ClearGame@CVBMRenderer@@QEAAXXZ 0000000140147580 f   r_vbm.obj
 0001:00146620       ?InitGame@CVBMRenderer@@QEAA_NXZ 0000000140147620 f   r_vbm.obj
 0001:001466a0       ?ClearGL@CVBMRenderer@@QEAAXXZ 00000001401476a0 f   r_vbm.obj
 0001:00146730       ?InitGL@CVBMRenderer@@QEAA_NXZ 0000000140147730 f   r_vbm.obj
 0001:00148810       ?Shutdown@CVBMRenderer@@QEAAXXZ 0000000140149810 f   r_vbm.obj
 0001:001488d0       ?Init@CVBMRenderer@@QEAA_NXZ 00000001401498d0 f   r_vbm.obj
 0001:00149a80       ??1CVBMRenderer@@QEAA@XZ   000000014014aa80 f   r_vbm.obj
 0001:00149ab0       ??0CVBMRenderer@@QEAA@XZ   000000014014aab0 f   r_vbm.obj
 0001:0014a040       ?RotateVectorByBoneMatrix@CVBMRenderer@@QEAAXPEAUcl_entity_t@@HAEAVVector@@_N@Z 000000014014b040 f   r_vbm.obj
 0001:0014a2b0       ?TransformVectorByBoneMatrix@CVBMRenderer@@QEAAXPEAUcl_entity_t@@HAEAVVector@@_N@Z 000000014014b2b0 f   r_vbm.obj
 0001:0014a730       ?DrawSky@CVBMRenderer@@QEAA_NXZ 000000014014b730 f   r_vbm.obj
 0001:0014a850       ?DrawModelVSM@CVBMRenderer@@QEAA_NPEAUcl_entity_t@@PEAUcl_dlight_t@@@Z 000000014014b850 f   r_vbm.obj
 0001:0014ad40       ?EndVSM@CVBMRenderer@@QEAAXXZ 000000014014bd40 f   r_vbm.obj
 0001:0014add0       ?PrepareVSM@CVBMRenderer@@QEAA_NPEAUcl_dlight_t@@@Z 000000014014bdd0 f   r_vbm.obj
 0001:0014b4b0       ?EndDraw@CVBMRenderer@@QEAAXXZ 000000014014c4b0 f   r_vbm.obj
 0001:0014b530       ?PrepareDraw@CVBMRenderer@@QEAA_NXZ 000000014014c530 f   r_vbm.obj
 0001:0014b8f0       ?DrawModel@CVBMRenderer@@QEAA_NHPEAUcl_entity_t@@@Z 000000014014c8f0 f   r_vbm.obj
 0001:0014bd20       ?GetShaderErrorString@CVBMRenderer@@QEBAPEBDXZ 000000014014cd20 f   r_vbm.obj
 0001:0014bd50       ?DrawAura@CVBMRenderer@@QEAA_NPEAUcl_entity_t@@AEBVVector@@M@Z 000000014014cd50 f   r_vbm.obj
 0001:0014c250       ?FinishAuraPass@CVBMRenderer@@QEAAXXZ 000000014014d250 f   r_vbm.obj
 0001:0014c2e0       ?PrepAuraPass@CVBMRenderer@@QEAA_NXZ 000000014014d2e0 f   r_vbm.obj
 0001:0014c970       ?DrawVSM@CVBMRenderer@@QEAA_NPEAUcl_dlight_t@@PEAPEAUcl_entity_t@@I@Z 000000014014d970 f   r_vbm.obj
 0001:0014cac0       ?GetBonePosition@CVBMRenderer@@QEAA_NPEAUcl_entity_t@@PEBDAEAVVector@@@Z 000000014014dac0 f   r_vbm.obj
 0001:0014ce10       ?UpdateAttachments@CVBMRenderer@@QEAAXPEAUcl_entity_t@@@Z 000000014014de10 f   r_vbm.obj
 0001:0014cf60       ?FreeEntityData@CVBMRenderer@@QEAAXPEBUcl_entity_t@@@Z 000000014014df60 f   r_vbm.obj
 0001:0014d180       ?CreateDecal@CVBMRenderer@@QEAAXAEBVVector@@0PEAUdecalgroupentry_t@@PEAUcl_entity_t@@E@Z 000000014014e180 f   r_vbm.obj
 0001:0014d9c0       ?rygCompress@@YAXPEAE0HHH@Z 000000014014e9c0 f   stb_dxt.obj
 0001:0014dd00       ?imin@@YAHHH@Z             000000014014ed00 f   stb_dxt.obj
 0001:0014dd20       ?stb_compress_dxt_block@@YAXPEAEPEBEHH@Z 000000014014ed20 f   stb_dxt.obj
 0001:00150900       ?WindowProc@EngineCode@@CA_JPEAUHWND__@@I_K_J@Z 0000000140151900 f   enginecode.obj
 0001:00150c80       ??1EngineCode@@QEAA@XZ     0000000140151c80 f   enginecode.obj
 0001:00150c90       ?shutdown@SentrySystem@@QEAAXXZ 0000000140151c90 f   sentrysystem.obj
 0001:00150ca0       ?init@SentrySystem@@QEAAXXZ 0000000140151ca0 f   sentrysystem.obj
 0001:00150d10       ??1SentrySystem@@QEAA@XZ   0000000140151d10 f   sentrysystem.obj
 0001:00150d20       ??0SentrySystem@@QEAA@XZ   0000000140151d20 f   sentrysystem.obj
 0001:00150d40       ?SV_NPC_WalkMove@@YA_NPEAUedict_t@@MMW4walkmove_t@@@Z 0000000140151d40 f   sv_entities.obj
 0001:00150e40       ?SV_DropToFloor@@YA_NPEAUedict_t@@@Z 0000000140151e40 f   sv_entities.obj
 0001:00150fd0       ?SV_RemoveEntity@@YAXPEAUedict_t@@@Z 0000000140151fd0 f   sv_entities.obj
 0001:00150ff0       ?SV_CreateEntity@@YAPEAUedict_t@@PEBD@Z 0000000140151ff0 f   sv_entities.obj
 0001:00151100       ?SV_GetEdictByIndex@@YAPEAUedict_t@@H@Z 0000000140152100 f   sv_entities.obj
 0001:00151190       ?SV_GetNumEdicts@@YAHXZ    0000000140152190 f   sv_entities.obj
 0001:001511a0       ?SV_AddToTouched@@YAXHAEAUtrace_t@@AEBVVector@@@Z 00000001401521a0 f   sv_entities.obj
 0001:001512c0       ?SV_SetOrigin@@YAXPEAUedict_t@@AEBVVector@@@Z 00000001401522c0 f   sv_entities.obj
 0001:00151340       ?SV_SetSize@@YAXPEAUedict_t@@AEBVVector@@@Z 0000000140152340 f   sv_entities.obj
 0001:001517d0       ?SV_SetMinsMaxs@@YAXPEAUedict_t@@AEBVVector@@1@Z 00000001401527d0 f   sv_entities.obj
 0001:00151b70       ?SV_SetModel@@YA_NPEAUedict_t@@PEBD_N@Z 0000000140152b70 f   sv_entities.obj
 0001:00151f80       ?SV_InitPrivateData@@YA_NPEAUedict_t@@PEBD@Z 0000000140152f80 f   sv_entities.obj
 0001:00151fc0       ?SV_FindClientInPVS@@YAPEAUedict_t@@PEBU1@@Z 0000000140152fc0 f   sv_main.obj
 0001:001522e0       ?SV_NewCheckClient@@YAHH@Z 00000001401532e0 f   sv_main.obj
 0001:00152480       ?SV_AddSavedDecal@@YAXAEBVVector@@0HPEBDH@Z 0000000140153480 f   sv_main.obj
 0001:001528e0       ?SV_RestoreSavedDecals@@YAXXZ 00000001401538e0 f   sv_main.obj
 0001:00152ca0       ?SV_IsTransitionDecalValid@@YA_NAEAUsaveddecal_t@@@Z 0000000140153ca0 f   sv_main.obj
 0001:00152d90       ?SV_EndGame@@YAXPEBD@Z     0000000140153d90 f   sv_main.obj
 0001:00152e30       ?SV_ClearConnections@@YAXXZ 0000000140153e30 f   sv_main.obj
 0001:00152e50       ?SV_ClearLevelChange@@YAXXZ 0000000140153e50 f   sv_main.obj
 0001:00152fb0       ?SV_GetTransitionList@@YAXPEAPEBHAEAI@Z 0000000140153fb0 f   sv_main.obj
 0001:00152fd0       ?SV_PerformLevelChange@@YAXPEBD0@Z 0000000140153fd0 f   sv_main.obj
 0001:00153cd0       ?SV_BeginLevelChange@@YAXPEBD0AEBVVector@@@Z 0000000140154cd0 f   sv_main.obj
 0001:001541a0       ?SV_AddLevelConnection@@YAXPEBD000@Z 00000001401551a0 f   sv_main.obj
 0001:00154c20       ?SV_SetLevelSavefile@@YAXPEBD0@Z 0000000140155c20 f   sv_main.obj
 0001:00154e60       ?SV_GetModelFrameCount@@YA_KH@Z 0000000140155e60 f   sv_main.obj
 0001:00154ed0       ?SV_GetWAVFileDuration@@YAMPEBD@Z 0000000140155ed0 f   sv_main.obj
 0001:00155100       ?SV_GetOGGFileDuration@@YAMPEBD@Z 0000000140156100 f   sv_main.obj
 0001:00155530       ?SV_GetSoundDuration@@YAMPEBDI@Z 0000000140156530 f   sv_main.obj
 0001:001558e0       ?SV_PrecacheGeneric@@YAXPEBD@Z 00000001401568e0 f   sv_main.obj
 0001:00155b60       ?SV_GetMapTextureMaterial@@YAPEBUen_material_t@@PEBD@Z 0000000140156b60 f   sv_main.obj
 0001:00155cb0       ?SV_GetAttachment@@YA_NPEAUedict_t@@IAEAVVector@@@Z 0000000140156cb0 f   sv_main.obj
 0001:00155f00       ?SV_GetBonePositionByIndex@@YA_NPEAUedict_t@@IAEAVVector@@@Z 0000000140156f00 f   sv_main.obj
 0001:00156120       ?SV_GetBonePositionByName@@YA_NPEAUedict_t@@PEBDAEAVVector@@@Z 0000000140157120 f   sv_main.obj
 0001:001563c0       ?SV_ClientCommand@@YAXPEAUedict_t@@PEBD@Z 00000001401573c0 f   sv_main.obj
 0001:001564c0       ?SV_ServerCommand@@YAXPEBD@Z 00000001401574c0 f   sv_main.obj
 0001:001565b0       ?SV_IsValidCommand@@YA_NPEBD@Z 00000001401575b0 f   sv_main.obj
 0001:001565f0       ?SV_AddEnforcedConsistencyFile@@YAXPEBD@Z 00000001401575f0 f   sv_main.obj
 0001:00156850       ?SV_GetHostClient@@YAPEAUsv_client_t@@XZ 0000000140157850 f   sv_main.obj
 0001:00156860       ?SV_FunctionFromName@@YAPEAXPEBD@Z 0000000140157860 f   sv_main.obj
 0001:00156990       ?SV_NameForFunction@@YAPEBDPEBX@Z 0000000140157990 f   sv_main.obj
 0001:00156a50       ?SV_IsWorldSpawn@@YA_NH@Z  0000000140157a50 f   sv_main.obj
 0001:00156a60       ?SV_IsHostClient@@YA_NH@Z  0000000140157a60 f   sv_main.obj
 0001:00156a70       ?SV_SetGroupMask@@YAXHH@Z  0000000140157a70 f   sv_main.obj
 0001:00156a90       ?SV_TraceTexture@@YAPEBDHAEBVVector@@0@Z 0000000140157a90 f   sv_main.obj
 0001:00156b70       ?SV_SpawnClient@@YA_NAEAUsv_client_t@@@Z 0000000140157b70 f   sv_main.obj
 0001:001570d0       ?SV_VerifyClient@@YA_NAEAUsv_client_t@@PEBD@Z 00000001401580d0 f   sv_main.obj
 0001:00157190       ?SV_ClientDisconnected@@YAXAEAUsv_client_t@@@Z 0000000140158190 f   sv_main.obj
 0001:00157260       ?SV_PrepareClient@@YAXI@Z  0000000140158260 f   sv_main.obj
 0001:00157290       ?SV_SetPVS@@YAPEAEAEBVVector@@@Z 0000000140158290 f   sv_main.obj
 0001:001572d0       ?SV_SetPAS@@YAPEAEAEBVVector@@@Z 00000001401582d0 f   sv_main.obj
 0001:00157310       ?SV_PrecacheModel@@YAHPEBD@Z 0000000140158310 f   sv_main.obj
 0001:00157720       ?SV_Frame@@YAXXZ           0000000140158720 f   sv_main.obj
 0001:001579c0       ?SV_PostClientUpdate@@YAXXZ 00000001401589c0 f   sv_main.obj
 0001:00157aa0       ?SV_UpdateClients@@YAXXZ   0000000140158aa0 f   sv_main.obj
 0001:001583d0       ?SV_RunCmd@@YAXAEAUusercmd_t@@AEAUsv_client_t@@@Z 00000001401593d0 f   sv_main.obj
 0001:00158bf0       ?SV_CheckMovingGround@@YAXPEAUedict_t@@N@Z 0000000140159bf0 f   sv_main.obj
 0001:00158d30       ?SV_CheckMoveVars@@YAXAEAUsv_client_t@@@Z 0000000140159d30 f   sv_main.obj
 0001:001590c0       ?SV_SetMoveVars@@YAXAEAUsv_client_t@@@Z 000000014015a0c0 f   sv_main.obj
 0001:00159220       ?SV_PlayerThink@@YAXPEAUedict_t@@N@Z 000000014015a220 f   sv_main.obj
 0001:001592c0       ?SV_DropClient@@YAXAEAUsv_client_t@@PEBD@Z 000000014015a2c0 f   sv_main.obj
 0001:00159440       ?SV_ClearClient@@YAXAEAUsv_client_t@@@Z 000000014015a440 f   sv_main.obj
 0001:001597b0       ?SV_SpawnGame@@YA_NPEBD00_N@Z 000000014015a7b0 f   sv_main.obj
 0001:0015a650       ?SV_MaxPlayersCvarCallBack@@YAXPEAVCCVar@@@Z 000000014015b650 f   sv_main.obj
 0001:0015a6e0       ?SV_RestoreTransitionSave@@YA_NPEBUsave_header_t@@@Z 000000014015b6e0 f   sv_main.obj
 0001:0015aa20       ?SV_ClearNetworking@@YAXXZ 000000014015ba20 f   sv_main.obj
 0001:0015aa70       ?SV_LinkMapTextureMaterials@@YAXAEAV?$CArray@VCString@@@@@Z 000000014015ba70 f   sv_main.obj
 0001:0015b490       ?SV_FindSpawnSpot@@YAPEAUedict_t@@XZ 000000014015c490 f   sv_main.obj
 0001:0015b5e0       ?SV_GetPlayerHulls@@YAXXZ  000000014015c5e0 f   sv_main.obj
 0001:0015b630       ?SV_Shutdown@@YAXXZ        000000014015c630 f   sv_main.obj
 0001:0015b670       ?SV_Init@@YA_NXZ           000000014015c670 f   sv_main.obj
 0001:0015caf0       ?SV_EstablishedClientConnection@@YAXI@Z 000000014015daf0 f   sv_main.obj
 0001:0015cb30       ?SV_AllocString@@YAIPEBD@Z 000000014015db30 f   sv_main.obj
 0001:0015cde0       ?SV_GetString@@YAPEBDI@Z   000000014015dde0 f   sv_main.obj
 0001:0015ce70       ?SV_ClearGame@@YAX_N0@Z    000000014015de70 f   sv_main.obj
 0001:0015d400       ?SV_InitGame@@YA_NXZ       000000014015e400 f   sv_main.obj
 0001:0015d470       ?SV_TestEntityPosition@@YAPEAUedict_t@@PEAU1@W4hull_types_t@@@Z 000000014015e470 f   sv_world.obj
 0001:0015d650       ?SV_Move_Point@@YAXAEAUtrace_t@@AEBVVector@@1HPEAUedict_t@@@Z 000000014015e650 f   sv_world.obj
 0001:0015dac0       ?SV_MoveNoEntities@@YAXAEAUtrace_t@@AEBVVector@@111HPEAUedict_t@@W4hull_types_t@@@Z 000000014015eac0 f   sv_world.obj
 0001:0015dfb0       ?SV_ClipToLinksPoint@@YAXAEAUareanode_t@@AEAUmoveclip_t@@H@Z 000000014015efb0 f   sv_world.obj
 0001:0015e3e0       ?SV_ClipToWorldBrush@@YAXAEAUareanode_t@@AEAUmoveclip_t@@HW4hull_types_t@@@Z 000000014015f3e0 f   sv_world.obj
 0001:0015e680       ?SV_ClipToLinks@@YAXAEAUareanode_t@@AEAUmoveclip_t@@HW4hull_types_t@@@Z 000000014015f680 f   sv_world.obj
 0001:0015ea80       ?SV_SingleClipMoveToEntityPoint@@YAXPEAUedict_t@@AEBVVector@@1HAEAUtrace_t@@@Z 000000014015fa80 f   sv_world.obj
 0001:0015ee00       ?SV_SingleClipMoveToEntity@@YAXPEAUedict_t@@AEBVVector@@111AEAUtrace_t@@HW4hull_types_t@@@Z 000000014015fe00 f   sv_world.obj
 0001:0015f1b0       ?SV_HullForEntity@@YAPEBUhull_t@@PEBUedict_t@@AEBVVector@@1PEAV3@W4hull_types_t@@@Z 00000001401601b0 f   sv_world.obj
 0001:0015f300       ?SV_LinkContents@@YAHAEAUareanode_t@@AEBVVector@@@Z 0000000140160300 f   sv_world.obj
 0001:0015f620       ?SV_TouchLinks@@YAXPEAUedict_t@@PEAUareanode_t@@@Z 0000000140160620 f   sv_world.obj
 0001:0015fa30       ?SV_HullForBSP@@YAPEBUhull_t@@PEBUedict_t@@AEBVVector@@1PEAV3@W4hull_types_t@@@Z 0000000140160a30 f   sv_world.obj
 0001:0015fbb0       ?SV_CreateAreaNode@@YAPEAUareanode_t@@HAEBVVector@@0@Z 0000000140160bb0 f   sv_world.obj
 0001:0015fe00       ?SV_TraceLine@@YAXAEBVVector@@0HW4hull_types_t@@HAEAUtrace_t@@@Z 0000000140160e00 f   sv_world.obj
 0001:0015ff30       ?SV_PlayerTrace@@YAXAEBVVector@@0HW4hull_types_t@@HAEAUtrace_t@@@Z 0000000140160f30 f   sv_world.obj
 0001:00160430       ?SV_TestPlayerPosition@@YAHW4hull_types_t@@HAEBVVector@@@Z 0000000140161430 f   sv_world.obj
 0001:001604c0       ?SV_TraceModel@@YAMHAEBVVector@@0W4hull_types_t@@HAEAUtrace_t@@@Z 00000001401614c0 f   sv_world.obj
 0001:00160660       ?SV_PointContents@@YAHAEBVVector@@PEAH@Z 0000000140161660 f   sv_world.obj
 0001:00160700       ?SV_TruePointContents@@YAHAEBVVector@@@Z 0000000140161700 f   sv_world.obj
 0001:00160730       ?SV_HullForBSP@@YAPEBUhull_t@@HW4hull_types_t@@PEAVVector@@@Z 0000000140161730 f   sv_world.obj
 0001:00160870       ?SV_Move@@YAXAEAUtrace_t@@AEBVVector@@111HPEAUedict_t@@W4hull_types_t@@@Z 0000000140161870 f   sv_world.obj
 0001:00160df0       ?SV_LinkEdict@@YAXPEAUedict_t@@_N@Z 0000000140161df0 f   sv_world.obj
 0001:00161110       ?SV_UnlinkEdict@@YAXPEAUedict_t@@@Z 0000000140162110 f   sv_world.obj
 0001:00161140       ?SV_SendUserMessages@@YA_NAEAUsv_client_t@@@Z 0000000140162140 f   sv_msg.obj
 0001:00161320       ?SV_ReadClientUserMessage@@YAXAEAUsv_client_t@@@Z 0000000140162320 f   sv_msg.obj
 0001:00161430       ?SV_ReadPauseMessage@@YAXAEAUsv_client_t@@@Z 0000000140162430 f   sv_msg.obj
 0001:001614a0       ?SV_RegisterClientUserMessage@@YAXXZ 00000001401624a0 f   sv_msg.obj
 0001:00161910       ?SV_ReadResourceMessage@@YA_NAEAUsv_client_t@@@Z 0000000140162910 f   sv_msg.obj
 0001:00161970       ?SV_PrepareUpload@@YA_NAEAUsv_client_t@@@Z 0000000140162970 f   sv_msg.obj
 0001:00161d50       ?SV_UploadNextChunk@@YA_NAEAUsv_client_t@@@Z 0000000140162d50 f   sv_msg.obj
 0001:00161f10       ?SV_ProcessStringCommand@@YAXAEAUsv_client_t@@PEBD@Z 0000000140162f10 f   sv_msg.obj
 0001:00161fa0       ?SV_ValidateClientCommand@@YA_NPEBD@Z 0000000140162fa0 f   sv_msg.obj
 0001:001621c0       ?SV_ReadClientInfo@@YA_NAEAUsv_client_t@@@Z 00000001401631c0 f   sv_msg.obj
 0001:00162660       ?SV_ReadUserCmd@@YAXAEAUsv_client_t@@@Z 0000000140163660 f   sv_msg.obj
 0001:00162980       ?SV_RequestClientConsistencyChecks@@YAXAEAUsv_client_t@@@Z 0000000140163980 f   sv_msg.obj
 0001:00162a50       ?SV_AddClientConsistencyCheck@@YAXAEAUsv_client_t@@W4rs_type_t@@PEBD@Z 0000000140163a50 f   sv_msg.obj
 0001:00162e10       ?SV_CheckFileConsistency@@YA_NAEAUsv_client_t@@PEBD1@Z 0000000140163e10 f   sv_msg.obj
 0001:00163030       ?SV_SendResourceLists@@YA_NAEAUsv_client_t@@@Z 0000000140164030 f   sv_msg.obj
 0001:00164170       ?SV_WriteEntitiesToClient@@YA_NPEAUsv_client_t@@@Z 0000000140165170 f   sv_msg.obj
 0001:00167520       ?SV_SendClientData@@YA_NPEAUsv_client_t@@@Z 0000000140168520 f   sv_msg.obj
 0001:00167c60       ?SV_ApplySoundEffect@@YAXHPEBDHW4snd_effects_t@@MMH@Z 0000000140168c60 f   sv_msg.obj
 0001:00168000       ?SV_PlayEntitySound@@YAXHPEBDHHMMHMH@Z 0000000140169000 f   sv_msg.obj
 0001:001684f0       ?SV_PrecacheDecal@@YAXPEBD@Z 00000001401694f0 f   sv_msg.obj
 0001:001688f0       ?SV_PrecacheDecalGroup@@YAXPEBD@Z 00000001401698f0 f   sv_msg.obj
 0001:00168cf0       ?SV_ReadClientMessages@@YA?AW4sv_clstate_t@@AEAUsv_client_t@@@Z 0000000140169cf0 f   sv_msg.obj
 0001:00169470       ?SV_Msg_WriteInt16@@YAXF@Z 000000014016a470 f   sv_msg.obj
 0001:00169500       ?SV_PlayMusic@@YAXPEBDHHMMH@Z 000000014016a500 f   sv_msg.obj
 0001:001696a0       ?SV_Msg_WriteUint64@@YAX_K@Z 000000014016a6a0 f   sv_msg.obj
 0001:00169730       ?SV_Msg_WriteBuffer@@YAXPEBEI@Z 000000014016a730 f   sv_msg.obj
 0001:00169770       ?SV_Msg_WriteUint16@@YAXG@Z 000000014016a770 f   sv_msg.obj
 0001:00169800       ?SV_FindUserMessageByName@@YAIPEBD@Z 000000014016a800 f   sv_msg.obj
 0001:00169930       ?SV_UpdateClientData@@YAXXZ 000000014016a930 f   sv_msg.obj
 0001:00169a50       ?SV_Msg_WriteInt64@@YAX_J@Z 000000014016aa50 f   sv_msg.obj
 0001:00169ae0       ?SV_Msg_WriteUint32@@YAXI@Z 000000014016aae0 f   sv_msg.obj
 0001:00169b70       ?SV_PrecacheParticleScript@@YA_NPEBDW4part_script_type_t@@@Z 000000014016ab70 f   sv_msg.obj
 0001:0016a060       ?SV_WriteMoveVars@@YAXAEBUsv_client_t@@@Z 000000014016b060 f   sv_msg.obj
 0001:0016a530       ?SV_PrecacheSound@@YAHPEBD@Z 000000014016b530 f   sv_msg.obj
 0001:0016ab70       ?SV_StopMusic@@YAXHPEBDHM@Z 000000014016bb70 f   sv_msg.obj
 0001:0016ad10       ?SV_Msg_WriteDouble@@YAXN@Z 000000014016bd10 f   sv_msg.obj
 0001:0016ad90       ?SV_ClientRegisterUserMessages@@YAXAEBUsv_client_t@@@Z 000000014016bd90 f   sv_msg.obj
 0001:0016aeb0       ?SV_Msg_WriteSmallFloat@@YAXM@Z 000000014016beb0 f   sv_msg.obj
 0001:0016aee0       ?SV_Msg_WriteChar@@YAXD@Z  000000014016bee0 f   sv_msg.obj
 0001:0016af70       ?SV_Msg_WriteString@@YAXPEBD@Z 000000014016bf70 f   sv_msg.obj
 0001:0016afa0       ?SV_RegisterUserMessage@@YAHPEBDH@Z 000000014016bfa0 f   sv_msg.obj
 0001:0016afc0       ?SV_UserMessageBegin@@YAXW4msgdest_t@@HPEBVVector@@PEBUedict_t@@@Z 000000014016bfc0 f   sv_msg.obj
 0001:0016b0f0       ?SV_Msg_WriteByte@@YAXE@Z  000000014016c0f0 f   sv_msg.obj
 0001:0016b160       ?SV_Msg_WriteInt32@@YAXH@Z 000000014016c160 f   sv_msg.obj
 0001:0016b1f0       ?SV_SetRoomType@@YAXH@Z    000000014016c1f0 f   sv_msg.obj
 0001:0016b2b0       ?SV_Msg_WriteFloat@@YAXM@Z 000000014016c2b0 f   sv_msg.obj
 0001:0016b330       ?SV_MuteAllSounds@@YAX_N@Z 000000014016c330 f   sv_msg.obj
 0001:0016b3f0       ?SV_ClearUpload@@YAXAEAUsv_client_t@@@Z 000000014016c3f0 f   sv_msg.obj
 0001:0016b4d0       ?SV_StopEntitySounds@@YAXHHH@Z 000000014016c4d0 f   sv_msg.obj
 0001:0016b640       ?SV_PlayAmbientSound@@YAXHPEBDAEBVVector@@HMMHMH@Z 000000014016c640 f   sv_msg.obj
 0001:0016bbc0       ?SV_Msg_WriteEntindex@@YAXH@Z 000000014016cbc0 f   sv_msg.obj
 0001:0016bc50       ?SV_ChunkSizeCvarCallBack@@YAXPEAVCCVar@@@Z 000000014016cc50 f   sv_msg.obj
 0001:0016bcf0       ?SV_UserMessageEnd@@YAXXZ  000000014016ccf0 f   sv_msg.obj
 0001:0016bf90       ?SV_ClientPrintf@@YAXPEBUedict_t@@PEBDZZ 000000014016cf90 f   sv_msg.obj
 0001:0016c0b0       ?SV_Physics_Bounce@@YAXPEAUedict_t@@@Z 000000014016d0b0 f   sv_physics.obj
 0001:0016c760       ?SV_Physics_Toss@@YAXPEAUedict_t@@@Z 000000014016d760 f   sv_physics.obj
 0001:0016c980       ?SV_Physics_Step@@YAXPEAUedict_t@@@Z 000000014016d980 f   sv_physics.obj
 0001:0016ce60       ?SV_Physics_Noclip@@YAXPEAUedict_t@@@Z 000000014016de60 f   sv_physics.obj
 0001:0016cf40       ?SV_Physics_Follow@@YAXPEAUedict_t@@@Z 000000014016df40 f   sv_physics.obj
 0001:0016d0e0       ?SV_Physics_Pusher@@YAXPEAUedict_t@@@Z 000000014016e0e0 f   sv_physics.obj
 0001:0016d360       ?SV_Physics_None@@YAXPEAUedict_t@@@Z 000000014016e360 f   sv_physics.obj
 0001:0016d370       ?SV_Physics_ManageParentage@@YAXPEAUedict_t@@@Z 000000014016e370 f   sv_physics.obj
 0001:0016d540       ?SV_RunThink@@YA_NPEAUedict_t@@@Z 000000014016e540 f   sv_physics.obj
 0001:0016d5e0       ?SV_PushMove@@YAXPEAUedict_t@@M@Z 000000014016e5e0 f   sv_physics.obj
 0001:0016dbf0       ?SV_PushMove_UnstickGroundEntity@@YA_NPEAUedict_t@@0AEBVVector@@1@Z 000000014016ebf0 f   sv_physics.obj
 0001:0016dfe0       ?SV_PushRotate@@YA_NPEAUedict_t@@M@Z 000000014016efe0 f   sv_physics.obj
 0001:0016e990       ?SV_PushEntity@@YAXPEAUedict_t@@AEBVVector@@AEAUtrace_t@@@Z 000000014016f990 f   sv_physics.obj
 0001:0016ead0       ?SV_AddGravity@@YAXPEAUedict_t@@@Z 000000014016fad0 f   sv_physics.obj
 0001:0016eb80       ?SV_CheckBottomPrecise@@YA_NPEAUedict_t@@AEBVVector@@1@Z 000000014016fb80 f   sv_physics.obj
 0001:0016efd0       ?SV_CheckGround@@YA_NPEAUedict_t@@@Z 000000014016ffd0 f   sv_physics.obj
 0001:0016f220       ?SV_CheckWaterTransition@@YAXPEAUedict_t@@@Z 0000000140170220 f   sv_physics.obj
 0001:0016f7e0       ?SV_Submerged@@YAMPEAUedict_t@@@Z 00000001401707e0 f   sv_physics.obj
 0001:0016fa20       ?SV_RecursiveWaterLevel@@YAMAEBVVector@@MMH@Z 0000000140170a20 f   sv_physics.obj
 0001:0016fc00       ?SV_WaterMove@@YAXPEAUedict_t@@@Z 0000000140170c00 f   sv_physics.obj
 0001:0016fce0       ?SV_CheckWater@@YA_NPEAUedict_t@@@Z 0000000140170ce0 f   sv_physics.obj
 0001:00170270       ?SV_FlyMove@@YAXPEAUedict_t@@NM@Z 0000000140171270 f   sv_physics.obj
 0001:00170b70       ?SV_ClipVelocity@@YAXAEBVVector@@0AEAV1@M@Z 0000000140171b70 f   sv_physics.obj
 0001:001710e0       ?SV_CheckVelocity@@YAXPEAUedict_t@@@Z 00000001401720e0 f   sv_physics.obj
 0001:00171390       ?SV_Physics@@YAXXZ         0000000140172390 f   sv_physics.obj
 0001:00171ae0       ?SV_Impact@@YAXPEAUedict_t@@0AEBUtrace_t@@@Z 0000000140172ae0 f   sv_physics.obj
 0001:00171d60       ?SV_Physics_Init@@YAXXZ    0000000140172d60 f   sv_physics.obj
 0001:00172a70       ?SV_CheckBottom@@YA_NPEAUedict_t@@@Z 0000000140173a70 f   sv_physics.obj
 0001:00172cc0       ?Sprite_LoadFrame@@YAPEAUmspriteframe_t@@PEBUdspriteframe_t@@PEBE@Z 0000000140173cc0 f   sprite.obj
 0001:00172d90       ?Sprite_GetFrame@@YAPEBUmspriteframe_t@@PEBUmsprite_t@@IM@Z 0000000140173d90 f   sprite.obj
 0001:00172f20       ?Sprite_Load@@YAPEAUmsprite_t@@PEBEI@Z 0000000140173f20 f   sprite.obj
 0001:001733a0       ?SV_NPC_NewChaseDir@@YAXPEAUedict_t@@AEBVVector@@M@Z 00000001401743a0 f   sv_move.obj
 0001:00173710       ?SV_NPC_FixCheckBottom@@YAXPEAUedict_t@@@Z 0000000140174710 f   sv_move.obj
 0001:00173730       ?SV_NPC_FlyDirection@@YA_NPEAUedict_t@@AEBVVector@@@Z 0000000140174730 f   sv_move.obj
 0001:00173770       ?SV_NPC_StepDirection@@YA_NPEAUedict_t@@MM@Z 0000000140174770 f   sv_move.obj
 0001:00173830       ?SV_NPC_MoveToOrigin@@YAXPEAUedict_t@@AEBVVector@@MMW4npc_movetype_t@@@Z 0000000140174830 f   sv_move.obj
 0001:00173920       ?SV_NPC_MoveStep@@YA_NPEAUedict_t@@AEBVVector@@_N2@Z 0000000140174920 f   sv_move.obj
 0001:00174660       ?SV_NPC_MoveTest@@YA_NPEAUedict_t@@AEBVVector@@_N@Z 0000000140175660 f   sv_move.obj
 0001:001748d0       ?LoadSchema@CTextSchemas@@AEAAPEBUtextschema_t@1@PEBD@Z 00000001401758d0 f   textschemas.obj
 0001:00176870       ??1CTextSchemas@@QEAA@XZ   0000000140177870 f   textschemas.obj
 0001:001768a0       ??0CTextSchemas@@QEAA@XZ   00000001401778a0 f   textschemas.obj
 0001:001768e0       ?GetResolutionSchemaFontSet@CTextSchemas@@QEAAPEBUfont_set_t@@PEBDI@Z 00000001401778e0 f   textschemas.obj
 0001:00176ae0       ?GetSchemaFontSet@CTextSchemas@@QEAAPEBUfont_set_t@@PEBD@Z 0000000140177ae0 f   textschemas.obj
 0001:00176c30       ?UserMSG_Msg_CheckBuffer@@YAXAEAUusermsgdata_t@@I@Z 0000000140177c30 f   usermsg.obj
 0001:00176d00       ?UserMSG_UserMessageBegin@@YAXAEAV?$CArray@Uusermsg_t@@@@AEAUusermsgdata_t@@W4msgdest_t@@HPEBVVector@@PEBUedict_t@@@Z 0000000140177d00 f   usermsg.obj
 0001:00176df0       ?UserMSG_Msg_WriteEntindex@@YAXAEAUusermsgdata_t@@H@Z 0000000140177df0 f   usermsg.obj
 0001:00176e50       ?UserMSG_Msg_WriteInt16@@YAXAEAUusermsgdata_t@@F@Z 0000000140177e50 f   usermsg.obj
 0001:00176eb0       ?UserMSG_Msg_WriteInt32@@YAXAEAUusermsgdata_t@@H@Z 0000000140177eb0 f   usermsg.obj
 0001:00176f10       ?UserMSG_Msg_WriteUint32@@YAXAEAUusermsgdata_t@@I@Z 0000000140177f10 f   usermsg.obj
 0001:00176f70       ?UserMSG_Msg_WriteByte@@YAXAEAUusermsgdata_t@@E@Z 0000000140177f70 f   usermsg.obj
 0001:00176fd0       ?UserMSG_Msg_WriteUint64@@YAXAEAUusermsgdata_t@@_K@Z 0000000140177fd0 f   usermsg.obj
 0001:00177030       ?UserMSG_Msg_WriteSmallFloat@@YAXAEAUusermsgdata_t@@M@Z 0000000140178030 f   usermsg.obj
 0001:001770b0       ?UserMSG_Msg_WriteString@@YAXAEAUusermsgdata_t@@PEBD@Z 00000001401780b0 f   usermsg.obj
 0001:00177190       ?UserMSG_Msg_WriteDouble@@YAXAEAUusermsgdata_t@@N@Z 0000000140178190 f   usermsg.obj
 0001:001771f0       ?UserMSG_Msg_WriteBuffer@@YAXAEAUusermsgdata_t@@PEBEI@Z 00000001401781f0 f   usermsg.obj
 0001:00177280       ?UserMSG_Msg_WriteChar@@YAXAEAUusermsgdata_t@@D@Z 0000000140178280 f   usermsg.obj
 0001:001772e0       ?UserMSG_Msg_WriteFloat@@YAXAEAUusermsgdata_t@@M@Z 00000001401782e0 f   usermsg.obj
 0001:00177340       ?UserMSG_Msg_WriteUint16@@YAXAEAUusermsgdata_t@@G@Z 0000000140178340 f   usermsg.obj
 0001:001773a0       ?UserMSG_RegisterUserMessage@@YAHAEAV?$CArray@Uusermsg_t@@@@PEBDH@Z 00000001401783a0 f   usermsg.obj
 0001:00177740       ?UserMSG_Msg_WriteInt64@@YAXAEAUusermsgdata_t@@_J@Z 0000000140178740 f   usermsg.obj
 0001:001777a0       ?TR_VBMSetHullPlane@@YAXPEAUentity_vbmhulldata_t@@AEAUplane_t@@HIM@Z 00000001401787a0 f   vbmtrace.obj
 0001:00177830       ?TR_VBMInitHulls@@YAXPEBUstudiohdr_t@@W4hull_types_t@@AEAUentity_vbmhulldata_t@@@Z 0000000140178830 f   vbmtrace.obj
 0001:00177a40       ?TR_VBMGetHulls@@YAPEBV?$CArray@Uvbmhitboxhull_t@@@@PEAUentity_vbmhulldata_t@@AEBVVector@@1W4hull_types_t@@HPEAV3@@Z 0000000140178a40 f   vbmtrace.obj
 0001:00177b00       ?TR_VBMHullCheck@@YAXPEBV?$CArray@Uvbmhitboxhull_t@@@@AEBVVector@@1AEAUtrace_t@@@Z 0000000140178b00 f   vbmtrace.obj
 0001:00177ca0       ?TR_VBMCheckHullInfo@@YA_NPEAUentity_vbmhulldata_t@@PEBUcache_model_t@@MAEBUentity_state_t@@@Z 0000000140178ca0 f   vbmtrace.obj
 0001:00177dc0       ?TR_VBMSetStateInfo@@YAXPEAUentity_vbmhulldata_t@@PEBUcache_model_t@@MAEBUentity_state_t@@@Z 0000000140178dc0 f   vbmtrace.obj
 0001:00177e40       ?TR_VBMSetupBones@@YAXPEAUentity_vbmhulldata_t@@PEBUstudiohdr_t@@MMPEBUmstudioseqdesc_t@@PEBUcache_model_t@@AEBUentity_state_t@@@Z 0000000140178e40 f   vbmtrace.obj
 0001:00178cf0       ?TR_VBMSetHullInfo@@YAXAEAPEAUentity_vbmhulldata_t@@PEBUcache_model_t@@AEBVVector@@2AEBUentity_state_t@@MW4hull_types_t@@@Z 0000000140179cf0 f   vbmtrace.obj
 0001:00179560       ?WriteGlobalState@CSaveRestore@@QEAAXIPEBD0W4globalstate_state_t@@@Z 000000014017a560 f   saverestore.obj
 0001:00179680       ?WriteEntindex@CSaveRestore@@QEAAXPEBDPEBEIW4entfieldtype_t@@@Z 000000014017a680 f   saverestore.obj
 0001:00179790       ?WriteCoord@CSaveRestore@@QEAAXPEBDPEBEIW4entfieldtype_t@@@Z 000000014017a790 f   saverestore.obj
 0001:00179850       ?WriteVector@CSaveRestore@@QEAAXPEBDPEBEIW4entfieldtype_t@@@Z 000000014017a850 f   saverestore.obj
 0001:001798f0       ?WriteRawString@CSaveRestore@@QEAAXPEBDPEBEW4entfieldtype_t@@@Z 000000014017a8f0 f   saverestore.obj
 0001:00179970       ?WriteString@CSaveRestore@@QEAAXPEBDPEBEIW4entfieldtype_t@@@Z 000000014017a970 f   saverestore.obj
 0001:00179a00       ?WriteTime@CSaveRestore@@QEAAXPEBDPEBEIW4entfieldtype_t@@@Z 000000014017aa00 f   saverestore.obj
 0001:00179ac0       ?WriteDouble@CSaveRestore@@QEAAXPEBDPEBEIW4entfieldtype_t@@@Z 000000014017aac0 f   saverestore.obj
 0001:00179b50       ?WriteFloat@CSaveRestore@@QEAAXPEBDPEBEIW4entfieldtype_t@@@Z 000000014017ab50 f   saverestore.obj
 0001:00179be0       ?WriteUint64@CSaveRestore@@QEAAXPEBDPEBEIW4entfieldtype_t@@@Z 000000014017abe0 f   saverestore.obj
 0001:00179c60       ?WriteInt64@CSaveRestore@@QEAAXPEBDPEBEIW4entfieldtype_t@@@Z 000000014017ac60 f   saverestore.obj
 0001:00179ce0       ?WriteUint32@CSaveRestore@@QEAAXPEBDPEBEIW4entfieldtype_t@@@Z 000000014017ace0 f   saverestore.obj
 0001:00179d60       ?WriteInt32@CSaveRestore@@QEAAXPEBDPEBEIW4entfieldtype_t@@@Z 000000014017ad60 f   saverestore.obj
 0001:00179de0       ?WriteUint16@CSaveRestore@@QEAAXPEBDPEBEIW4entfieldtype_t@@@Z 000000014017ade0 f   saverestore.obj
 0001:00179e60       ?WriteInt16@CSaveRestore@@QEAAXPEBDPEBEIW4entfieldtype_t@@@Z 000000014017ae60 f   saverestore.obj
 0001:00179ee0       ?WriteChar@CSaveRestore@@QEAAXPEBDPEBEIW4entfieldtype_t@@@Z 000000014017aee0 f   saverestore.obj
 0001:00179f40       ?WriteByte@CSaveRestore@@QEAAXPEBDPEBEIW4entfieldtype_t@@@Z 000000014017af40 f   saverestore.obj
 0001:00179fa0       ?WriteBool@CSaveRestore@@QEAAXPEBDPEBEIW4entfieldtype_t@@@Z 000000014017afa0 f   saverestore.obj
 0001:0017a020       ?SaveField@CSaveRestore@@AEAAPEAUsave_field_t@@PEBDW4entfieldtype_t@@AEBI@Z 000000014017b020 f   saverestore.obj
 0001:0017a0f0       ?SaveToDataBuffer@CSaveRestore@@AEAAAEAUsave_block_t@@PEBEH@Z 000000014017b0f0 f   saverestore.obj
 0001:0017a250       ?SaveToStringBuffer@CSaveRestore@@AEAAAEAUsave_block_t@@PEBD@Z 000000014017b250 f   saverestore.obj
 0001:0017a530       ?SaveEntity@CSaveRestore@@AEAAXPEAUedict_t@@AEAUsave_edict_info_t@@@Z 000000014017b530 f   saverestore.obj
 0001:0017a740       ?GetSaveFileType@CSaveRestore@@QEAA?AW4savefile_type_t@@PEBD@Z 000000014017b740 f   saverestore.obj
 0001:0017a780       ?GetMostRecentSave@CSaveRestore@@QEAA_NPEAVCString@@@Z 000000014017b780 f   saverestore.obj
 0001:0017ae00       ?CleanSaveFiles@CSaveRestore@@AEAAXPEBD@Z 000000014017be00 f   saverestore.obj
 0001:0017b740       ??1CSaveRestore@@QEAA@XZ   000000014017c740 f   saverestore.obj
 0001:0017b7c0       ??0CSaveRestore@@QEAA@XZ   000000014017c7c0 f   saverestore.obj
 0001:0017b890       ?Save_WriteUint32@@YAXPEBDPEBEIW4entfieldtype_t@@@Z 000000014017c890 f   saverestore.obj
 0001:0017b910       ?Save_WriteByte@@YAXPEBDPEBEIW4entfieldtype_t@@@Z 000000014017c910 f   saverestore.obj
 0001:0017b970       ?Save_WriteDouble@@YAXPEBDPEBEIW4entfieldtype_t@@@Z 000000014017c970 f   saverestore.obj
 0001:0017ba00       ?Save_WriteFloat@@YAXPEBDPEBEIW4entfieldtype_t@@@Z 000000014017ca00 f   saverestore.obj
 0001:0017ba90       ?Save_WriteVector@@YAXPEBDPEBEIW4entfieldtype_t@@@Z 000000014017ca90 f   saverestore.obj
 0001:0017bb30       ?Save_WriteCoord@@YAXPEBDPEBEIW4entfieldtype_t@@@Z 000000014017cb30 f   saverestore.obj
 0001:0017bbf0       ?Save_WriteString@@YAXPEBDPEBEIW4entfieldtype_t@@@Z 000000014017cbf0 f   saverestore.obj
 0001:0017bc80       ?Save_WriteBool@@YAXPEBDPEBEIW4entfieldtype_t@@@Z 000000014017cc80 f   saverestore.obj
 0001:0017bd00       ?Save_WriteRawString@@YAXPEBDPEBEW4entfieldtype_t@@@Z 000000014017cd00 f   saverestore.obj
 0001:0017bd70       ?Save_WriteUint16@@YAXPEBDPEBEIW4entfieldtype_t@@@Z 000000014017cd70 f   saverestore.obj
 0001:0017bdf0       ?Save_WriteChar@@YAXPEBDPEBEIW4entfieldtype_t@@@Z 000000014017cdf0 f   saverestore.obj
 0001:0017be50       ?Save_WriteUint64@@YAXPEBDPEBEIW4entfieldtype_t@@@Z 000000014017ce50 f   saverestore.obj
 0001:0017bed0       ?Save_WriteTime@@YAXPEBDPEBEIW4entfieldtype_t@@@Z 000000014017ced0 f   saverestore.obj
 0001:0017bf90       ?Save_WriteEntindex@@YAXPEBDPEBEIW4entfieldtype_t@@@Z 000000014017cf90 f   saverestore.obj
 0001:0017c0a0       ?LoadConnectionsFromSaveFile@CSaveRestore@@QEAAXPEBUsave_header_t@@@Z 000000014017d0a0 f   saverestore.obj
 0001:0017c170       ?LoadGlobalsFromSaveFile@CSaveRestore@@QEAAXPEBUsave_header_t@@@Z 000000014017d170 f   saverestore.obj
 0001:0017c1f0       ?LoadSaveData@CSaveRestore@@QEAA_NPEBUsave_header_t@@PEBVVector@@@Z 000000014017d1f0 f   saverestore.obj
 0001:0017d800       ?FreeSaveFile@CSaveRestore@@QEAAXPEBE@Z 000000014017e800 f   saverestore.obj
 0001:0017d810       ?LoadSaveFile@CSaveRestore@@QEAAPEBEPEBDPEAI@Z 000000014017e810 f   saverestore.obj
 0001:0017d8e0       ?CreateSaveFile@CSaveRestore@@QEAA_NPEBDW4savefile_type_t@@PEBVVector@@PEAVCString@@_N@Z 000000014017e8e0 f   saverestore.obj
 0001:0017fbf0       ?Save_WriteGlobalState@@YAXIPEBD0W4globalstate_state_t@@@Z 0000000140180bf0 f   saverestore.obj
 0001:0017fd30       ?Save_WriteInt32@@YAXPEBDPEBEIW4entfieldtype_t@@@Z 0000000140180d30 f   saverestore.obj
 0001:0017fdb0       ?Save_WriteInt64@@YAXPEBDPEBEIW4entfieldtype_t@@@Z 0000000140180db0 f   saverestore.obj
 0001:0017fe30       ?Save_WriteInt16@@YAXPEBDPEBEIW4entfieldtype_t@@@Z 0000000140180e30 f   saverestore.obj
 0001:0017feb0       ?TR_HullForBSP@@YAPEBUhull_t@@AEBUentity_state_t@@W4hull_types_t@@AEAVVector@@AEBV4@@Z 0000000140180eb0 f   trace_shared.obj
 0001:0017ff50       ?TR_RecursiveHullCheck@@YA_NPEBUhull_t@@HNNAEBVVector@@1AEAUtrace_t@@@Z 0000000140180f50 f   trace_shared.obj
 0001:00180430       ?TR_HullForBox@@YAPEBUhull_t@@AEBVVector@@0@Z 0000000140181430 f   trace_shared.obj
 0001:00180490       ?TR_MoveBounds@@YAXAEBVVector@@000AEAV1@1@Z 0000000140181490 f   trace_shared.obj
 0001:00180620       ?TR_InitBoxHull@@YAXXZ     0000000140181620 f   trace_shared.obj
 0001:00180a20       ?TR_PlayerTraceSingleEntity@@YAXAEBUentity_state_t@@PEAUentity_vbmhulldata_t@@AEBVVector@@2W4hull_types_t@@H22AEAUtrace_t@@@Z 0000000140181a20 f   trace_shared.obj
 0001:00180e30       ?TR_TraceTexture@@YAPEBDAEBUentity_state_t@@AEBVVector@@1@Z 0000000140181e30 f   trace_shared.obj
 0001:00181020       ?TR_MoveBoundsPoint@@YAXAEBVVector@@0AEAV1@1@Z 0000000140182020 f   trace_shared.obj
 0001:00181120       ?TR_HullPointContents@@YAHPEBUhull_t@@HAEBVVector@@@Z 0000000140182120 f   trace_shared.obj
 0001:00181200       ?Think@CBSPRenderer@@QEAAXXZ 0000000140182200 f   r_bsp.obj
 0001:00181440       ?CalcFogCoord@CBSPRenderer@@AEAAMM@Z 0000000140182440 f   r_bsp.obj
 0001:001814d0       ?DrawNormalDecals@CBSPRenderer@@QEAA_NXZ 00000001401824d0 f   r_bsp.obj
 0001:00181770       ?DrawDecals@CBSPRenderer@@AEAA_N_N@Z 0000000140182770 f   r_bsp.obj
 0001:00181d50       ?DrawDecal@CBSPRenderer@@AEAA_NPEAUbsp_decal_t@@_NAEAW4decal_rendermode_t@@@Z 0000000140182d50 f   r_bsp.obj
 0001:00182db0       ?GetDecalOffset@CBSPRenderer@@AEAAII@Z 0000000140183db0 f   r_bsp.obj
 0001:00182ee0       ?DecalSurface@CBSPRenderer@@AEAAXPEBUmsurface_t@@PEAUbsp_decal_t@@AEBVVector@@2_NPEAUen_texture_t@@@Z 0000000140183ee0 f   r_bsp.obj
 0001:00184640       ?RecursivePasteDecal@CBSPRenderer@@AEAAXPEAUmnode_t@@PEAUbsp_decal_t@@EAEBVVector@@2@Z 0000000140185640 f   r_bsp.obj
 0001:001849e0       ?RemoveDecalFromVBO@CBSPRenderer@@AEAAXPEAUbsp_decal_t@@@Z 00000001401859e0 f   r_bsp.obj
 0001:00184cb0       ?DeleteDecal@CBSPRenderer@@AEAAXPEAUbsp_decal_t@@@Z 0000000140185cb0 f   r_bsp.obj
 0001:00184d10       ?BatchBrushModelForVSM@CBSPRenderer@@AEAA_NAEAUcl_entity_t@@_N@Z 0000000140185d10 f   r_bsp.obj
 0001:00185650       ?DrawVSMFaces@CBSPRenderer@@AEAA_NXZ 0000000140186650 f   r_bsp.obj
 0001:001859b0       ?PrepareVSM@CBSPRenderer@@AEAAXXZ 00000001401869b0 f   r_bsp.obj
 0001:00185bc0       ?DrawFinal@CBSPRenderer@@AEAA_NXZ 0000000140186bc0 f   r_bsp.obj
 0001:00187870       ?DrawLights@CBSPRenderer@@AEAA_N_N@Z 0000000140188870 f   r_bsp.obj
 0001:0018a470       ?FinishLight@CBSPRenderer@@AEAAXPEAUcl_dlight_t@@AEAI@Z 000000014018b470 f   r_bsp.obj
 0001:0018a5b0       ?SetupLight@CBSPRenderer@@AEAA_NPEAUcl_dlight_t@@IAEAIW4lightbatchtype_t@@@Z 000000014018b5b0 f   r_bsp.obj
 0001:0018b220       ?DrawBrushModel@CBSPRenderer@@AEAA_NAEAUcl_entity_t@@_N@Z 000000014018c220 f   r_bsp.obj
 0001:0018bd40       ?BindTextures@CBSPRenderer@@AEAA_NPEAUbsp_texture_t@@PEAUcubemapinfo_t@@1AEAI@Z 000000014018cd40 f   r_bsp.obj
 0001:0018c860       ?TextureAnimation@CBSPRenderer@@AEAAPEAUmtexture_t@@PEAU2@I@Z 000000014018d860 f   r_bsp.obj
 0001:0018c910       ?DrawFirst@CBSPRenderer@@AEAA_NXZ 000000014018d910 f   r_bsp.obj
 0001:0018e9c0       ?FlagIfDynamicLighted@CBSPRenderer@@AEAAXAEBVVector@@0@Z 000000014018f9c0 f   r_bsp.obj
 0001:0018ec80       ?RecursiveWorldNode@CBSPRenderer@@AEAAXPEAUmnode_t@@@Z 000000014018fc80 f   r_bsp.obj
 0001:0018f040       ?Prepare@CBSPRenderer@@AEAA_NXZ 0000000140190040 f   r_bsp.obj
 0001:0018f900       ?DrawWorld@CBSPRenderer@@AEAA_NXZ 0000000140190900 f   r_bsp.obj
 0001:0018fdb0       ?DrawScreenSpaceNormals@CBSPRenderer@@AEAA_NXZ 0000000140190db0 f   r_bsp.obj
 0001:001902e0       ?DrawTransparent@CBSPRenderer@@QEAA_NXZ 00000001401912e0 f   r_bsp.obj
 0001:00190680       ?DrawNormal@CBSPRenderer@@QEAA_NXZ 0000000140191680 f   r_bsp.obj
 0001:00190960       ?InitTextures@CBSPRenderer@@AEAAXAEAVCWADTextureResource@@AEBV?$CArray@VCString@@@@@Z 0000000140191960 f   r_bsp.obj
 0001:00190df0       ?LoadMapTexture@CBSPRenderer@@AEAAPEAUen_material_t@@AEAVCWADTextureResource@@AEBV?$CArray@VCString@@@@PEBD@Z 0000000140191df0 f   r_bsp.obj
 0001:001913c0       ?SetLightmapCoords@CBSPRenderer@@QEAAXXZ 00000001401923c0 f   r_bsp.obj
 0001:001914f0       ?ClearGame@CBSPRenderer@@QEAAXXZ 00000001401924f0 f   r_bsp.obj
 0001:00191920       ?InitGame@CBSPRenderer@@QEAA_NXZ 0000000140192920 f   r_bsp.obj
 0001:00191a90       ?LoadTextures@CBSPRenderer@@AEAAXXZ 0000000140192a90 f   r_bsp.obj
 0001:00191c80       ?ClearGL@CBSPRenderer@@QEAAXXZ 0000000140192c80 f   r_bsp.obj
 0001:00191cf0       ?InitGL@CBSPRenderer@@QEAA_NXZ 0000000140192cf0 f   r_bsp.obj
 0001:001938e0       ?Shutdown@CBSPRenderer@@QEAAXXZ 00000001401948e0 f   r_bsp.obj
 0001:00193910       ?Init@CBSPRenderer@@QEAA_NXZ 0000000140194910 f   r_bsp.obj
 0001:001944d0       ??1CBSPRenderer@@QEAA@XZ   00000001401954d0 f   r_bsp.obj
 0001:00194580       ??0CBSPRenderer@@QEAA@XZ   0000000140195580 f   r_bsp.obj
 0001:00194750       ?DrawSkyBox@CBSPRenderer@@QEAA_N_N@Z 0000000140195750 f   r_bsp.obj
 0001:00194bc0       ?DrawVSM@CBSPRenderer@@QEAA_NPEAUcl_dlight_t@@PEAPEAUcl_entity_t@@I_N@Z 0000000140195bc0 f   r_bsp.obj
 0001:00195160       ?CreateDecal@CBSPRenderer@@QEAAXAEBVVector@@0PEAUdecalgroupentry_t@@EMMM@Z 0000000140196160 f   r_bsp.obj
 0001:00196990       ?InitVBO@CBSPRenderer@@QEAAXXZ 0000000140197990 f   r_bsp.obj
 0001:00198630       ?InitLightmaps@CBSPRenderer@@QEAAX_N@Z 0000000140199630 f   r_bsp.obj
 0001:00198e10       ?KeyEvent@CMenuButton@@QEAA_NHF_N@Z 0000000140199e10 f   r_menu.obj
 0001:00198e70       ?MouseButtonEvent@CMenuButton@@QEAA_NH_N@Z 0000000140199e70 f   r_menu.obj
 0001:00198f30       ?SetProperties@CMenuButton@@QEAAXHHII@Z 0000000140199f30 f   r_menu.obj
 0001:00198f50       ?IsCursorOver@CMenuButton@@QEBA_NHH@Z 0000000140199f50 f   r_menu.obj
 0001:00199030       ?Think@CMenuButton@@QEAAXXZ 000000014019a030 f   r_menu.obj
 0001:00199340       ?Draw@CMenuButton@@QEAA_NPEBUfont_set_t@@@Z 000000014019a340 f   r_menu.obj
 0001:00199490       ??1CMenuButton@@QEAA@XZ    000000014019a490 f   r_menu.obj
 0001:001994b0       ??0CMenuButton@@QEAA@PEAVCMenu@@W4mbutton_t@1@PEBDW4SDL_Scancode@@@Z 000000014019a4b0 f   r_menu.obj
 0001:00199520       ?ClearLatestSaveFile@CMenu@@QEAAXXZ 000000014019a520 f   r_menu.obj
 0001:00199600       ?ResetMenuBackground@CMenu@@QEAAXXZ 000000014019a600 f   r_menu.obj
 0001:00199620       ?CursorLeaveButton@CMenu@@QEAAXW4mbutton_t@1@@Z 000000014019a620 f   r_menu.obj
 0001:001996d0       ?CursorOverButton@CMenu@@QEAAXW4mbutton_t@1@@Z 000000014019a6d0 f   r_menu.obj
 0001:00199770       ?ResumeMenuMusic@CMenu@@QEAAXXZ 000000014019a770 f   r_menu.obj
 0001:00199ae0       ?PauseMenuMusic@CMenu@@QEAAXXZ 000000014019aae0 f   r_menu.obj
 0001:00199ba0       ?InitialStartup@CMenu@@QEAAXXZ 000000014019aba0 f   r_menu.obj
 0001:00199c00       ?OnBgTextureDeleted@CMenu@@QEAAXPEAUen_texture_t@@@Z 000000014019ac00 f   r_menu.obj
 0001:00199cf0       ?GetCurrentBgTexture@CMenu@@QEAAPEAUen_texture_t@@XZ 000000014019acf0 f   r_menu.obj
 0001:00199d00       ?SetCurrentBgTexture@CMenu@@QEAAXPEAUen_texture_t@@@Z 000000014019ad00 f   r_menu.obj
 0001:00199d10       ?AddSaveBackgroundTexture@CMenu@@QEAAXPEAUen_texture_t@@@Z 000000014019ad10 f   r_menu.obj
 0001:00199db0       ?FreeSaveBackgroundTextures@CMenu@@QEAAXXZ 000000014019adb0 f   r_menu.obj
 0001:00199e50       ?ButtonAction@CMenu@@QEAAXW4mbutton_t@1@@Z 000000014019ae50 f   r_menu.obj
 0001:0019a0f0       ?Think@CMenu@@QEAAXXZ      000000014019b0f0 f   r_menu.obj
 0001:0019a210       ?GetLoadingTexture@CMenu@@QEAAPEAUen_texture_t@@XZ 000000014019b210 f   r_menu.obj
 0001:0019a240       ?SetBlendTargetTexture@CMenu@@QEAAXPEAUen_texture_t@@@Z 000000014019b240 f   r_menu.obj
 0001:0019a2f0       ?DrawMenuFade@CMenu@@QEAA_NXZ 000000014019b2f0 f   r_menu.obj
 0001:0019aa00       ?DrawMenuElements@CMenu@@AEAA?AW4rendercode_t@1@PEAVCBasicDraw@@@Z 000000014019ba00 f   r_menu.obj
 0001:0019b480       ?DrawMenuBackground@CMenu@@AEAA_NPEAVCBasicDraw@@@Z 000000014019c480 f   r_menu.obj
 0001:0019c100       ?Draw@CMenu@@QEAA?AW4rendercode_t@1@XZ 000000014019d100 f   r_menu.obj
 0001:0019c1b0       ?SetButtons@CMenu@@AEAAXXZ 000000014019d1b0 f   r_menu.obj
 0001:0019c610       ?KeyEvent@CMenu@@QEAA_NHF_N@Z 000000014019d610 f   r_menu.obj
 0001:0019c710       ?MouseButtonEvent@CMenu@@QEAAXH_N@Z 000000014019d710 f   r_menu.obj
 0001:0019c820       ?PlayMenuSound@CMenu@@SAXPEBD@Z 000000014019d820 f   r_menu.obj
 0001:0019c880       ?ClearGL@CMenu@@QEAAXXZ    000000014019d880 f   r_menu.obj
 0001:0019c8a0       ?InitGL@CMenu@@QEAA_NXZ    000000014019d8a0 f   r_menu.obj
 0001:0019c8c0       ?Init@CMenu@@QEAA_NXZ      000000014019d8c0 f   r_menu.obj
 0001:0019ccf0       ??1CMenu@@QEAA@XZ          000000014019dcf0 f   r_menu.obj
 0001:0019cfc0       ??0CMenu@@QEAA@XZ          000000014019dfc0 f   r_menu.obj
 0001:0019d680       ?ShowMenu@CMenu@@QEAAXXZ   000000014019e680 f   r_menu.obj
 0001:0019d880       ?UpdateContineButton@CMenu@@QEAAXXZ 000000014019e880 f   r_menu.obj
 0001:0019d9d0       ?HideMenu@CMenu@@QEAAXXZ   000000014019e9d0 f   r_menu.obj
 0001:0019daf0       ?Sys_InitCVars@@YAXXZ      000000014019eaf0 f   sys_cmd.obj
 0001:0019dd40       ?Sys_InitCommands@@YAXXZ   000000014019ed40 f   sys_cmd.obj
 0001:0019df70       ?Cmd_Debug@@YAXXZ          000000014019ef70 f   sys_cmd.obj
 0001:0019e170       ?GetMemoryInfo@@YAXXZ      000000014019f170 f   sys_cmd.obj
 0001:0019e1f0       ?GetGPUInfo@@YAXXZ         000000014019f1f0 f   sys_cmd.obj
 0001:0019e290       ?GetCPUInfo@@YAXXZ         000000014019f290 f   sys_cmd.obj
 0001:0019e3a0       ?GetWindowsVersion@@YAXXZ  000000014019f3a0 f   sys_cmd.obj
 0001:0019e460       ?Cmd_ChangeLevel@@YAXXZ    000000014019f460 f   sys_cmd.obj
 0001:0019e4f0       ?Cmd_Snapshot@@YAXXZ       000000014019f4f0 f   sys_cmd.obj
 0001:0019edb0       ?Cmd_Reload@@YAXXZ         000000014019fdb0 f   sys_cmd.obj
 0001:0019ee70       ?Cmd_Restart@@YAXXZ        000000014019fe70 f   sys_cmd.obj
 0001:0019ef80       ?Cmd_Noclip@@YAXXZ         000000014019ff80 f   sys_cmd.obj
 0001:0019f040       ?Cmd_Notarget@@YAXXZ       00000001401a0040 f   sys_cmd.obj
 0001:0019f100       ?Cmd_God@@YAXXZ            00000001401a0100 f   sys_cmd.obj
 0001:0019f1c0       ?Cmd_Load@@YAXXZ           00000001401a01c0 f   sys_cmd.obj
 0001:0019f520       ?Cmd_AutoSave@@YAXXZ       00000001401a0520 f   sys_cmd.obj
 0001:0019f5f0       ?Cmd_QuickSave@@YAXXZ      00000001401a05f0 f   sys_cmd.obj
 0001:0019f6c0       ?Cmd_Save@@YAXXZ           00000001401a06c0 f   sys_cmd.obj
 0001:0019f770       ?Cmd_Pos@@YAXXZ            00000001401a0770 f   sys_cmd.obj
 0001:0019fa10       ?Cmd_Pause@@YAXXZ          00000001401a0a10 f   sys_cmd.obj
 0001:0019fa40       ?Cmd_ListMaps@@YAXXZ       00000001401a0a40 f   sys_cmd.obj
 0001:0019ff50       ?Cmd_LoadMap@@YAXXZ        00000001401a0f50 f   sys_cmd.obj
 0001:001a01b0       ?Cmd_Sys_Quit@@YAXXZ       00000001401a11b0 f   sys_cmd.obj
 0001:001a01c0       ?Sys_CheckLaunchArgs@@YAHPEBD@Z 00000001401a11c0 f   sys_misc.obj
 0001:001a02d0       ?Sys_LoadGameInfo@@YA_NPEAV?$CArray@VCString@@@@@Z 00000001401a12d0 f   sys_misc.obj
 0001:001a1490       ?Sys_LoadDefaultFont@@YA_NPEBD@Z 00000001401a2490 f   sys_misc.obj
 0001:001a15e0       ?Sys_IsGameControlActive@@YA_NXZ 00000001401a25e0 f   sys_misc.obj
 0001:001a1670       ?CommandExists@CCommandManager@@QEBA_NPEBD@Z 00000001401a2670 f   commands.obj
 0001:001a1740       ?CacheCommand@CCommandManager@@QEAAXPEBD@Z 00000001401a2740 f   commands.obj
 0001:001a1cc0       ?ExecuteCommands@CCommandManager@@QEAAXXZ 00000001401a2cc0 f   commands.obj
 0001:001a1ea0       ?IncreaseBufferSize@CCommandManager@@AEAAXXZ 00000001401a2ea0 f   commands.obj
 0001:001a1f40       ?Init@CCommandManager@@QEAAXXZ 00000001401a2f40 f   commands.obj
 0001:001a1f50       ??1CCommandManager@@QEAA@XZ 00000001401a2f50 f   commands.obj
 0001:001a1fd0       ??0CCommandManager@@QEAA@XZ 00000001401a2fd0 f   commands.obj
 0001:001a2080       ?ForwardToServer@CCommandManager@@QEBA_NXZ 00000001401a3080 f   commands.obj
 0001:001a22c0       ?GetInvokerPlayerIndex@CCommandManager@@QEBAHXZ 00000001401a32c0 f   commands.obj
 0001:001a22d0       ?SetInvokerPlayerIndex@CCommandManager@@QEAAXH@Z 00000001401a32d0 f   commands.obj
 0001:001a22e0       ?GetCommandFlags@CCommandManager@@QEBAHPEBD@Z 00000001401a32e0 f   commands.obj
 0001:001a23f0       ?ExecuteCommand@CCommandManager@@QEAA_NPEBD_N@Z 00000001401a33f0 f   commands.obj
 0001:001a2680       ?AddCommand@CCommandManager@@QEAAXPEBD@Z 00000001401a3680 f   commands.obj
 0001:001a2730       ?Cmd_Argv@CCommandManager@@QEBAPEBDI@Z 00000001401a3730 f   commands.obj
 0001:001a2760       ?CreateCommand@CCommandManager@@QEAAXPEBDP6AXXZ0H@Z 00000001401a3760 f   commands.obj
 0001:001a2b70       ?CmdExecuteScript@CConfig@@QEAAXXZ 00000001401a3b70 f   config.obj
 0001:001a2bb0       ?ReadUserConfigFile@CConfig@@CAXPEBD@Z 00000001401a3bb0 f   config.obj
 0001:001a3170       ?ReadSystemConfigFile@CConfig@@AEAAXXZ 00000001401a4170 f   config.obj
 0001:001a3d40       ?WriteConfigFile@CConfig@@AEBAXPEAUconf_group_t@@PEBD@Z 00000001401a4d40 f   config.obj
 0001:001a53a0       ?CreateField@CConfig@@QEAAPEAUconf_field_t@@PEAUconf_group_t@@PEBDW4field_type_t@@@Z 00000001401a63a0 f   config.obj
 0001:001a5710       ?FindField@CConfig@@AEAAPEAUconf_field_t@@PEAUconf_group_t@@PEBD@Z 00000001401a6710 f   config.obj
 0001:001a5860       ?GetString@CConfig@@QEAAPEBDPEAUconf_group_t@@PEBD@Z 00000001401a6860 f   config.obj
 0001:001a59a0       ?DeleteField@CConfig@@QEAA_NPEBD0@Z 00000001401a69a0 f   config.obj
 0001:001a5b00       ?DeleteField@CConfig@@SA_NPEAUconf_group_t@@PEBD@Z 00000001401a6b00 f   config.obj
 0001:001a5c30       ?SetValue@CConfig@@QEAA_NPEAUconf_group_t@@PEBD1_NW4field_type_t@@@Z 00000001401a6c30 f   config.obj
 0001:001a5fa0       ?SetValue@CConfig@@QEAA_NPEAUconf_group_t@@PEBDM_N@Z 00000001401a6fa0 f   config.obj
 0001:001a6170       ?ResetStatus@CConfig@@AEAAXXZ 00000001401a7170 f   config.obj
 0001:001a6190       ?FlagRewrite@CConfig@@CAXPEAUconf_group_t@@@Z 00000001401a7190 f   config.obj
 0001:001a61a0       ?PostThink@CConfig@@QEAAXXZ 00000001401a71a0 f   config.obj
 0001:001a6290       ?Init@CConfig@@QEAAXXZ     00000001401a7290 f   config.obj
 0001:001a62e0       ??1CConfig@@QEAA@XZ        00000001401a72e0 f   config.obj
 0001:001a63d0       ??0CConfig@@QEAA@XZ        00000001401a73d0 f   config.obj
 0001:001a6400       ?Cmd_ExecScript@@YAXXZ     00000001401a7400 f   config.obj
 0001:001a6440       ?SetValue@CConfig@@QEAA_NPEBD0M_N@Z 00000001401a7440 f   config.obj
 0001:001a64a0       ?SetValue@CConfig@@QEAA_NPEBD00_NW4field_type_t@@@Z 00000001401a74a0 f   config.obj
 0001:001a6500       ?GetStatus@CConfig@@QEBA?BW4cf_status_t@@XZ 00000001401a7500 f   config.obj
 0001:001a6510       ?GetInt@CConfig@@QEAA?BHPEAUconf_group_t@@PEBD@Z 00000001401a7510 f   config.obj
 0001:001a6680       ?SetValue@CConfig@@QEAA_NPEAUconf_group_t@@PEBDH_N@Z 00000001401a7680 f   config.obj
 0001:001a6850       ?CreateGroup@CConfig@@QEAAPEAUconf_group_t@@PEBD0W4group_type_t@@@Z 00000001401a7850 f   config.obj
 0001:001a6cb0       ?FindGroup@CConfig@@QEAAPEAUconf_group_t@@PEBD@Z 00000001401a7cb0 f   config.obj
 0001:001a6dd0       ?CmdUnbindAll@CInput@@QEAAXXZ 00000001401a7dd0 f   input.obj
 0001:001a6ee0       ?CmdUnbindKey@CInput@@QEAAXXZ 00000001401a7ee0 f   input.obj
 0001:001a70d0       ?CmdBindKey@CInput@@QEAAXXZ 00000001401a80d0 f   input.obj
 0001:001a75a0       ?GetMouseButtonName@CInput@@QEAAPEBDH@Z 00000001401a85a0 f   input.obj
 0001:001a7610       ?GetKeynameForScancode@CInput@@QEAAPEBDH@Z 00000001401a8610 f   input.obj
 0001:001a7690       ?GetKeynameForBind@CInput@@QEAAPEBDPEBD@Z 00000001401a8690 f   input.obj
 0001:001a77b0       ?MouseWheelEvent@CInput@@QEAAXH_NH@Z 00000001401a87b0 f   input.obj
 0001:001a7c20       ?MouseButtonEvent@CInput@@QEAAXH_N@Z 00000001401a8c20 f   input.obj
 0001:001a8160       ?KeyEvent@CInput@@QEAAXHF_N@Z 00000001401a9160 f   input.obj
 0001:001a86b0       ?HandleInput@CInput@@QEAAXXZ 00000001401a96b0 f   input.obj
 0001:001a8790       ?HandleSDLEvent@CInput@@QEAAXAEBTSDL_Event@@@Z 00000001401a9790 f   input.obj
 0001:001a8950       ?LoadKeyNames@CInput@@QEAA_NXZ 00000001401a9950 f   input.obj
 0001:001aa200       ?Init@CInput@@QEAA_NXZ     00000001401ab200 f   input.obj
 0001:001aa4f0       ??1CInput@@QEAA@XZ         00000001401ab4f0 f   input.obj
 0001:001aa550       ??0CInput@@QEAA@XZ         00000001401ab550 f   input.obj
 0001:001aa5a0       ?Cmd_UnbindAll@@YAXXZ      00000001401ab5a0 f   input.obj
 0001:001aa6b0       ?Cmd_UnbindKey@@YAXXZ      00000001401ab6b0 f   input.obj
 0001:001aa6c0       ?Cmd_BindKey@@YAXXZ        00000001401ab6c0 f   input.obj
 0001:001aa6d0       ?GetMouseDelta@CInput@@QEAAXAEAH0@Z 00000001401ab6d0 f   input.obj
 0001:001aa840       ?GetMousePosition@CInput@@SAXAEAH0@Z 00000001401ab840 f   input.obj
 0001:001aa850       ?HideMouse@CInput@@QEAAXXZ 00000001401ab850 f   input.obj
 0001:001aa880       ?ShowMouse@CInput@@QEAAXXZ 00000001401ab880 f   input.obj
 0001:001aa8b0       ?UpdateMousePositions@CInput@@QEAAX_N@Z 00000001401ab8b0 f   input.obj
 0001:001aaa30       ?ResetMouse@CInput@@QEAAXXZ 00000001401aba30 f   input.obj
 0001:001aaa90       SDL_main                   00000001401aba90 f   main.obj
 0001:001aac60       ?Cmd_LoadAllParticleScripts@@YAXXZ 00000001401abc60 f   r_main.obj
 0001:001ab310       ?Cmd_ShowListMaterial@@YAXXZ 00000001401ac310 f   r_main.obj
 0001:001ab440       ?Cmd_SetTextureMaterialType@@YAXXZ 00000001401ac440 f   r_main.obj
 0001:001abe50       ?Cmd_ListDefaultMaterials@@YAXXZ 00000001401ace50 f   r_main.obj
 0001:001ac540       ?Cmd_DetailAuto@@YAXXZ     00000001401ad540 f   r_main.obj
 0001:001acf10       ?Cmd_TimeRefresh@@YAXXZ    00000001401adf10 f   r_main.obj
 0001:001ad030       ?Cmd_BSPToSMD_Lightmap@@YAXXZ 00000001401ae030 f   r_main.obj
 0001:001aecb0       ?Cmd_BSPToSMD_Textures@@YAXXZ 00000001401afcb0 f   r_main.obj
 0001:001afb10       ?Cmd_EFX_CreateParticle@@YAXXZ 00000001401b0b10 f   r_main.obj
 0001:001afe00       ?Cmd_EFX_BeamRing@@YAXXZ   00000001401b0e00 f   r_main.obj
 0001:001b01e0       ?Cmd_EFX_BeamPoints@@YAXXZ 00000001401b11e0 f   r_main.obj
 0001:001b07c0       ?Cmd_EFX_BeamVaporTrail@@YAXXZ 00000001401b17c0 f   r_main.obj
 0001:001b0d30       ?Cmd_EFX_BeamFollow@@YAXXZ 00000001401b1d30 f   r_main.obj
 0001:001b0fb0       ?Cmd_EFX_BeamEntities@@YAXXZ 00000001401b1fb0 f   r_main.obj
 0001:001b1390       ?Cmd_EFX_BeamEntityPoint@@YAXXZ 00000001401b2390 f   r_main.obj
 0001:001b1900       ?Cmd_EFX_BeamCirclePoints@@YAXXZ 00000001401b2900 f   r_main.obj
 0001:001b1f70       ?Cmd_EFX_BeamLightning@@YAXXZ 00000001401b2f70 f   r_main.obj
 0001:001b24a0       ?Cmd_EFX_BeamSetEnd@@YAXXZ 00000001401b34a0 f   r_main.obj
 0001:001b2660       ?Cmd_EFX_BeamSetStart@@YAXXZ 00000001401b3660 f   r_main.obj
 0001:001b2820       ?Cmd_EFX_CreateRocketTrail@@YAXXZ 00000001401b3820 f   r_main.obj
 0001:001b2a70       ?Cmd_EFX_CreateTeleportSplash@@YAXXZ 00000001401b3a70 f   r_main.obj
 0001:001b2c50       ?Cmd_EFX_CreateLavaSplash@@YAXXZ 00000001401b3c50 f   r_main.obj
 0001:001b2e30       ?Cmd_EFX_CreateParticleEffect@@YAXXZ 00000001401b3e30 f   r_main.obj
 0001:001b3090       ?Cmd_EFX_CreateRocketExplosion@@YAXXZ 00000001401b4090 f   r_main.obj
 0001:001b3270       ?Cmd_EFX_BlobExplosion@@YAXXZ 00000001401b4270 f   r_main.obj
 0001:001b3450       ?Cmd_EFX_ParticleExplosion2@@YAXXZ 00000001401b4450 f   r_main.obj
 0001:001b3640       ?Cmd_EFX_ParticleExplosion1@@YAXXZ 00000001401b4640 f   r_main.obj
 0001:001b3820       ?Cmd_EFX_TempSprite@@YAXXZ 00000001401b4820 f   r_main.obj
 0001:001b3b60       ?Cmd_EFX_TempModel@@YAXXZ  00000001401b4b60 f   r_main.obj
 0001:001b3e90       ?Cmd_EFX_FunnelSprite@@YAXXZ 00000001401b4e90 f   r_main.obj
 0001:001b40c0       ?Cmd_EFX_SphereModel@@YAXXZ 00000001401b50c0 f   r_main.obj
 0001:001b4360       ?Cmd_EFX_BreakModel@@YAXXZ 00000001401b5360 f   r_main.obj
 0001:001b4670       ?Cmd_EFX_BubbleTrail@@YAXXZ 00000001401b5670 f   r_main.obj
 0001:001b4880       ?Cmd_EFX_Bubbles@@YAXXZ    00000001401b5880 f   r_main.obj
 0001:001b4ab0       ?Cmd_LoadModel@@YAXXZ      00000001401b5ab0 f   r_main.obj
 0001:001b4cc0       ?Cmd_CreateSpotLight@@YAXXZ 00000001401b5cc0 f   r_main.obj
 0001:001b4fb0       ?Cmd_CreateDynamicLight@@YAXXZ 00000001401b5fb0 f   r_main.obj
 0001:001b5240       ?Cmd_CreateSprite@@YAXXZ   00000001401b6240 f   r_main.obj
 0001:001b5630       ?Cmd_PasteDecal@@YAXXZ     00000001401b6630 f   r_main.obj
 0001:001b5990       ?R_PerformPendingShaderLoads@@YA_NXZ 00000001401b6990 f   r_main.obj
 0001:001b5ad0       ?R_SortEntities@@YAHPEBX0@Z 00000001401b6ad0 f   r_main.obj
 0001:001b5c80       ?R_ActiveLoadMaxShadersCvarCallBack@@YAXPEAVCCVar@@@Z 00000001401b6c80 f   r_main.obj
 0001:001b5d00       ?R_AnisotropyCvarCallBack@@YAXPEAVCCVar@@@Z 00000001401b6d00 f   r_main.obj
 0001:001b5e80       ?R_DrawOrigins@@YA_NXZ     00000001401b6e80 f   r_main.obj
 0001:001b6590       ?R_DrawWatermark@@YA_NXZ   00000001401b7590 f   r_main.obj
 0001:001b66a0       ?R_PrintCounters@@YA_NXZ   00000001401b76a0 f   r_main.obj
 0001:001b6b00       ?R_UpdateFog@@YAXXZ        00000001401b7b00 f   r_main.obj
 0001:001b6d20       ?R_ClearFog@@YAXXZ         00000001401b7d20 f   r_main.obj
 0001:001b6db0       ?R_DrawShownMaterial@@YA_NXZ 00000001401b7db0 f   r_main.obj
 0001:001b6df0       ?R_DrawPausedLogo@@YA_NXZ  00000001401b7df0 f   r_main.obj
 0001:001b6ec0       ?R_DrawLoadingScreen@@YA_NPEBD@Z 00000001401b7ec0 f   r_main.obj
 0001:001b71c0       ?R_DrawHUD@@YA_N_N@Z       00000001401b81c0 f   r_main.obj
 0001:001b7200       ?R_DrawInterface@@YA_NXZ   00000001401b8200 f   r_main.obj
 0001:001b74d0       ?R_DrawTimeGraph@@YA_NAEAN0@Z 00000001401b84d0 f   r_main.obj
 0001:001b7eb0       ?R_DrawLineGraph@@YAXPEAVCBasicDraw@@HHHH@Z 00000001401b8eb0 f   r_main.obj
 0001:001b8040       ?R_DrawScene@@YA_NXZ       00000001401b9040 f   r_main.obj
 0001:001b83e0       ?R_DrawRenderPasses@@YA_NXZ 00000001401b93e0 f   r_main.obj
 0001:001b8430       ?R_DrawTransparent@@YA_NXZ 00000001401b9430 f   r_main.obj
 0001:001b8700       ?R_DrawViewObjects@@YA_NXZ 00000001401b9700 f   r_main.obj
 0001:001b8750       ?R_DrawNormal@@YA_NXZ      00000001401b9750 f   r_main.obj
 0001:001b8a20       ?R_DrawLoadingBackground@@YA_NXZ 00000001401b9a20 f   r_main.obj
 0001:001b9260       ?R_DrawLogo@@YA_NPEAUen_texture_t@@HH@Z 00000001401ba260 f   r_main.obj
 0001:001b9b90       ?R_AddEntities@@YAXXZ      00000001401bab90 f   r_main.obj
 0001:001b9cb0       ?R_AddEntityLights@@YAXXZ  00000001401bacb0 f   r_main.obj
 0001:001ba1d0       ?R_AddSpecialEntity@@YA_NPEAUcl_entity_t@@@Z 00000001401bb1d0 f   r_main.obj
 0001:001ba850       ?R_IsNonRenderedRenderEntity@@YA_NAEBUcl_entity_t@@@Z 00000001401bb850 f   r_main.obj
 0001:001ba8c0       ?R_Ent_Beam@@YAXPEAUcl_entity_t@@@Z 00000001401bb8c0 f   r_main.obj
 0001:001bab00       ?R_Ent_Water@@YAXPEAUcl_entity_t@@@Z 00000001401bbb00 f   r_main.obj
 0001:001bab40       ?R_Ent_Portal@@YAXPEAUcl_entity_t@@@Z 00000001401bbb40 f   r_main.obj
 0001:001bac40       ?R_Ent_Monitor@@YAXPEAUcl_entity_t@@@Z 00000001401bbc40 f   r_main.obj
 0001:001bad40       ?R_Ent_Mirror@@YAXPEAUcl_entity_t@@@Z 00000001401bbd40 f   r_main.obj
 0001:001bad70       ?R_Ent_SkyMarker@@YAXPEAUcl_entity_t@@@Z 00000001401bbd70 f   r_main.obj
 0001:001badb0       ?R_Ent_RotLight@@YAXPEAUcl_entity_t@@@Z 00000001401bbdb0 f   r_main.obj
 0001:001bbc10       ?R_Ent_Spotlight@@YAXPEAUcl_entity_t@@@Z 00000001401bcc10 f   r_main.obj
 0001:001bbd40       ?R_Ent_DynamicLight@@YAXPEAUcl_entity_t@@@Z 00000001401bcd40 f   r_main.obj
 0001:001bbe20       ?R_Ent_ModelLight@@YAXPEAUcl_entity_t@@@Z 00000001401bce20 f   r_main.obj
 0001:001bc360       ?R_SetupView@@YAXAEBUref_params_t@@@Z 00000001401bd360 f   r_main.obj
 0001:001bc7d0       ?R_SetupRefDef@@YAXPEAUcl_entity_t@@AEAUref_params_t@@@Z 00000001401bd7d0 f   r_main.obj
 0001:001bc990       ?R_PopulateExtensionsArray@@YAXXZ 00000001401bd990 f   r_main.obj
 0001:001bd1c0       ?R_LoadResources@@YA_NXZ   00000001401be1c0 f   r_main.obj
 0001:001bd7a0       ?R_ShutdownGL@@YAXXZ       00000001401be7a0 f   r_main.obj
 0001:001bdaf0       ?R_InitGL@@YA_NXZ          00000001401beaf0 f   r_main.obj
 0001:001be160       ?R_LoadTextures@@YAXXZ     00000001401bf160 f   r_main.obj
 0001:001be2c0       ?R_LoadTextureListFile@@YA_NPEBDAEAV?$CArray@PEAUen_texture_t@@@@W4rs_level_t@@PEBH_N@Z 00000001401bf2c0 f   r_main.obj
 0001:001be870       ?R_BindCubemapTexture@@YAXHI_N@Z 00000001401bf870 f   r_main.obj
 0001:001be8f0       ?R_AddShaderForLoading@@YAXPEAVCGLSLShader@@@Z 00000001401bf8f0 f   r_main.obj
 0001:001be9e0       ?R_IsSpecialRenderEntity@@YA_NAEBUcl_entity_t@@@Z 00000001401bf9e0 f   r_main.obj
 0001:001bea40       ?R_GetRenderFOV@@YAMM@Z    00000001401bfa40 f   r_main.obj
 0001:001bea80       ?R_BindFBO@@YAXPEAUfbobind_t@@@Z 00000001401bfa80 f   r_main.obj
 0001:001beab0       ?R_SetProjectionMatrix@@YAXMM@Z 00000001401bfab0 f   r_main.obj
 0001:001bedb0       ?R_DrawCharacter@@YA_NPEBUfont_set_t@@HHDIIII@Z 00000001401bfdb0 f   r_main.obj
 0001:001bee10       ?R_DrawStringBox@@YA_NFFFFFF_NUcolor32_t@@HHPEBDPEBUfont_set_t@@III@Z 00000001401bfe10 f   r_main.obj
 0001:001bef80       ?R_DrawViewModelParticles@@YA_NXZ 00000001401bff80 f   r_main.obj
 0001:001befb0       ?R_DrawString@@YA_NUcolor32_t@@HHPEBDPEBUfont_set_t@@@Z 00000001401bffb0 f   r_main.obj
 0001:001bf070       ?R_FinishTextRendering@@YAXPEBUfont_set_t@@@Z 00000001401c0070 f   r_main.obj
 0001:001bf0b0       ?R_BeginTextRendering@@YA_NPEBUfont_set_t@@@Z 00000001401c00b0 f   r_main.obj
 0001:001bf0f0       ?R_SetModelViewMatrix@@YAXAEBVVector@@0@Z 00000001401c00f0 f   r_main.obj
 0001:001bf340       ?R_SetFrustum@@YAXAEAVCFrustum@@AEBVVector@@1MMM_N@Z 00000001401c0340 f   r_main.obj
 0001:001bf410       ?R_ClearBinds@@YAXXZ       00000001401c0410 f   r_main.obj
 0001:001bf550       ?R_ForceMarkLeaves@@YAXPEBUmleaf_t@@HPEAE@Z 00000001401c0550 f   r_main.obj
 0001:001bf5f0       ?R_MarkLeaves@@YAXAEBVVector@@@Z 00000001401c05f0 f   r_main.obj
 0001:001bf6c0       ?R_Update@@YA_NXZ          00000001401c06c0 f   r_main.obj
 0001:001c01c0       ?R_ResetFrameStates@@YAXXZ 00000001401c11c0 f   r_main.obj
 0001:001c0200       ?R_Draw@@YA_NAEBUref_params_t@@@Z 00000001401c1200 f   r_main.obj
 0001:001c0480       ?R_IsExtensionSupported@@YA_NPEBD@Z 00000001401c1480 f   r_main.obj
 0001:001c0580       ?R_BindRectangleTexture@@YAXHI_N@Z 00000001401c1580 f   r_main.obj
 0001:001c0600       ?R_RenderFxBlend@@YAMPEAUcl_entity_t@@@Z 00000001401c1600 f   r_main.obj
 0001:001c0a60       ?R_Bind2DTexture@@YAXHI_N@Z 00000001401c1a60 f   r_main.obj
 0001:001c0af0       ?R_LoadSprite@@YAXPEAUcache_model_t@@@Z 00000001401c1af0 f   r_main.obj
 0001:001c1010       ?R_AddTempEntity@@YA_NPEAUcl_entity_t@@@Z 00000001401c2010 f   r_main.obj
 0001:001c1290       ?R_InitGame@@YA_NXZ        00000001401c2290 f   r_main.obj
 0001:001c1370       ?R_ResetGame@@YAXXZ        00000001401c2370 f   r_main.obj
 0001:001c1710       ?R_Init@@YA_NXZ            00000001401c2710 f   r_main.obj
 0001:001c3060       ?R_AddEntity@@YAXPEAUcl_entity_t@@@Z 00000001401c4060 f   r_main.obj
 0001:001c3110       ?R_Shutdown@@YAXXZ         00000001401c4110 f   r_main.obj
 0001:001c3440       ?DrawSimpleStringChars@CText@@AEAAXPEBDPEBUfont_glyph_t@@HHHHHHH_NPEAH3@Z 00000001401c4440 f   r_text.obj
 0001:001c3700       ?ShouldNewline@CText@@AEAA_NHHPEBUfont_set_t@@PEBD@Z 00000001401c4700 f   r_text.obj
 0001:001c3840       ?GetIdealSizes@CText@@CAXIPEAI000@Z 00000001401c4840 f   r_text.obj
 0001:001c38e0       ?RenderGlyphs@CText@@AEAA_NPEAUfont_set_t@@PEAUfontsetglinfo_t@@PEAUfont_glyph_t@@PEAUFT_FaceRec_@@IIIIIII_NPEAEI@Z 00000001401c48e0 f   r_text.obj
 0001:001c40a0       ?Shutdown@CText@@QEAAXXZ   00000001401c50a0 f   r_text.obj
 0001:001c4170       ?Init@CText@@QEAA_NXZ      00000001401c5170 f   r_text.obj
 0001:001c41b0       ??1CText@@QEAA@XZ          00000001401c51b0 f   r_text.obj
 0001:001c4210       ??0CText@@QEAA@XZ          00000001401c5210 f   r_text.obj
 0001:001c42d0       ?HasError@CText@@QEAA_NXZ  00000001401c52d0 f   r_text.obj
 0001:001c42f0       ?DrawChar@CText@@QEAA_NPEBUfont_set_t@@DHHIIII@Z 00000001401c52f0 f   r_text.obj
 0001:001c45d0       ?ClearGL@CText@@QEAAXXZ    00000001401c55d0 f   r_text.obj
 0001:001c4750       ?InitGL@CText@@QEAA_NXZ    00000001401c5750 f   r_text.obj
 0001:001c4bb0       ?SetColor@CText@@QEAAXIIII@Z 00000001401c5bb0 f   r_text.obj
 0001:001c4be0       ?DrawSimpleString@CText@@QEAA_NPEBUfont_set_t@@PEBDHHH@Z 00000001401c5be0 f   r_text.obj
 0001:001c4de0       ?GetShaderError@CText@@QEAAPEBDXZ 00000001401c5de0 f   r_text.obj
 0001:001c4e10       ?GetStringSize@CText@@SAXPEBUfont_set_t@@PEBDPEAI2PEAH@Z 00000001401c5e10 f   r_text.obj
 0001:001c4ee0       ?LoadFont@CText@@QEAAPEBUfont_set_t@@PEBDH_NPEBUcolor32_t@@I@Z 00000001401c5ee0 f   r_text.obj
 0001:001c5ac0       ?EstimateHeight@CText@@QEAAHPEBUfont_set_t@@PEBDI@Z 00000001401c6ac0 f   r_text.obj
 0001:001c5d70       ?UnBind@CText@@QEAAXPEBUfont_set_t@@@Z 00000001401c6d70 f   r_text.obj
 0001:001c5e50       ?BindSet@CText@@QEAA_NPEBUfont_set_t@@@Z 00000001401c6e50 f   r_text.obj
 0001:001c61a0       ?SetRectangle@CText@@QEAAXFFFFHH@Z 00000001401c71a0 f   r_text.obj
 0001:001c61f0       ?DrawString@CText@@QEAA_NPEBUfont_set_t@@PEBDHH_NIII@Z 00000001401c71f0 f   r_text.obj
 0001:001c6ed0       ?Reset@CText@@SAXXZ        00000001401c7ed0 f   r_text.obj
 0001:001c6f80       ?Prepare@CText@@QEAA_NXZ   00000001401c7f80 f   r_text.obj
 0001:001c7250       ??1CStartup@@QEAA@XZ       00000001401c8250 f   system.obj
 0001:001c7270       ??0CStartup@@QEAA@XZ       00000001401c8270 f   system.obj
 0001:001c7310       ?Sys_WindowFocusRegained@@YAXXZ 00000001401c8310 f   system.obj
 0001:001c7330       ?Sys_WindowFocusLost@@YAXXZ 00000001401c8330 f   system.obj
 0001:001c7340       ?Sys_Frame@@YAXN@Z         00000001401c8340 f   system.obj
 0001:001c7810       ?Sys_Poll@@YAXXZ           00000001401c8810 f   system.obj
 0001:001c7aa0       ?Sys_PostThink@@YAXXZ      00000001401c8aa0 f   system.obj
 0001:001c7d30       ?Sys_PreThink@@YAXXZ       00000001401c8d30 f   system.obj
 0001:001c7ea0       ?Sys_ParseLaunchParams@@YA_NPEBV?$CArray@VCString@@@@@Z 00000001401c8ea0 f   system.obj
 0001:001c99d0       ?Sys_CheckGameDir@@YA_NPEBV?$CArray@VCString@@@@@Z 00000001401ca9d0 f   system.obj
 0001:001c9d30       ?Sys_GetFPSLimit@@YAIXZ    00000001401cad30 f   system.obj
 0001:001c9d60       ?Sys_InitFloatTime@@YA_NXZ 00000001401cad60 f   system.obj
 0001:001c9e20       ?Sys_Exit@@YAXXZ           00000001401cae20 f   system.obj
 0001:001c9e40       ?Sys_Shutdown@@YAXXZ       00000001401cae40 f   system.obj
 0001:001ca190       ?Sys_Init@@YA_NPEAV?$CArray@VCString@@@@@Z 00000001401cb190 f   system.obj
 0001:001cb6e0       ?DirectoryExists@@YA_NPEB_W@Z 00000001401cc6e0 f   system.obj
 0001:001cb710       ?Sys_ShouldExit@@YA_NXZ    00000001401cc710 f   system.obj
 0001:001cb750       ?Sys_Main@@YAHPEAV?$CArray@VCString@@@@@Z 00000001401cc750 f   system.obj
 0001:001cbb10       ?Sys_SetPaused@@YAX_N0@Z   00000001401ccb10 f   system.obj
 0001:001cbc80       ?Sys_GetDLLExports@@YA_NPEBDPEAXAEAV?$CArray@Udll_export_t@@@@@Z 00000001401ccc80 f   system.obj
 0001:001cbe20       ?Sys_FloatTime@@YANXZ      00000001401cce20 f   system.obj
 0001:001cbf20       ?Con_DPrintf@@YAXPEBDZZ    00000001401ccf20 f   system.obj
 0001:001cc100       ?Sys_ErrorPopup@@YAXPEBDZZ 00000001401cd100 f   system.obj
 0001:001cc1c0       ?Con_VPrintf@@YAXPEBDZZ    00000001401cd1c0 f   system.obj
 0001:001cc370       ?Con_EPrintf@@YAXPEBDZZ    00000001401cd370 f   system.obj
 0001:001cc500       ?Con_Printf@@YAXPEBDZZ     00000001401cd500 f   system.obj
 0001:001cc610       ?RemoveDrawFilter@CUIManager@@QEAAXH@Z 00000001401cd610 f   uimanager.obj
 0001:001cc620       ?SetDrawFilter@CUIManager@@QEAAXH@Z 00000001401cd620 f   uimanager.obj
 0001:001cc630       ?LoadWindowDescriptionFile@CUIManager@@QEAAPEAUui_windowdescription_t@@PEBD0@Z 00000001401cd630 f   uimanager.obj
 0001:001cecd0       ?DestroyWindow@CUIManager@@AEAAXPEAVCUIWindow@@@Z 00000001401cfcd0 f   uimanager.obj
 0001:001cee30       ?AddWindow@CUIManager@@QEAAXPEAVCUIWindow@@@Z 00000001401cfe30 f   uimanager.obj
 0001:001cef20       ?RepositionWindows@CUIManager@@QEAAXXZ 00000001401cff20 f   uimanager.obj
 0001:001cf020       ?ReorderWindows@CUIManager@@AEAAXXZ 00000001401d0020 f   uimanager.obj
 0001:001cf270       ?Shutdown@CUIManager@@QEAAXXZ 00000001401d0270 f   uimanager.obj
 0001:001cf460       ?OnGLInitialization@CUIManager@@QEAAXXZ 00000001401d0460 f   uimanager.obj
 0001:001cf4d0       ??1CUIManager@@QEAA@XZ     00000001401d04d0 f   uimanager.obj
 0001:001cf530       ??0CUIManager@@QEAA@XZ     00000001401d0530 f   uimanager.obj
 0001:001cf5a0       ?PostThink@CUIManager@@QEAAXXZ 00000001401d05a0 f   uimanager.obj
 0001:001cf770       ?Think@CUIManager@@QEAAXXZ 00000001401d0770 f   uimanager.obj
 0001:001cf7e0       ?Init@CUIManager@@QEAAXXZ  00000001401d07e0 f   uimanager.obj
 0001:001cfa60       ?Draw@CUIManager@@QEAA_NXZ 00000001401d0a60 f   uimanager.obj
 0001:001cfe00       ?MouseWheelEvent@CUIManager@@QEAA_NH_NH@Z 00000001401d0e00 f   uimanager.obj
 0001:001cffb0       ?KeyEvent@CUIManager@@QEAA_NHF_N@Z 00000001401d0fb0 f   uimanager.obj
 0001:001cffe0       ?MouseButtonEvent@CUIManager@@QEAA_NH_N@Z 00000001401d0fe0 f   uimanager.obj
 0001:001d01c0       ?HasActiveWindows@CUIManager@@QEAA_NXZ 00000001401d11c0 f   uimanager.obj
 0001:001d0240       ?IsMouseOverAnyWindow@CUIManager@@QEAA_NXZ 00000001401d1240 f   uimanager.obj
 0001:001d02e0       ?ShowWindows@CUIManager@@QEAAXH@Z 00000001401d12e0 f   uimanager.obj
 0001:001d03b0       ?HideWindows@CUIManager@@QEAAXH@Z 00000001401d13b0 f   uimanager.obj
 0001:001d0490       ?LoadSchemaFile@CUIManager@@QEAAPEAUui_schemeinfo_t@@PEBD@Z 00000001401d1490 f   uimanager.obj
 0001:001d1d20       ?SetFocusWindow@CUIManager@@QEAAXPEAVCUIWindow@@@Z 00000001401d2d20 f   uimanager.obj
 0001:001d1db0       ?VID_Restart@@YAXXZ        00000001401d2db0 f   vid.obj
 0001:001d2030       ?VID_OnReload@@YAXXZ       00000001401d3030 f   vid.obj
 0001:001d21c0       ?VID_GLMessageCallback@@YAXIIIIHPEBDPEBX@Z 00000001401d31c0 f   vid.obj
 0001:001d3690       ?Cmd_VID_SetVSync@@YAXXZ   00000001401d4690 f   vid.obj
 0001:001d3760       ?Cmd_VID_SetMSAA@@YAXXZ    00000001401d4760 f   vid.obj
 0001:001d3830       ?Cmd_VID_SetHeight@@YAXXZ  00000001401d4830 f   vid.obj
 0001:001d3900       ?Cmd_VID_SetWidth@@YAXXZ   00000001401d4900 f   vid.obj
 0001:001d39d0       ?Cmd_VID_SetDisplayDevice@@YAXXZ 00000001401d49d0 f   vid.obj
 0001:001d3aa0       ?Cmd_VID_SetWindowed@@YAXXZ 00000001401d4aa0 f   vid.obj
 0001:001d3ac0       ?Cmd_VID_SetFullscreen@@YAXXZ 00000001401d4ac0 f   vid.obj
 0001:001d3ae0       ?Cmd_VID_Restart@@YAXXZ    00000001401d4ae0 f   vid.obj
 0001:001d3b10       ?VID_Init@@YA_NXZ          00000001401d4b10 f   vid.obj
 0001:001d4420       ?VID_InitCommands@@YAXXZ   00000001401d5420 f   vid.obj
 0001:001d4540       ?VID_Shutdown@@YAXXZ       00000001401d5540 f   vid.obj
 0001:001d45c0       ?VID_Draw@@YAXXZ           00000001401d55c0 f   vid.obj
 0001:001d4be0       ?VID_DrawSceneOnly@@YAXXZ  00000001401d5be0 f   vid.obj
 0001:001d4cc0       ?VID_GetScreenContents@@YAXAEAI00PEAPEAE@Z 00000001401d5cc0 f   vid.obj
 0001:001d4d50       ?VID_ShaderCompileCallback@@YAXPEBDII_N@Z 00000001401d5d50 f   vid.obj
 0001:001d51a0       ?VID_DrawLoadingScreen@@YAXPEBD@Z 00000001401d61a0 f   vid.obj
 0001:001d52b0       ?VID_BeginLoading@@YAX_N@Z 00000001401d62b0 f   vid.obj
 0001:001d5420       ?VID_EndLoading@@YAXXZ     00000001401d6420 f   vid.obj
 0001:001d54b0       ?GetMSAASetting@CWindow@@QEAAHH@Z 00000001401d64b0 f   window.obj
 0001:001d54f0       ?GetNbMSAASettings@CWindow@@QEAAIXZ 00000001401d64f0 f   window.obj
 0001:001d5500       ?GetCurrentMSAASetting@CWindow@@QEAAHXZ 00000001401d6500 f   window.obj
 0001:001d56c0       ?GetCurrentDeviceIndex@CWindow@@QEBAHXZ 00000001401d66c0 f   window.obj
 0001:001d56e0       ?GetDisplayDeviceName@CWindow@@QEBAPEBDH@Z 00000001401d66e0 f   window.obj
 0001:001d5750       ?GetNbDisplayDevices@CWindow@@QEBAHXZ 00000001401d6750 f   window.obj
 0001:001d5760       ?GetCurrentResolutionIndex@CWindow@@QEBAHXZ 00000001401d6760 f   window.obj
 0001:001d5780       ?GetResolutionInfo@CWindow@@QEBAXHHAEAI0@Z 00000001401d6780 f   window.obj
 0001:001d5900       ?GetNbResolutions@CWindow@@QEBAHH@Z 00000001401d6900 f   window.obj
 0001:001d5970       ?GetConfigGroup@CWindow@@AEAAPEAUconf_group_t@@XZ 00000001401d6970 f   window.obj
 0001:001d5a40       ?SetDisplayProperties@CWindow@@AEAA_NXZ 00000001401d6a40 f   window.obj
 0001:001d64e0       ?FindResolution@CWindow@@AEAAPEAUresolution_t@1@PEAUddevice_t@1@II@Z 00000001401d74e0 f   window.obj
 0001:001d6560       ?FetchResolutions@CWindow@@CA_NPEAUddevice_t@1@@Z 00000001401d7560 f   window.obj
 0001:001d6840       ?BuildDeviceList@CWindow@@AEAA_NXZ 00000001401d7840 f   window.obj
 0001:001d6da0       ?GetMaxMultiSample@CWindow@@QEAAHXZ 00000001401d7da0 f   window.obj
 0001:001d6e60       ??1CWindow@@QEAA@XZ        00000001401d7e60 f   window.obj
 0001:001d6fd0       ??0CWindow@@QEAA@XZ        00000001401d7fd0 f   window.obj
 0001:001d7020       ?DestroyWindow@CWindow@@QEAAXXZ 00000001401d8020 f   window.obj
 0001:001d7070       ?Init@CWindow@@QEAA_NXZ    00000001401d8070 f   window.obj
 0001:001d7790       ?SetActive@CWindow@@QEAAX_N@Z 00000001401d8790 f   window.obj
 0001:001d77b0       ?SwapWindow@CWindow@@QEAAXXZ 00000001401d87b0 f   window.obj
 0001:001d77d0       ?GetCenterY@CWindow@@QEBAHXZ 00000001401d87d0 f   window.obj
 0001:001d77f0       ?GetCenterX@CWindow@@QEBAHXZ 00000001401d87f0 f   window.obj
 0001:001d7810       ?GetWidth@CWindow@@QEBAIXZ 00000001401d8810 f   window.obj
 0001:001d7830       ?IsInitialized@CWindow@@QEBA_NXZ 00000001401d8830 f   window.obj
 0001:001d7840       ?GetHeight@CWindow@@QEBAIXZ 00000001401d8840 f   window.obj
 0001:001d7860       ?IsActive@CWindow@@QEBA_NXZ 00000001401d8860 f   window.obj
 0001:001d7870       ?setValue@CUIProgressBar@@UEAAXM@Z 00000001401d8870 f   uielements.obj
 0001:001d78a0       ?draw@CUIProgressBar@@UEAA_NXZ 00000001401d88a0 f   uielements.obj
 0001:001d7aa0       ??1CUIProgressBar@@UEAA@XZ 00000001401d8aa0 f   uielements.obj
 0001:001d7ac0       ??0CUIProgressBar@@QEAA@HIIHH@Z 00000001401d8ac0 f   uielements.obj
 0001:001d7b40       ?PerformAction@CUISliderDragBtnAction@CUISlider@@UEAAXM@Z 00000001401d8b40 f   uielements.obj
 0001:001d7ba0       ?setValue@CUISlider@@UEAAXM@Z 00000001401d8ba0 f   uielements.obj
 0001:001d7c50       ?setValueFromPosition@CUISlider@@UEAAXN@Z 00000001401d8c50 f   uielements.obj
 0001:001d7c90       ?init@CUISlider@@UEAA_NPEBD@Z 00000001401d8c90 f   uielements.obj
 0001:001d8320       ?draw@CUISlider@@UEAA_NXZ  00000001401d9320 f   uielements.obj
 0001:001d8590       ??1CUISlider@@UEAA@XZ      00000001401d9590 f   uielements.obj
 0001:001d85d0       ??0CUISlider@@QEAA@HPEAVCUICallbackEvent@@IIHHMMM@Z 00000001401d95d0 f   uielements.obj
 0001:001d8670       ?mouseButtonEvent@CUITickBox@@UEAA_NHHH_N@Z 00000001401d9670 f   uielements.obj
 0001:001d8720       ?setState@CUITickBox@@UEAAX_N@Z 00000001401d9720 f   uielements.obj
 0001:001d8740       ?setText@CUITickBox@@UEAAXPEBDPEBUfont_set_t@@I@Z 00000001401d9740 f   uielements.obj
 0001:001d87e0       ?init@CUITickBox@@UEAA_NPEBD@Z 00000001401d97e0 f   uielements.obj
 0001:001d8ae0       ??1CUITickBox@@UEAA@XZ     00000001401d9ae0 f   uielements.obj
 0001:001d8b30       ??0CUITickBox@@QEAA@HPEAVCUICallbackEvent@@IIHH@Z 00000001401d9b30 f   uielements.obj
 0001:001d8b90       ?isMouseOver@CUIDropDownList@@UEAA_NHH@Z 00000001401d9b90 f   uielements.obj
 0001:001d8c20       ?MouseButtonEvent@CUIDropDownRowClickEvent@CUIDropDownList@@UEAA_NHHH_N@Z 00000001401d9c20 f   uielements.obj
 0001:001d8c80       ?PerformAction@CUIDropDownButtonEvent@CUIDropDownList@@UEAAXM@Z 00000001401d9c80 f   uielements.obj
 0001:001d8ca0       ?closeOtherTabs@CUIDropDownList@@UEAAXPEAVCUIObject@@@Z 00000001401d9ca0 f   uielements.obj
 0001:001d8ce0       ?addChoice@CUIDropDownList@@UEAAXPEBD@Z 00000001401d9ce0 f   uielements.obj
 0001:001d8dd0       ?manageSelectionEvent@CUIDropDownList@@UEAAXI@Z 00000001401d9dd0 f   uielements.obj
 0001:001d8e20       ?setSelection@CUIDropDownList@@UEAAXH@Z 00000001401d9e20 f   uielements.obj
 0001:001d8eb0       ?toggleList@CUIDropDownList@@UEAAXXZ 00000001401d9eb0 f   uielements.obj
 0001:001d8f50       ?mouseButtonEvent@CUIDropDownList@@UEAA_NHHH_N@Z 00000001401d9f50 f   uielements.obj
 0001:001d9000       ?init@CUIDropDownList@@UEAA_NPEBD@Z 00000001401da000 f   uielements.obj
 0001:001d9260       ??1CUIDropDownList@@UEAA@XZ 00000001401da260 f   uielements.obj
 0001:001d92c0       ??0CUIDropDownList@@QEAA@HPEAVCUICallbackEvent@@0PEBUfont_set_t@@IIHH@Z 00000001401da2c0 f   uielements.obj
 0001:001d9470       ?draw@CUIListSeparator@@UEAA_NXZ 00000001401da470 f   uielements.obj
 0001:001d9600       ??1CUIListSeparator@@UEAA@XZ 00000001401da600 f   uielements.obj
 0001:001d9660       ??0CUIListSeparator@@QEAA@HIIII@Z 00000001401da660 f   uielements.obj
 0001:001d96c0       ?draw@CUIListRow@@UEAA_NXZ 00000001401da6c0 f   uielements.obj
 0001:001d9a40       ?mouseButtonEvent@CUIListRow@@UEAA_NHHH_N@Z 00000001401daa40 f   uielements.obj
 0001:001d9ac0       ?setColumnColor@CUIListRow@@UEAAXEEE@Z 00000001401daac0 f   uielements.obj
 0001:001d9b60       ?getColumnContents@CUIListRow@@UEAAPEAVCUIObject@@I@Z 00000001401dab60 f   uielements.obj
 0001:001d9bd0       ?setColumnContents@CUIListRow@@UEAAXIPEAVCUIObject@@@Z 00000001401dabd0 f   uielements.obj
 0001:001d9cb0       ??1CUIListRow@@UEAA@XZ     00000001401dacb0 f   uielements.obj
 0001:001d9d10       ??0CUIListRow@@QEAA@HIIPEAVCUIListHeader@@PEAVCUICallbackEvent@@IIII@Z 00000001401dad10 f   uielements.obj
 0001:001d9eb0       ?setColumnName@CUIListHeader@@UEAAXIPEBD@Z 00000001401daeb0 f   uielements.obj
 0001:001da070       ?init@CUIListHeader@@UEAA_NPEBD@Z 00000001401db070 f   uielements.obj
 0001:001da2a0       ??1CUIListHeader@@UEAA@XZ  00000001401db2a0 f   uielements.obj
 0001:001da310       ??0CUIListHeader@@QEAA@HPEBUfont_set_t@@III@Z 00000001401db310 f   uielements.obj
 0001:001da390       ?clearList@CUIList@@UEAAXXZ 00000001401db390 f   uielements.obj
 0001:001da6e0       ?getRowColumnObject@CUIList@@UEAAPEAVCUIObject@@II@Z 00000001401db6e0 f   uielements.obj
 0001:001da770       ?setHighlightOnRowColumn@CUIList@@UEAAXH@Z 00000001401db770 f   uielements.obj
 0001:001da790       ?setHighlightOnRow@CUIList@@UEAAXI_N@Z 00000001401db790 f   uielements.obj
 0001:001da870       ?clearHighlight@CUIList@@UEAAXXZ 00000001401db870 f   uielements.obj
 0001:001da8c0       ?createSeparator@CUIList@@UEAAXIPEBDI@Z 00000001401db8c0 f   uielements.obj
 0001:001dab70       ?createNewRow@CUIList@@UEAAPEAVCUIListRow@@PEAVCUICallbackEvent@@I@Z 00000001401dbb70 f   uielements.obj
 0001:001dad80       ?setHeaderColumnName@CUIList@@UEAAXIPEBD@Z 00000001401dbd80 f   uielements.obj
 0001:001dadf0       ?shouldShiftChild@CUIList@@UEAA_NPEAVCUIObject@@@Z 00000001401dbdf0 f   uielements.obj
 0001:001dae10       ?init@CUIList@@UEAA_NPEBD@Z 00000001401dbe10 f   uielements.obj
 0001:001daf90       ??1CUIList@@UEAA@XZ        00000001401dbf90 f   uielements.obj
 0001:001daff0       ??0CUIList@@QEAA@HPEBUfont_set_t@@IIIIHH@Z 00000001401dbff0 f   uielements.obj
 0001:001db0d0       ?shouldShiftChild@CUIScrollableSurface@@UEAA_NPEAVCUIObject@@@Z 00000001401dc0d0 f   uielements.obj
 0001:001db0f0       ?isChildVisible@CUIScrollableSurface@@UEAA_NPEAVCUIObject@@H@Z 00000001401dc0f0 f   uielements.obj
 0001:001db1b0       ?isMouseOver@CUIScrollableSurface@@UEAA_NHH@Z 00000001401dc1b0 f   uielements.obj
 0001:001db230       ?think@CUIScrollableSurface@@UEAAXXZ 00000001401dc230 f   uielements.obj
 0001:001db380       ?mouseWheelEvent@CUIScrollableSurface@@UEAA_NHHH_NH@Z 00000001401dc380 f   uielements.obj
 0001:001db3c0       ?mouseButtonEvent@CUIScrollableSurface@@UEAA_NHHH_N@Z 00000001401dc3c0 f   uielements.obj
 0001:001db6a0       ?draw@CUIScrollableSurface@@UEAA_NXZ 00000001401dc6a0 f   uielements.obj
 0001:001db9c0       ?adjustSize@CUIScrollableSurface@@UEAA_NHH@Z 00000001401dc9c0 f   uielements.obj
 0001:001dba00       ?setOffsetValue@CUIScrollableSurface@@UEAAXM@Z 00000001401dca00 f   uielements.obj
 0001:001dba10       ?init@CUIScrollableSurface@@UEAA_NPEBD@Z 00000001401dca10 f   uielements.obj
 0001:001dbbb0       ??1CUIScrollableSurface@@UEAA@XZ 00000001401dcbb0 f   uielements.obj
 0001:001dbbd0       ??0CUIScrollableSurface@@QEAA@HIIHH@Z 00000001401dcbd0 f   uielements.obj
 0001:001dbc20       ?showTab@CUITabList@@EEAAXI@Z 00000001401dcc20 f   uielements.obj
 0001:001dbd10       ?createTab@CUITabList@@QEAAPEAVCUITabBody@@PEBD@Z 00000001401dcd10 f   uielements.obj
 0001:001dbfd0       ??1CUITabList@@UEAA@XZ     00000001401dcfd0 f   uielements.obj
 0001:001dc020       ??0CUITabList@@QEAA@HPEAVCUICallbackEvent@@PEBUfont_set_t@@IIHH@Z 00000001401dd020 f   uielements.obj
 0001:001dc090       ?setAlpha@CUITabBody@@UEAAXH_N@Z 00000001401dd090 f   uielements.obj
 0001:001dc120       ?considerElementOnResize@CUITabBody@@UEAA_NPEAVCUIObject@@@Z 00000001401dd120 f   uielements.obj
 0001:001dc1a0       ?adjustTopBorder@CUITabBody@@UEAAXXZ 00000001401dd1a0 f   uielements.obj
 0001:001dc3f0       ?initTopElements@CUITabBody@@UEAA_NXZ 00000001401dd3f0 f   uielements.obj
 0001:001dc540       ??1CUITabBody@@UEAA@XZ     00000001401dd540 f   uielements.obj
 0001:001dc560       ??0CUITabBody@@QEAA@HPEAVCUITabLabel@@IIHH@Z 00000001401dd560 f   uielements.obj
 0001:001dc620       ??1CUITabLabel@@UEAA@XZ    00000001401dd620 f   uielements.obj
 0001:001dc670       ??0CUITabLabel@@QEAA@HPEBDPEBUfont_set_t@@PEAVCUICallbackEvent@@HH@Z 00000001401dd670 f   uielements.obj
 0001:001dc6e0       ?moveScroller@CUIScroller@@UEAA_NHH@Z 00000001401dd6e0 f   uielements.obj
 0001:001dc750       ?considerElementOnResize@CUIScroller@@UEAA_NPEAVCUIObject@@@Z 00000001401dd750 f   uielements.obj
 0001:001dc770       ?isParentSizeValid@CUIScroller@@UEAA_NIIHH@Z 00000001401dd770 f   uielements.obj
 0001:001dc8d0       ?adjustSize@CUIScroller@@UEAA_NHH@Z 00000001401dd8d0 f   uielements.obj
 0001:001dc910       ?readjustDragButton@CUIScroller@@UEAAXXZ 00000001401dd910 f   uielements.obj
 0001:001dca60       ?setFullRange@CUIScroller@@UEAAXI@Z 00000001401dda60 f   uielements.obj
 0001:001dca90       ?init@CUIScroller@@UEAA_NPEBD@Z 00000001401dda90 f   uielements.obj
 0001:001dd520       ??1CUIScroller@@UEAA@XZ    00000001401de520 f   uielements.obj
 0001:001dd540       ??0CUIScroller@@QEAA@HW4ui_scroller_align_t@CUIObject@@IIIHH@Z 00000001401de540 f   uielements.obj
 0001:001dd5e0       ?PerformAction@CUIScrollerDragBtnAction@CUIScroller@@UEAAXM@Z 00000001401de5e0 f   uielements.obj
 0001:001dd650       ?PerformAction@CUIScrollerArrowBtnAction@CUIScroller@@UEAAXM@Z 00000001401de650 f   uielements.obj
 0001:001dd6b0       ?adjustPosition@CUIDragButton@@UEAAXXZ 00000001401de6b0 f   uielements.obj
 0001:001dd7e0       ?getLength@CUIDragButton@@UEAAIXZ 00000001401de7e0 f   uielements.obj
 0001:001dd800       ?adjPosition@CUIDragButton@@UEAA_NH_N0@Z 00000001401de800 f   uielements.obj
 0001:001dd980       ?getPosition@CUIDragButton@@UEAANXZ 00000001401de980 f   uielements.obj
 0001:001dd990       ?setPosition@CUIDragButton@@UEAAXM@Z 00000001401de990 f   uielements.obj
 0001:001dd9d0       ?setLength@CUIDragButton@@UEAAXI@Z 00000001401de9d0 f   uielements.obj
 0001:001dda70       ?think@CUIDragButton@@UEAAXXZ 00000001401dea70 f   uielements.obj
 0001:001ddb30       ?mouseButtonEvent@CUIDragButton@@UEAA_NHHH_N@Z 00000001401deb30 f   uielements.obj
 0001:001ddbe0       ?getBounds@CUIDragButton@@UEAAXAEAH0@Z 00000001401debe0 f   uielements.obj
 0001:001ddc00       ?setBounds@CUIDragButton@@UEAAXHH@Z 00000001401dec00 f   uielements.obj
 0001:001ddc20       ??1CUIDragButton@@UEAA@XZ  00000001401dec20 f   uielements.obj
 0001:001ddc70       ??0CUIDragButton@@QEAA@HW4ui_scroller_align_t@CUIObject@@PEAVCUICallbackEvent@@IIHH@Z 00000001401dec70 f   uielements.obj
 0001:001ddd10       ?draw@CUITextInputTab@@UEAA_NXZ 00000001401ded10 f   uielements.obj
 0001:001de0f0       ?think@CUITextInputTab@@UEAAXXZ 00000001401df0f0 f   uielements.obj
 0001:001de190       ?setText@CUITextInputTab@@UEAAXPEBD@Z 00000001401df190 f   uielements.obj
 0001:001de250       ?clearText@CUITextInputTab@@UEAAXXZ 00000001401df250 f   uielements.obj
 0001:001de270       ?keyEvent@CUITextInputTab@@UEAA_NHF_N@Z 00000001401df270 f   uielements.obj
 0001:001de6b0       ?mouseButtonEvent@CUITextInputTab@@UEAA_NHHH_N@Z 00000001401df6b0 f   uielements.obj
 0001:001de6f0       ??1CUITextInputTab@@UEAA@XZ 00000001401df6f0 f   uielements.obj
 0001:001de740       ??0CUITextInputTab@@QEAA@HPEAVCUICallbackEvent@@PEBUfont_set_t@@IIHH@Z 00000001401df740 f   uielements.obj
 0001:001de810       ?setOffsetValue@CUITextTab@@UEAAXM@Z 00000001401df810 f   uielements.obj
 0001:001de940       ?draw@CUITextTab@@UEAA_NXZ 00000001401df940 f   uielements.obj
 0001:001deb40       ?init@CUITextTab@@UEAA_NPEBD@Z 00000001401dfb40 f   uielements.obj
 0001:001dec10       ?mouseWheelEvent@CUITextTab@@UEAA_NHHH_NH@Z 00000001401dfc10 f   uielements.obj
 0001:001dec70       ?updateRangeSize@CUITextTab@@UEAAXXZ 00000001401dfc70 f   uielements.obj
 0001:001ded50       ?setText@CUITextTab@@UEAAXPEBD@Z 00000001401dfd50 f   uielements.obj
 0001:001ded70       ??1CUITextTab@@UEAA@XZ     00000001401dfd70 f   uielements.obj
 0001:001ded90       ??0CUITextTab@@QEAA@HPEBUfont_set_t@@IIHH@Z 00000001401dfd90 f   uielements.obj
 0001:001dee40       ?think@CUIButton@@UEAAXXZ  00000001401dfe40 f   uielements.obj
 0001:001deec0       ?mouseButtonEvent@CUIButton@@UEAA_NHHH_N@Z 00000001401dfec0 f   uielements.obj
 0001:001def40       ??1CUIButton@@UEAA@XZ      00000001401dff40 f   uielements.obj
 0001:001def90       ??0CUIButton@@QEAA@HPEAVCUICallbackEvent@@IIHH@Z 00000001401dff90 f   uielements.obj
 0001:001df040       ??0CUIButton@@QEAA@HPEBUui_schemeobject_t@@PEAVCUICallbackEvent@@IIHH@Z 00000001401e0040 f   uielements.obj
 0001:001df210       ??0CUIButton@@QEAA@HPEBDPEBUfont_set_t@@PEAVCUICallbackEvent@@IIHH@Z 00000001401e0210 f   uielements.obj
 0001:001df380       ?performAdj@CUIResizer@@UEAA_NHH@Z 00000001401e0380 f   uielements.obj
 0001:001df3a0       ??1CUIResizer@@UEAA@XZ     00000001401e03a0 f   uielements.obj
 0001:001df3c0       ??0CUIResizer@@QEAA@HIIHH@Z 00000001401e03c0 f   uielements.obj
 0001:001df410       ?performAdj@CUIDragger@@UEAA_NHH@Z 00000001401e0410 f   uielements.obj
 0001:001df430       ?think@CUIDragger@@UEAAXXZ 00000001401e0430 f   uielements.obj
 0001:001df4c0       ?isParentSizeValid@CUIDragger@@UEAA_NIIHH@Z 00000001401e04c0 f   uielements.obj
 0001:001df560       ?mouseButtonEvent@CUIDragger@@UEAA_NHHH_N@Z 00000001401e0560 f   uielements.obj
 0001:001df5f0       ??1CUIDragger@@UEAA@XZ     00000001401e05f0 f   uielements.obj
 0001:001df610       ??0CUIDragger@@QEAA@HIIHH@Z 00000001401e0610 f   uielements.obj
 0001:001df660       ?adjustPosition@CUIText@@UEAAXXZ 00000001401e0660 f   uielements.obj
 0001:001df690       ?draw@CUIText@@UEAA_NXZ    00000001401e0690 f   uielements.obj
 0001:001df7b0       ?setDisplayText@CUIText@@QEAAXPEBD@Z 00000001401e07b0 f   uielements.obj
 0001:001dfa40       ?setText@CUIText@@QEAAXPEBD@Z 00000001401e0a40 f   uielements.obj
 0001:001dfc10       ??1CUIText@@UEAA@XZ        00000001401e0c10 f   uielements.obj
 0001:001dfc60       ??0CUIText@@QEAA@HPEBUfont_set_t@@PEBDHHI@Z 00000001401e0c60 f   uielements.obj
 0001:001dfd20       ?PerformAction@CUIWindowCloseAction@CUIWindow@@UEAAXM@Z 00000001401e0d20 f   uielements.obj
 0001:001dfd40       ?mouseWheelEvent@CUIWindow@@UEAA_NHHH_NH@Z 00000001401e0d40 f   uielements.obj
 0001:001dfeb0       ?mouseButtonEvent@CUIWindow@@UEAA_NHHH_N@Z 00000001401e0eb0 f   uielements.obj
 0001:001dfed0       ?keyEvent@CUIWindow@@UEAA_NHF_N@Z 00000001401e0ed0 f   uielements.obj
 0001:001dfef0       ?move@CUIWindow@@UEAAXHH@Z 00000001401e0ef0 f   uielements.obj
 0001:001dff00       ?setTitle@CUIWindow@@QEAAXPEBDPEBUfont_set_t@@II@Z 00000001401e0f00 f   uielements.obj
 0001:001dffe0       ?init@CUIWindow@@UEAA_NPEBD@Z 00000001401e0fe0 f   uielements.obj
 0001:001e0180       ??1CUIWindow@@UEAA@XZ      00000001401e1180 f   uielements.obj
 0001:001e01a0       ??0CUIWindow@@QEAA@HHIIHH@Z 00000001401e11a0 f   uielements.obj
 0001:001e0250       ?draw@CUISurface@@UEAA_NXZ 00000001401e1250 f   uielements.obj
 0001:001e0270       ?adjustBgElements@CUISurface@@UEAAXXZ 00000001401e1270 f   uielements.obj
 0001:001e0500       ?adjustTopBorder@CUISurface@@UEAAXXZ 00000001401e1500 f   uielements.obj
 0001:001e0600       ?adjustPosition@CUISurface@@UEAAXXZ 00000001401e1600 f   uielements.obj
 0001:001e0630       ?adjustSize@CUISurface@@UEAA_NHH@Z 00000001401e1630 f   uielements.obj
 0001:001e0680       ?setAlpha@CUISurface@@UEAAXH_N@Z 00000001401e1680 f   uielements.obj
 0001:001e07f0       ?considerElementOnResize@CUISurface@@UEAA_NPEAVCUIObject@@@Z 00000001401e17f0 f   uielements.obj
 0001:001e0840       ?initTopElements@CUISurface@@UEAA_NXZ 00000001401e1840 f   uielements.obj
 0001:001e08e0       ?initBottomElements@CUISurface@@UEAA_NXZ 00000001401e18e0 f   uielements.obj
 0001:001e0970       ?init@CUISurface@@UEAA_NPEBD@Z 00000001401e1970 f   uielements.obj
 0001:001e0a40       ?createObject@CUISurface@@MEAAPEAVCUITexturedObject@@PEBUui_schemeinfo_t@@PEBD@Z 00000001401e1a40 f   uielements.obj
 0001:001e0c90       ?isParentSizeValid@CUISurface@@UEAA_NIIHH@Z 00000001401e1c90 f   uielements.obj
 0001:001e0e50       ??1CUISurface@@UEAA@XZ     00000001401e1e50 f   uielements.obj
 0001:001e0e70       ??0CUISurface@@QEAA@HIIHH@Z 00000001401e1e70 f   uielements.obj
 0001:001e0ef0       ?draw@CUITexturedObject@@UEAA_NXZ 00000001401e1ef0 f   uielements.obj
 0001:001e1290       ??1CUITexturedObject@@UEAA@XZ 00000001401e2290 f   uielements.obj
 0001:001e12b0       ??0CUITexturedObject@@QEAA@HIIHH@Z 00000001401e22b0 f   uielements.obj
 0001:001e1300       ?isMouseOver@CUIInteractiveObject@@UEAA_NHH@Z 00000001401e2300 f   uielements.obj
 0001:001e13c0       ??1CUIInteractiveObject@@UEAA@XZ 00000001401e23c0 f   uielements.obj
 0001:001e13e0       ??0CUIInteractiveObject@@QEAA@HIIHH@Z 00000001401e23e0 f   uielements.obj
 0001:001e1420       ?closeOtherTabs@CUIObject@@UEAAXPEAV1@@Z 00000001401e2420 f   uielements.obj
 0001:001e14d0       ?getParentWindow@CUIObject@@UEAAPEAV1@XZ 00000001401e24d0 f   uielements.obj
 0001:001e1510       ?releaseClickStates@CUIObject@@UEAAXXZ 00000001401e2510 f   uielements.obj
 0001:001e1570       ?isParentSizeValid@CUIObject@@UEAA_NIIHH@Z 00000001401e2570 f   uielements.obj
 0001:001e1620       ?adjustSize@CUIObject@@UEAA_NHH@Z 00000001401e2620 f   uielements.obj
 0001:001e18a0       ?draw@CUIObject@@UEAA_NXZ  00000001401e28a0 f   uielements.obj
 0001:001e1a00       ?isMouseOver@CUIObject@@UEAA_NHH@Z 00000001401e2a00 f   uielements.obj
 0001:001e1a80       ?mouseWheelEvent@CUIObject@@UEAA_NHHH_NH@Z 00000001401e2a80 f   uielements.obj
 0001:001e1be0       ?mouseButtonEvent@CUIObject@@UEAA_NHHH_N@Z 00000001401e2be0 f   uielements.obj
 0001:001e1d30       ?postThink@CUIObject@@UEAAXXZ 00000001401e2d30 f   uielements.obj
 0001:001e1d90       ?think@CUIObject@@UEAAXXZ  00000001401e2d90 f   uielements.obj
 0001:001e1df0       ?getAbsPosition@CUIObject@@UEAAXAEAH0@Z 00000001401e2df0 f   uielements.obj
 0001:001e1e70       ?getPosition@CUIObject@@UEAAXAEAH0@Z 00000001401e2e70 f   uielements.obj
 0001:001e1e90       ?setPosition@CUIObject@@UEAAXHH_N@Z 00000001401e2e90 f   uielements.obj
 0001:001e1eb0       ?setColor@CUIObject@@UEAAXIIIH_N@Z 00000001401e2eb0 f   uielements.obj
 0001:001e1fa0       ?setAlpha@CUIObject@@UEAAXH_N@Z 00000001401e2fa0 f   uielements.obj
 0001:001e2030       ?getSize@CUIObject@@UEAAXAEAI0@Z 00000001401e3030 f   uielements.obj
 0001:001e2050       ?setSize@CUIObject@@MEAAXHH@Z 00000001401e3050 f   uielements.obj
 0001:001e2070       ?adjustPosition@CUIObject@@UEAAXXZ 00000001401e3070 f   uielements.obj
 0001:001e21a0       ?setWindowInputFocusObject@CUIObject@@UEAAXPEAV1@@Z 00000001401e31a0 f   uielements.obj
 0001:001e21c0       ?setParent@CUIObject@@QEAAXPEAV1@@Z 00000001401e31c0 f   uielements.obj
 0001:001e2200       ?addChild@CUIObject@@QEAAXPEAV1@@Z 00000001401e3200 f   uielements.obj
 0001:001e2330       ?getChildByIndex@CUIObject@@QEAAPEAV1@I@Z 00000001401e3330 f   uielements.obj
 0001:001e23a0       ??1CUIObject@@UEAA@XZ      00000001401e33a0 f   uielements.obj
 0001:001e2460       ??0CUIObject@@QEAA@HIIHH@Z 00000001401e3460 f   uielements.obj
 0001:001e2510       ?SetRenderInterface@CUIObject@@SAXAEBUui_engine_interface_t@@@Z 00000001401e3510 f   uielements.obj
 0001:001e2590       ?GetValue@CFloatCVar@@UEBAMXZ 00000001401e3590 f   cvar.obj
 0001:001e25a0       ?SetValue@CFloatCVar@@EEAA_NM@Z 00000001401e35a0 f   cvar.obj
 0001:001e25d0       ?GetStrValue@CFloatCVar@@UEBAPEBDXZ 00000001401e35d0 f   cvar.obj
 0001:001e2600       ?SetValue@CFloatCVar@@EEAA_NPEBD@Z 00000001401e3600 f   cvar.obj
 0001:001e2630       ??1CFloatCVar@@UEAA@XZ     00000001401e3630 f   cvar.obj
 0001:001e2650       ?GetValue@CStringCVar@@UEBAMXZ 00000001401e3650 f   cvar.obj
 0001:001e2680       ?SetValue@CStringCVar@@EEAA_NM@Z 00000001401e3680 f   cvar.obj
 0001:001e26b0       ?GetStrValue@CStringCVar@@UEBAPEBDXZ 00000001401e36b0 f   cvar.obj
 0001:001e26c0       ?SetValue@CStringCVar@@EEAA_NPEBD@Z 00000001401e36c0 f   cvar.obj
 0001:001e2830       ??1CStringCVar@@UEAA@XZ    00000001401e3830 f   cvar.obj
 0001:001e2880       ??1CCVar@@UEAA@XZ          00000001401e3880 f   cvar.obj
 0001:001e28a0       ??0CCVar@@QEAA@W4cvar_type_t@@HPEBDP6AXPEAV0@@ZP6AX1ZZ@Z 00000001401e38a0 f   cvar.obj
 0001:001e28f0       ??0CStringCVar@@QEAA@HPEBDP6AXPEAVCCVar@@@ZP6AX0ZZ@Z 00000001401e38f0 f   cvar.obj
 0001:001e2970       ??0CFloatCVar@@QEAA@HPEBDP6AXPEAVCCVar@@@ZP6AX0ZZ@Z 00000001401e3970 f   cvar.obj
 0001:001e29d0       ?GetNbGroups@CDecalList@@QEBAIXZ 00000001401e39d0 f   decallist.obj
 0001:001e29e0       ?GetGroup@CDecalList@@QEAAPEAUdecalgroup_t@@PEBD@Z 00000001401e39e0 f   decallist.obj
 0001:001e2ad0       ?GetGroup@CDecalList@@QEAAPEAUdecalgroup_t@@I@Z 00000001401e3ad0 f   decallist.obj
 0001:001e2af0       ?GetRandom@CDecalList@@QEAAPEAUdecalgroupentry_t@@PEBD@Z 00000001401e3af0 f   decallist.obj
 0001:001e2c50       ?GetByName@CDecalList@@QEAAPEAUdecalgroupentry_t@@PEBD@Z 00000001401e3c50 f   decallist.obj
 0001:001e2d80       ?Clear@CDecalList@@QEAAXXZ 00000001401e3d80 f   decallist.obj
 0001:001e2df0       ?LoadDecalList@CDecalList@@QEAA_NPEBDI@Z 00000001401e3df0 f   decallist.obj
 0001:001e4090       ??1CDecalList@@QEAA@XZ     00000001401e5090 f   decallist.obj
 0001:001e40f0       ??0CDecalList@@QEAA@XZ     00000001401e50f0 f   decallist.obj
 0001:001e4130       ?SetError@CFlexManager@@AEAAXPEBDZZ 00000001401e5130 f   flexmanager.obj
 0001:001e4300       ?Blink@CFlexManager@@AEAAXMMPEAUflexstate_t@@@Z 00000001401e5300 f   flexmanager.obj
 0001:001e44e0       ?SetMouth@CFlexManager@@AEAAXHPEAUflexstate_t@@@Z 00000001401e54e0 f   flexmanager.obj
 0001:001e4570       ?LoadScript@CFlexManager@@QEAAPEBUflexscript_t@@PEBD@Z 00000001401e5570 f   flexmanager.obj
 0001:001e6200       ?SetControllerName@CFlexManager@@SA_NPEBUflexscript_t@@PEAUflexcontroller_t@@PEBD@Z 00000001401e7200 f   flexmanager.obj
 0001:001e64c0       ?GetFixedFlexIndex@CFlexManager@@SAHPEBD@Z 00000001401e74c0 f   flexmanager.obj
 0001:001e6610       ?UpdateValues@CFlexManager@@QEAAXMMHPEAUflexstate_t@@_N@Z 00000001401e7610 f   flexmanager.obj
 0001:001e6ee0       ?Clear@CFlexManager@@QEAAXXZ 00000001401e7ee0 f   flexmanager.obj
 0001:001e70f0       ??1CFlexManager@@QEAA@XZ   00000001401e80f0 f   flexmanager.obj
 0001:001e7190       ??0CFlexManager@@QEAA@AEBUfile_interface_t@@@Z 00000001401e8190 f   flexmanager.obj
 0001:001e7260       ?LoadAssociationScript@CFlexManager@@QEAA_NW4flextypes_t@@PEBD@Z 00000001401e8260 f   flexmanager.obj
 0001:001e8160       ?SetFlexMappings@CFlexManager@@SAXPEBUvbmheader_t@@PEAUflexstate_t@@@Z 00000001401e9160 f   flexmanager.obj
 0001:001e8320       ?SetScript@CFlexManager@@QEAAXPEBUvbmheader_t@@PEAUflexstate_t@@MPEBD@Z 00000001401e9320 f   flexmanager.obj
 0001:001e8550       ?CheckExtraCullBox@CFrustum@@AEBA_NAEBVVector@@0@Z 00000001401e9550 f   frustum.obj
 0001:001e8660       ?CheckCullBox@CFrustum@@AEBA_NAEBVVector@@0@Z 00000001401e9660 f   frustum.obj
 0001:001e8760       ?SetFrustum@CFrustum@@QEAAXAEBVVector@@0MMM@Z 00000001401e9760 f   frustum.obj
 0001:001e8f00       ?SetExtraCullBox@CFrustum@@QEAAXAEBVVector@@0@Z 00000001401e9f00 f   frustum.obj
 0001:001e92a0       ?SetFrustum@CFrustum@@QEAAXAEBVVector@@0MM@Z 00000001401ea2a0 f   frustum.obj
 0001:001e9a10       ??1CFrustum@@QEAA@XZ       00000001401eaa10 f   frustum.obj
 0001:001e9a20       ??0CFrustum@@QEAA@XZ       00000001401eaa20 f   frustum.obj
 0001:001e9aa0       ?CullBBox@CFrustum@@QEBA_NAEBVVector@@0@Z 00000001401eaaa0 f   frustum.obj
 0001:001e9cc0       ?GetFunction@CGLExtF@@QEAAP6A_JXZPEBD_N@Z 00000001401eacc0 f   r_glextf.obj
 0001:001e9e20       ?GetFunctions@CGLExtF@@QEAA_NXZ 00000001401eae20 f   r_glextf.obj
 0001:001ea580       ??1CGLExtF@@QEAA@XZ        00000001401eb580 f   r_glextf.obj
 0001:001ea5a0       ??0CGLExtF@@QEAA@XZ        00000001401eb5a0 f   r_glextf.obj
 0001:001ea800       ?AddDeterminator@CGLSLShader@@QEAAPEAUglsl_determinator_t@1@PEBD@Z 00000001401eb800 f   r_glsl.obj
 0001:001eab30       ?Program_PrintLog@CGLSLShader@@AEAAXIPEBD@Z 00000001401ebb30 f   r_glsl.obj
 0001:001ead50       ?Shader_PrintLog@CGLSLShader@@AEAAXIPEBDI0_N@Z 00000001401ebd50 f   r_glsl.obj
 0001:001eb0b0       ?ConstructBranches@CGLSLShader@@AEAA_NPEBDI@Z 00000001401ec0b0 f   r_glsl.obj
 0001:001ebd20       ?SpliceScripts@CGLSLShader@@AEAA_NIPEAPEAD0@Z 00000001401ecd20 f   r_glsl.obj
 0001:001ebec0       ?RecursiveAddChunks@CGLSLShader@@AEAA_NIPEAUshader_chunk_t@1@PEADPEAII@Z 00000001401ecec0 f   r_glsl.obj
 0001:001ec0d0       ?ShouldIncludeChunk@CGLSLShader@@AEAA_NIPEAUshader_chunk_t@1@@Z 00000001401ed0d0 f   r_glsl.obj
 0001:001ec330       ?RecursiveFillValues@CGLSLShader@@AEAAXIAEAI@Z 00000001401ed330 f   r_glsl.obj
 0001:001ec580       ?ReadChunks@CGLSLShader@@AEAA_NPEAPEBDPEAPEAUshader_chunk_t@1@PEAIPEAUglsl_branchcondition_t@1@I@Z 00000001401ed580 f   r_glsl.obj
 0001:001ee190       ?CompileFromScript@CGLSLShader@@AEAA_NXZ 00000001401ef190 f   r_glsl.obj
 0001:001ef3b0       ?ReadInvalidState@CGLSLShader@@QEAA_NPEAPEBD@Z 00000001401f03b0 f   r_glsl.obj
 0001:001f07c0       ?ReadDeterminator@CGLSLShader@@QEAA_NPEAPEBD@Z 00000001401f17c0 f   r_glsl.obj
 0001:001f1540       ?CompileCSDShaderData@CGLSLShader@@AEAA_NXZ 00000001401f2540 f   r_glsl.obj
 0001:001f2300       ?LoadFromBSD@CGLSLShader@@AEAA_NXZ 00000001401f3300 f   r_glsl.obj
 0001:001f2bc0       ?CompileFromCSD@CGLSLShader@@AEAA_NXZ 00000001401f3bc0 f   r_glsl.obj
 0001:001f3960       ?CompileShader@CGLSLShader@@QEAA_NIPEAUglsl_shader_t@1@PEAUcsdshaderdata_t@1@@Z 00000001401f4960 f   r_glsl.obj
 0001:001f4c80       ?FreeData@CGLSLShader@@AEAAXXZ 00000001401f5c80 f   r_glsl.obj
 0001:001f4d80       ?FreeShaderData@CGLSLShader@@AEAAXXZ 00000001401f5d80 f   r_glsl.obj
 0001:001f4eb0       ?FreeTempData@CGLSLShader@@AEAAXXZ 00000001401f5eb0 f   r_glsl.obj
 0001:001f50a0       ?RecursiveFreeChunks@CGLSLShader@@AEAAXPEAUshader_chunk_t@1@@Z 00000001401f60a0 f   r_glsl.obj
 0001:001f5120       ?Clear@CGLSLShader@@QEAAXXZ 00000001401f6120 f   r_glsl.obj
 0001:001f51d0       ?GetNbTotalShaderProgramsLinked@CGLSLShader@@SAIXZ 00000001401f61d0 f   r_glsl.obj
 0001:001f51e0       ?GetTotalShaderLinkGetStatusCallTime@CGLSLShader@@SANXZ 00000001401f61e0 f   r_glsl.obj
 0001:001f51f0       ?GetTotalShaderLinkTime@CGLSLShader@@SANXZ 00000001401f61f0 f   r_glsl.obj
 0001:001f5200       ?GetTotalFragmentShaderGetStatusCallTime@CGLSLShader@@SANXZ 00000001401f6200 f   r_glsl.obj
 0001:001f5210       ?GetTotalFragmentShaderCompileTime@CGLSLShader@@SANXZ 00000001401f6210 f   r_glsl.obj
 0001:001f5220       ?GetTotalVertexShaderGetStatusCallTime@CGLSLShader@@SANXZ 00000001401f6220 f   r_glsl.obj
 0001:001f5230       ?GetTotalVertexShaderCompileTime@CGLSLShader@@SANXZ 00000001401f6230 f   r_glsl.obj
 0001:001f5240       ?ClearTimeCounters@CGLSLShader@@SAXXZ 00000001401f6240 f   r_glsl.obj
 0001:001f5290       ?CompileShaderVariation@CGLSLShader@@QEAA_NI@Z 00000001401f6290 f   r_glsl.obj
 0001:001f5750       ?IsShaderVariationCompiled@CGLSLShader@@QEAA_NI@Z 00000001401f6750 f   r_glsl.obj
 0001:001f57b0       ?GetNbTotalShaderVariations@CGLSLShader@@QEBAIXZ 00000001401f67b0 f   r_glsl.obj
 0001:001f57d0       ?DisableDeterminatorState@CGLSLShader@@QEAAXPEBDH@Z 00000001401f67d0 f   r_glsl.obj
 0001:001f5b50       ?VerifyDeterminators@CGLSLShader@@QEAA_NXZ 00000001401f6b50 f   r_glsl.obj
 0001:001f61b0       ?Compile@CGLSLShader@@QEAA_NPEBD@Z 00000001401f71b0 f   r_glsl.obj
 0001:001f6370       ??0CGLSLShader@@QEAA@AEBUfile_interface_t@@AEBVCGLExtF@@HP6AXPEBDII_N@Z@Z 00000001401f7370 f   r_glsl.obj
 0001:001f64f0       ?DisableAttribute@CGLSLShader@@QEAAXH@Z 00000001401f74f0 f   r_glsl.obj
 0001:001f65b0       ?ResetShader@CGLSLShader@@QEAAXXZ 00000001401f75b0 f   r_glsl.obj
 0001:001f66a0       ?SetVBO@CGLSLShader@@QEAAXPEAVCVBO@@@Z 00000001401f76a0 f   r_glsl.obj
 0001:001f66b0       ?DisableShader@CGLSLShader@@QEAAXXZ 00000001401f76b0 f   r_glsl.obj
 0001:001f66e0       ?EnableShader@CGLSLShader@@QEAA_NXZ 00000001401f76e0 f   r_glsl.obj
 0001:001f6f60       ?GetDeterminatorIndex@CGLSLShader@@QEAAHPEBD@Z 00000001401f7f60 f   r_glsl.obj
 0001:001f7340       ?SetDeterminator@CGLSLShader@@QEAA_NHH_N@Z 00000001401f8340 f   r_glsl.obj
 0001:001f7390       ?EnableAttribute@CGLSLShader@@QEAAXH@Z 00000001401f8390 f   r_glsl.obj
 0001:001f74a0       ?InitAttribute@CGLSLShader@@QEAAHPEBDIHIPEBX@Z 00000001401f84a0 f   r_glsl.obj
 0001:001f7c90       ?InitUniform@CGLSLShader@@QEAAHPEBDW4uniform_e@1@@Z 00000001401f8c90 f   r_glsl.obj
 0001:001f8310       ?ValidateProgram@CGLSLShader@@QEAA_NP6AXPEBDZZ@Z 00000001401f9310 f   r_glsl.obj
 0001:001f8480       ??1CGLSLShader@@QEAA@XZ    00000001401f9480 f   r_glsl.obj
 0001:001f85d0       ??0CGLSLShader@@QEAA@AEBUfile_interface_t@@AEBVCGLExtF@@PEBDHP6AX2II_N@Z@Z 00000001401f95d0 f   r_glsl.obj
 0001:001f8770       ?VBM_PostLoadCheckSubmodel@@YA_NPEAUvbmheader_t@@PEAUvbmsubmodel_t@@P6APEAUen_material_t@@H@Z@Z 00000001401f9770 f   vbm_shared.obj
 0001:001f88c0       ?VBM_MeshBonesCompatible@@YA_NPEAUvbmmesh_t@@0PEAUvbmheader_t@@P6APEAUen_material_t@@H@Z@Z 00000001401f98c0 f   vbm_shared.obj
 0001:001f8b40       ?VBM_CalculateBonePosition@@YAXHMPEBUmstudiobone_t@@PEBUmstudioanim_t@@PEBMAEAVVector@@@Z 00000001401f9b40 f   vbm_shared.obj
 0001:001f8dc0       ?VBM_CalculateBoneQuaternion@@YAXHMPEBUmstudiobone_t@@PEBUmstudioanim_t@@PEBMAEAY03M@Z 00000001401f9dc0 f   vbm_shared.obj
 0001:001f91c0       ?VBM_CalculateBoneAdjustments@@YAXPEBUstudiohdr_t@@MPEAMPEBM2E@Z 00000001401fa1c0 f   vbm_shared.obj
 0001:001f9500       ?VBM_GetAnimation@@YAPEBUmstudioanim_t@@PEBUstudiohdr_t@@PEBUmstudioseqdesc_t@@@Z 00000001401fa500 f   vbm_shared.obj
 0001:001f9570       ?VBM_NormalizeWeights@@YAXPEAMI@Z 00000001401fa570 f   vbm_shared.obj
 0001:001f9600       ?VBM_CalculateRotations@@YAXPEBUstudiohdr_t@@MMMPEAVVector@@PEAY03MPEBUmstudioseqdesc_t@@PEBUmstudioanim_t@@MPEBM5E@Z 00000001401fa600 f   vbm_shared.obj
 0001:001f9880       ?VBM_EstimateFrame@@YAMPEBUmstudioseqdesc_t@@AEBUentity_state_t@@N@Z 00000001401fa880 f   vbm_shared.obj
 0001:001f9960       ?VBM_InterpolateBones@@YAXPEBUstudiohdr_t@@PEAY03$$CBMPEBVVector@@12MPEAY03MPEAV2@@Z 00000001401fa960 f   vbm_shared.obj
 0001:001f9fc0       ?VBM_PostLoadVBMCheck@@YA_NPEAUvbmheader_t@@P6APEAUen_material_t@@H@Z@Z 00000001401fafc0 f   vbm_shared.obj
 0001:001fa1f0       ?VBM_EstimateInterpolant@@YAMMMM@Z 00000001401fb1f0 f   vbm_shared.obj
 0001:001fa230       ?VBM_HasTransparentParts@@YA_NPEAUvbmheader_t@@_KH@Z 00000001401fb230 f   vbm_shared.obj
 0001:001fa430       ?KeyEvent@CUIConsoleKeyEventCallback@@UEAA_NHF_N@Z 00000001401fb430 f   uiconsolewindow.obj
 0001:001fa610       ?PerformAction@CUIConsoleExecuteCallback@@UEAAXM@Z 00000001401fb610 f   uiconsolewindow.obj
 0001:001fa630       ?onGLInitialization@CUIConsoleWindow@@UEAAXXZ 00000001401fb630 f   uiconsolewindow.obj
 0001:001fa700       ?SetInputText@CUIConsoleWindow@@UEAAXPEBD@Z 00000001401fb700 f   uiconsolewindow.obj
 0001:001fa720       ?ClearInputText@CUIConsoleWindow@@UEAAXXZ 00000001401fb720 f   uiconsolewindow.obj
 0001:001fa740       ?RestoreInputText@CUIConsoleWindow@@UEAA_NXZ 00000001401fb740 f   uiconsolewindow.obj
 0001:001fa7d0       ?SaveInputText@CUIConsoleWindow@@UEAAXXZ 00000001401fb7d0 f   uiconsolewindow.obj
 0001:001fa960       ?SetHistoryText@CUIConsoleWindow@@UEAAXPEBD@Z 00000001401fb960 f   uiconsolewindow.obj
 0001:001fa980       ?ResetTabFilter@CUIConsoleWindow@@UEAAXXZ 00000001401fb980 f   uiconsolewindow.obj
 0001:001fa9f0       ?GetNextBestInputChoice@CUIConsoleWindow@@UEAAXXZ 00000001401fb9f0 f   uiconsolewindow.obj
 0001:001faf30       ?Execute@CUIConsoleWindow@@UEAAXXZ 00000001401fbf30 f   uiconsolewindow.obj
 0001:001fb150       ?init@CUIConsoleWindow@@UEAA_NPEBUui_windowdescription_t@@PEBUui_objectinfo_t@@@Z 00000001401fc150 f   uiconsolewindow.obj
 0001:001fb8c0       ??1CUIConsoleWindow@@UEAA@XZ 00000001401fc8c0 f   uiconsolewindow.obj
 0001:001fb930       ??0CUIConsoleWindow@@AEAA@HIIHH@Z 00000001401fc930 f   uiconsolewindow.obj
 0001:001fb9f0       ?GetInstance@CUIConsoleWindow@@SAPEAV1@XZ 00000001401fc9f0 f   uiconsolewindow.obj
 0001:001fba00       ?CreateInstance@CUIConsoleWindow@@SAPEAV1@XZ 00000001401fca00 f   uiconsolewindow.obj
 0001:001fbd00       ?CancelDownload@CUIDownloadWindow@@QEAAXXZ 00000001401fcd00 f   uidownloadwindow.obj
 0001:001fbd70       ?init@CUIDownloadWindow@@UEAA_NPEBUui_windowdescription_t@@PEBUui_objectinfo_t@@@Z 00000001401fcd70 f   uidownloadwindow.obj
 0001:001fc580       ??1CUIDownloadWindow@@UEAA@XZ 00000001401fd580 f   uidownloadwindow.obj
 0001:001fc5e0       ??0CUIDownloadWindow@@AEAA@HIIHH@Z 00000001401fd5e0 f   uidownloadwindow.obj
 0001:001fc670       ?SetDownloadFileName@CUIDownloadWindow@@QEAAXPEBD@Z 00000001401fd670 f   uidownloadwindow.obj
 0001:001fc810       ?SetTotalProgressBar@CUIDownloadWindow@@QEAAXM@Z 00000001401fd810 f   uidownloadwindow.obj
 0001:001fc830       ?SetFileProgressBar@CUIDownloadWindow@@QEAAXM@Z 00000001401fd830 f   uidownloadwindow.obj
 0001:001fc850       ?DestroyInstance@CUIDownloadWindow@@SAXXZ 00000001401fd850 f   uidownloadwindow.obj
 0001:001fc890       ?GetInstance@CUIDownloadWindow@@SAPEAV1@XZ 00000001401fd890 f   uidownloadwindow.obj
 0001:001fc8a0       ?CreateInstance@CUIDownloadWindow@@SAPEAV1@XZ 00000001401fd8a0 f   uidownloadwindow.obj
 0001:001fcb10       ?buttonPressed@CUIExitWindow@@UEAAXI@Z 00000001401fdb10 f   uiexitwindow.obj
 0001:001fcc00       ?init@CUIExitWindow@@UEAA_NPEBUui_windowdescription_t@@PEBUui_objectinfo_t@@_N@Z 00000001401fdc00 f   uiexitwindow.obj
 0001:001fd2e0       ?DestroyInstance@CUIExitWindow@@SAXXZ 00000001401fe2e0 f   uiexitwindow.obj
 0001:001fd320       ??1CUIExitWindow@@UEAA@XZ  00000001401fe320 f   uiexitwindow.obj
 0001:001fd350       ??0CUIExitWindow@@AEAA@HIIHH@Z 00000001401fe350 f   uiexitwindow.obj
 0001:001fd3a0       ?GetInstance@CUIExitWindow@@SAPEAV1@XZ 00000001401fe3a0 f   uiexitwindow.obj
 0001:001fd3b0       ?CreateInstance@CUIExitWindow@@SAPEAV1@_N@Z 00000001401fe3b0 f   uiexitwindow.obj
 0001:001fd5f0       ?buttonPressed@CUINewGameWindow@@UEAAXI@Z 00000001401fe5f0 f   uinewgamewindow.obj
 0001:001fdee0       ?init@CUINewGameWindow@@UEAA_NPEBUui_windowdescription_t@@PEBUui_objectinfo_t@@_N@Z 00000001401feee0 f   uinewgamewindow.obj
 0001:001fe680       ?DestroyInstance@CUINewGameWindow@@SAXXZ 00000001401ff680 f   uinewgamewindow.obj
 0001:001fe6c0       ??1CUINewGameWindow@@UEAA@XZ 00000001401ff6c0 f   uinewgamewindow.obj
 0001:001fe6f0       ??0CUINewGameWindow@@AEAA@HIIHH@Z 00000001401ff6f0 f   uinewgamewindow.obj
 0001:001fe740       ?GetInstance@CUINewGameWindow@@SAPEAV1@XZ 00000001401ff740 f   uinewgamewindow.obj
 0001:001fe750       ?CreateInstance@CUINewGameWindow@@SAPEAV1@_N@Z 00000001401ff750 f   uinewgamewindow.obj
 0001:001fe990       ?PerformAction@CUISaveLoadWindowButtonEvent@@UEAAXM@Z 00000001401ff990 f   uisaveloadwindow.obj
 0001:001feb60       ?MouseButtonEvent@CUISaveLoadWindowRowEvent@@UEAA_NHHH_N@Z 00000001401ffb60 f   uisaveloadwindow.obj
 0001:001febe0       ?ButtonEvent@CUISaveLoadWindow@@QEAAXW4slwindow_btn_id@@@Z 00000001401ffbe0 f   uisaveloadwindow.obj
 0001:001fedb0       ?keyEvent@CUISaveLoadWindow@@UEAA_NHF_N@Z 00000001401ffdb0 f   uisaveloadwindow.obj
 0001:001fee00       ?DeleteSave@CUISaveLoadWindow@@QEAAXPEBD@Z 00000001401ffe00 f   uisaveloadwindow.obj
 0001:001fee60       ?LoadSave@CUISaveLoadWindow@@QEAAXPEBD@Z 00000001401ffe60 f   uisaveloadwindow.obj
 0001:001fef70       ?RowDoubleClickEvent@CUISaveLoadWindow@@QEAAXH@Z 00000001401fff70 f   uisaveloadwindow.obj
 0001:001ff180       ?SetFocusOnRow@CUISaveLoadWindow@@QEAAXHH@Z 0000000140200180 f   uisaveloadwindow.obj
 0001:001ff450       ?SetBackgroundTexture@CUISaveLoadWindow@@AEAAXPEAUsave_file_t@1@@Z 0000000140200450 f   uisaveloadwindow.obj
 0001:001ffb10       ?postThink@CUISaveLoadWindow@@UEAAXXZ 0000000140200b10 f   uisaveloadwindow.obj
 0001:001ffc20       ?LoadSaves@CUISaveLoadWindow@@QEAAX_N@Z 0000000140200c20 f   uisaveloadwindow.obj
 0001:00200210       ?setFocusState@CUISaveLoadWindow@@UEAAX_N@Z 0000000140201210 f   uisaveloadwindow.obj
 0001:00200370       ?UpdateButtons@CUISaveLoadWindow@@AEAAX_N@Z 0000000140201370 f   uisaveloadwindow.obj
 0001:00200400       ?init@CUISaveLoadWindow@@UEAA_NPEBUui_windowdescription_t@@PEBUui_objectinfo_t@@_N@Z 0000000140201400 f   uisaveloadwindow.obj
 0001:00200e40       ?CreateSaveFileRow@CUISaveLoadWindow@@AEAAXAEAUsave_file_t@1@I@Z 0000000140201e40 f   uisaveloadwindow.obj
 0001:002019e0       ?AddSaveFileInfo@CUISaveLoadWindow@@AEAAXAEBVCString@@AEAU_FILETIME@@@Z 00000001402029e0 f   uisaveloadwindow.obj
 0001:00202240       ?DestroyInstance@CUISaveLoadWindow@@SAXXZ 0000000140203240 f   uisaveloadwindow.obj
 0001:00202280       ??1CUISaveLoadWindow@@UEAA@XZ 0000000140203280 f   uisaveloadwindow.obj
 0001:002023a0       ??0CUISaveLoadWindow@@AEAA@HIIHH@Z 00000001402033a0 f   uisaveloadwindow.obj
 0001:00202480       ?GetInstance@CUISaveLoadWindow@@SAPEAV1@XZ 0000000140203480 f   uisaveloadwindow.obj
 0001:00202490       ?CreateInstance@CUISaveLoadWindow@@SAPEAV1@_N@Z 0000000140203490 f   uisaveloadwindow.obj
 0001:00202730       ?PerformAction@CUISliderAdjustEvent@@UEAAXM@Z 0000000140203730 f   uisettingswindow.obj
 0001:00202960       ?PerformAction@CUITickBoxEvent@@UEAAXM@Z 0000000140203960 f   uisettingswindow.obj
 0001:002029a0       ?PerformAction@CUIScrollSurfaceDropListSelectEvent@@UEAAXM@Z 00000001402039a0 f   uisettingswindow.obj
 0001:002029c0       ?PerformAction@CUIScrollSurfaceDropListToggleEvent@@UEAAXM@Z 00000001402039c0 f   uisettingswindow.obj
 0001:00202a80       ?PerformAction@CUIVerticalSyncSelectEvent@@UEAAXM@Z 0000000140203a80 f   uisettingswindow.obj
 0001:00202b90       ?PerformAction@CUIAntiAliasSelectEvent@@UEAAXM@Z 0000000140203b90 f   uisettingswindow.obj
 0001:00202cb0       ?PerformAction@CUIAnisotropySelectEvent@@UEAAXM@Z 0000000140203cb0 f   uisettingswindow.obj
 0001:00202e00       ?PerformAction@CUIWindowModeSelectEvent@@UEAAXM@Z 0000000140203e00 f   uisettingswindow.obj
 0001:00202f20       ?PerformAction@CUIResolutionSelectEvent@@UEAAXM@Z 0000000140203f20 f   uisettingswindow.obj
 0001:00202f40       ?PerformAction@CUIDeviceSelectEvent@@UEAAXM@Z 0000000140203f40 f   uisettingswindow.obj
 0001:00203060       ?PerformAction@CUIBindsBindBtnEvent@@UEAAXM@Z 0000000140204060 f   uisettingswindow.obj
 0001:00203080       ?PerformAction@CUIBindsRestoreButtonEvent@@UEAAXM@Z 0000000140204080 f   uisettingswindow.obj
 0001:002031a0       ?PerformAction@CUIBindsClearBtnEvent@@UEAAXM@Z 00000001402041a0 f   uisettingswindow.obj
 0001:002031c0       ?PerformAction@CUITabSelectEvent@@UEAAXM@Z 00000001402041c0 f   uisettingswindow.obj
 0001:002031e0       ?MouseButtonEvent@CUIBindsRowEvent@@UEAA_NHHH_N@Z 00000001402041e0 f   uisettingswindow.obj
 0001:00203290       ?PerformAction@CUISettingsApplyEvent@@UEAAXM@Z 0000000140204290 f   uisettingswindow.obj
 0001:002032b0       ?PerformAction@CUISettingsCancelEvent@@UEAAXM@Z 00000001402042b0 f   uisettingswindow.obj
 0001:002032d0       ?SetViewBobTabText@CUISettingsWindow@@QEAAXPEBD@Z 00000001402042d0 f   uisettingswindow.obj
 0001:002032f0       ?SetViewRollTabText@CUISettingsWindow@@QEAAXPEBD@Z 00000001402042f0 f   uisettingswindow.obj
 0001:00203310       ?SetMouseFilterFramesTabText@CUISettingsWindow@@QEAAXPEBD@Z 0000000140204310 f   uisettingswindow.obj
 0001:00203330       ?SetMouseSensitivityTabText@CUISettingsWindow@@QEAAXPEBD@Z 0000000140204330 f   uisettingswindow.obj
 0001:00203350       ?CVarChanged@CUISettingsWindow@@QEAAXPEBDM@Z 0000000140204350 f   uisettingswindow.obj
 0001:002034b0       ?RestoreDefaultBinds@CUISettingsWindow@@QEAAXXZ 00000001402044b0 f   uisettingswindow.obj
 0001:002035c0       ?SelectVerticalSyncSetting@CUISettingsWindow@@QEAAXH@Z 00000001402045c0 f   uisettingswindow.obj
 0001:002036c0       ?SelectAntiAliasSetting@CUISettingsWindow@@QEAAXH@Z 00000001402046c0 f   uisettingswindow.obj
 0001:002037d0       ?SelectAnisotropy@CUISettingsWindow@@QEAAXH@Z 00000001402047d0 f   uisettingswindow.obj
 0001:00203920       ?SelectWindowMode@CUISettingsWindow@@QEAAXH@Z 0000000140204920 f   uisettingswindow.obj
 0001:00203a20       ?SelectResolution@CUISettingsWindow@@QEAAXH@Z 0000000140204a20 f   uisettingswindow.obj
 0001:00203be0       ?SelectDevice@CUISettingsWindow@@QEAAXH@Z 0000000140204be0 f   uisettingswindow.obj
 0001:00203cf0       ?ApplyChanges@CUISettingsWindow@@QEAAXXZ 0000000140204cf0 f   uisettingswindow.obj
 0001:00203ee0       ?BindSelectedKey@CUISettingsWindow@@QEAAXXZ 0000000140204ee0 f   uisettingswindow.obj
 0001:00203f00       ?ClearSelectedKey@CUISettingsWindow@@QEAAXXZ 0000000140204f00 f   uisettingswindow.obj
 0001:00204100       ?SetBind@CUISettingsWindow@@EEAAXPEBD0@Z 0000000140205100 f   uisettingswindow.obj
 0001:002044a0       ?keyEvent@CUISettingsWindow@@UEAA_NHF_N@Z 00000001402054a0 f   uisettingswindow.obj
 0001:00204600       ?mouseButtonEvent@CUISettingsWindow@@UEAA_NHHH_N@Z 0000000140205600 f   uisettingswindow.obj
 0001:00204700       ?postThink@CUISettingsWindow@@UEAAXXZ 0000000140205700 f   uisettingswindow.obj
 0001:00204780       ?LeaveBindMode@CUISettingsWindow@@QEAAXXZ 0000000140205780 f   uisettingswindow.obj
 0001:002047e0       ?EnterBindMode@CUISettingsWindow@@QEAAXI@Z 00000001402057e0 f   uisettingswindow.obj
 0001:00204850       ?AddPendingSetting@CUISettingsWindow@@AEAAXPEBD0@Z 0000000140205850 f   uisettingswindow.obj
 0001:00204ed0       ?SetFocusOnBindsRow@CUISettingsWindow@@QEAAXI@Z 0000000140205ed0 f   uisettingswindow.obj
 0001:00204f10       ?ResetBindsList@CUISettingsWindow@@AEAAXXZ 0000000140205f10 f   uisettingswindow.obj
 0001:002050a0       ?LoadBindsList@CUISettingsWindow@@AEAAXXZ 00000001402060a0 f   uisettingswindow.obj
 0001:00205b00       ?AddTickBox@CUISettingsWindow@@AEAA_NPEAVCUITabBody@@PEBUui_windowdescription_t@@PEBUui_objectinfo_t@@AEBVCString@@33PEBD4@Z 0000000140206b00 f   uisettingswindow.obj
 0001:00205fa0       ?InitMouseTab@CUISettingsWindow@@AEAAPEAVCUITabBody@@PEAVCUITabList@@PEBUui_windowdescription_t@@PEBUui_objectinfo_t@@@Z 0000000140206fa0 f   uisettingswindow.obj
 0001:00207190       ?InitBindsTab@CUISettingsWindow@@AEAAPEAVCUITabBody@@PEAVCUITabList@@PEBUui_windowdescription_t@@PEBUui_objectinfo_t@@@Z 0000000140208190 f   uisettingswindow.obj
 0001:00207850       ?PopulateMSAAList@CUISettingsWindow@@AEAAXXZ 0000000140208850 f   uisettingswindow.obj
 0001:00207a70       ?PopulateResolutions@CUISettingsWindow@@AEAAXH@Z 0000000140208a70 f   uisettingswindow.obj
 0001:00207d40       ?InitAudioTab@CUISettingsWindow@@AEAAPEAVCUITabBody@@PEAVCUITabList@@PEBUui_windowdescription_t@@PEBUui_objectinfo_t@@@Z 0000000140208d40 f   uisettingswindow.obj
 0001:00208d90       ?InitVideoTab@CUISettingsWindow@@AEAAPEAVCUITabBody@@PEAVCUITabList@@PEBUui_windowdescription_t@@PEBUui_objectinfo_t@@@Z 0000000140209d90 f   uisettingswindow.obj
 0001:0020a510       ?AdvancedOptionSelect@CUISettingsWindow@@QEAAXII@Z 000000014020b510 f   uisettingswindow.obj
 0001:0020a8a0       ?SetAdvancedOptionFocus@CUISettingsWindow@@QEAAXI_N@Z 000000014020b8a0 f   uisettingswindow.obj
 0001:0020a950       ?LoadScrollableOptionsList@CUISettingsWindow@@AEAA_NPEAVCUITabBody@@PEBUui_windowdescription_t@@PEBUui_objectinfo_t@@PEBD3@Z 000000014020b950 f   uisettingswindow.obj
 0001:0020ce50       ?InitAdvancedTab@CUISettingsWindow@@AEAAPEAVCUITabBody@@PEAVCUITabList@@PEBUui_windowdescription_t@@PEBUui_objectinfo_t@@@Z 000000014020de50 f   uisettingswindow.obj
 0001:0020cee0       ?init@CUISettingsWindow@@UEAA_NPEBUui_windowdescription_t@@PEBUui_objectinfo_t@@@Z 000000014020dee0 f   uisettingswindow.obj
 0001:0020d560       ??1CUISettingsWindow@@UEAA@XZ 000000014020e560 f   uisettingswindow.obj
 0001:0020d6c0       ??0CUISettingsWindow@@AEAA@HIIHH@Z 000000014020e6c0 f   uisettingswindow.obj
 0001:0020d7f0       ?GetInstance@CUISettingsWindow@@SAPEAV1@XZ 000000014020e7f0 f   uisettingswindow.obj
 0001:0020d800       ?CreateInstance@CUISettingsWindow@@SAPEAV1@XZ 000000014020e800 f   uisettingswindow.obj
 0001:0020daf0       vorbis_synthesis_headerin  000000014020eaf0 f   libvorbis_static:info.obj
 0001:0020dd40       vorbis_synthesis_idheader  000000014020ed40 f   libvorbis_static:info.obj
 0001:0020e420       vorbis_info_clear          000000014020f420 f   libvorbis_static:info.obj
 0001:0020e6d0       vorbis_info_init           000000014020f6d0 f   libvorbis_static:info.obj
 0001:0020e710       vorbis_info_blocksize      000000014020f710 f   libvorbis_static:info.obj
 0001:0020e730       vorbis_comment_clear       000000014020f730 f   libvorbis_static:info.obj
 0001:0020e7d0       vorbis_comment_init        000000014020f7d0 f   libvorbis_static:info.obj
 0001:0020e920       vorbis_window              000000014020f920 f   libvorbis_static:block.obj
 0001:0020e960       vorbis_synthesis_lapout    000000014020f960 f   libvorbis_static:block.obj
 0001:0020ed50       vorbis_synthesis_read      000000014020fd50 f   libvorbis_static:block.obj
 0001:0020ed80       vorbis_synthesis_pcmout    000000014020fd80 f   libvorbis_static:block.obj
 0001:0020ee10       vorbis_synthesis_blockin   000000014020fe10 f   libvorbis_static:block.obj
 0001:0020f8b0       vorbis_synthesis_init      00000001402108b0 f   libvorbis_static:block.obj
 0001:0020f940       vorbis_synthesis_restart   0000000140210940 f   libvorbis_static:block.obj
 0001:0020f9c0       vorbis_dsp_clear           00000001402109c0 f   libvorbis_static:block.obj
 0001:002102e0       vorbis_block_clear         00000001402112e0 f   libvorbis_static:block.obj
 0001:002103c0       _vorbis_block_ripcord      00000001402113c0 f   libvorbis_static:block.obj
 0001:00210460       _vorbis_block_alloc        0000000140211460 f   libvorbis_static:block.obj
 0001:002104f0       vorbis_block_init          00000001402114f0 f   libvorbis_static:block.obj
 0001:002105d0       vorbis_synthesis_halfrate_p 00000001402115d0 f   libvorbis_static:synthesis.obj
 0001:002105f0       vorbis_synthesis_halfrate  00000001402115f0 f   libvorbis_static:synthesis.obj
 0001:00210620       vorbis_packet_blocksize    0000000140211620 f   libvorbis_static:synthesis.obj
 0001:002106f0       vorbis_synthesis_trackonly 00000001402116f0 f   libvorbis_static:synthesis.obj
 0001:00210800       vorbis_synthesis           0000000140211800 f   libvorbis_static:synthesis.obj
 0001:00210a60       _book_unquantize           0000000140211a60 f   libvorbis_static:sharedbook.obj
 0001:00210d60       _book_maptype1_quantvals   0000000140211d60 f   libvorbis_static:sharedbook.obj
 0001:00210df0       _make_words                0000000140211df0 f   libvorbis_static:sharedbook.obj
 0001:00211000       _float32_unpack            0000000140212000 f   libvorbis_static:sharedbook.obj
 0001:00211050       vorbis_book_init_encode    0000000140212050 f   libvorbis_static:sharedbook.obj
 0001:00211170       vorbis_book_init_decode    0000000140212170 f   libvorbis_static:sharedbook.obj
 0001:00211c90       ov_ilog                    0000000140212c90 f   libvorbis_static:sharedbook.obj
 0001:00211cb0       vorbis_staticbook_destroy  0000000140212cb0 f   libvorbis_static:sharedbook.obj
 0001:00211d10       vorbis_book_clear          0000000140212d10 f   libvorbis_static:sharedbook.obj
 0001:00211d90       vorbis_book_decodevv_add   0000000140212d90 f   libvorbis_static:codebook.obj
 0001:00211ff0       vorbis_book_decodev_set    0000000140212ff0 f   libvorbis_static:codebook.obj
 0001:002122a0       vorbis_book_decodev_add    00000001402132a0 f   libvorbis_static:codebook.obj
 0001:00212750       vorbis_book_decodevs_add   0000000140213750 f   libvorbis_static:codebook.obj
 0001:00212ab0       vorbis_book_decode         0000000140213ab0 f   libvorbis_static:codebook.obj
 0001:00212cb0       vorbis_book_encode         0000000140213cb0 f   libvorbis_static:codebook.obj
 0001:00212d10       vorbis_staticbook_unpack   0000000140213d10 f   libvorbis_static:codebook.obj
 0001:002130e0       _vp_couple_quantize_normalize 00000001402140e0 f   libvorbis_static:psy.obj
 0001:00214630       _vp_offset_and_mix         0000000140215630 f   libvorbis_static:psy.obj
 0001:002149d0       _vp_tonemask               00000001402159d0 f   libvorbis_static:psy.obj
 0001:00214c70       _vp_noisemask              0000000140215c70 f   libvorbis_static:psy.obj
 0001:00217ad0       _vp_psy_clear              0000000140218ad0 f   libvorbis_static:psy.obj
 0001:00217be0       _vp_global_free            0000000140218be0 f   libvorbis_static:psy.obj
 0001:00217c10       _vp_psy_init               0000000140218c10 f   libvorbis_static:psy.obj
 0001:002185e0       _vi_psy_free               00000001402195e0 f   libvorbis_static:psy.obj
 0001:00218610       vorbis_bitrate_managed     0000000140219610 f   libvorbis_static:bitrate.obj
 0001:00218640       vorbis_bitrate_clear       0000000140219640 f   libvorbis_static:bitrate.obj
 0001:00218660       _ve_envelope_clear         0000000140219660 f   libvorbis_static:envelope.obj
 0001:00218710       mdct_backward              0000000140219710 f   libvorbis_static:mdct.obj
 0001:00219820       mdct_forward               000000014021a820 f   libvorbis_static:mdct.obj
 0001:00219c20       mdct_clear                 000000014021ac20 f   libvorbis_static:mdct.obj
 0001:00219c70       mdct_init                  000000014021ac70 f   libvorbis_static:mdct.obj
 0001:00219f80       drft_forward               000000014021af80 f   libvorbis_static:smallft.obj
 0001:0021cbb0       drft_clear                 000000014021dbb0 f   libvorbis_static:smallft.obj
 0001:0021cc00       drft_init                  000000014021dc00 f   libvorbis_static:smallft.obj
 0001:0021cc60       _vorbis_apply_window       000000014021dc60 f   libvorbis_static:window.obj
 0001:0021cf30       _vorbis_window_get         000000014021df30 f   libvorbis_static:window.obj
 0001:0021f3e0       res2_inverse               00000001402203e0 f   libvorbis_static:res0.obj
 0001:0021f610       res2_forward               0000000140220610 f   libvorbis_static:res0.obj
 0001:0021f720       res2_class                 0000000140220720 f   libvorbis_static:res0.obj
 0001:0021f9a0       res1_inverse               00000001402209a0 f   libvorbis_static:res0.obj
 0001:0021fa10       res1_class                 0000000140220a10 f   libvorbis_static:res0.obj
 0001:0021fdb0       res1_forward               0000000140220db0 f   libvorbis_static:res0.obj
 0001:0021fe40       res0_inverse               0000000140220e40 f   libvorbis_static:res0.obj
 0001:00220f50       res0_look                  0000000140221f50 f   libvorbis_static:res0.obj
 0001:00221160       res0_unpack                0000000140222160 f   libvorbis_static:res0.obj
 0001:00221350       res0_pack                  0000000140222350 f   libvorbis_static:res0.obj
 0001:002214d0       res0_free_look             00000001402224d0 f   libvorbis_static:res0.obj
 0001:002215a0       res0_free_info             00000001402225a0 f   libvorbis_static:res0.obj
 0001:00223470       floor1_interpolate_fit     0000000140224470 f   libvorbis_static:floor1.obj
 0001:002236a0       floor1_encode              00000001402246a0 f   libvorbis_static:floor1.obj
 0001:00223de0       floor1_fit                 0000000140224de0 f   libvorbis_static:floor1.obj
 0001:00224440       vorbis_lsp_to_curve        0000000140225440 f   libvorbis_static:lsp.obj
 0001:002246e0       ogg_stream_packetpeek      00000001402256e0 f   libogg_static:framing.obj
 0001:00224700       ogg_stream_packetout       0000000140225700 f   libogg_static:framing.obj
 0001:00224840       ogg_stream_reset_serialno  0000000140225840 f   libogg_static:framing.obj
 0001:00224890       ogg_stream_reset           0000000140225890 f   libogg_static:framing.obj
 0001:002248e0       ogg_sync_reset             00000001402258e0 f   libogg_static:framing.obj
 0001:00224900       ogg_stream_pagein          0000000140225900 f   libogg_static:framing.obj
 0001:00224c70       ogg_sync_pageseek          0000000140225c70 f   libogg_static:framing.obj
 0001:00224e00       ogg_sync_wrote             0000000140225e00 f   libogg_static:framing.obj
 0001:00224e30       ogg_sync_buffer            0000000140225e30 f   libogg_static:framing.obj
 0001:00224f10       ogg_sync_check             0000000140225f10 f   libogg_static:framing.obj
 0001:00224f30       ogg_sync_clear             0000000140225f30 f   libogg_static:framing.obj
 0001:00224f70       ogg_sync_init              0000000140225f70 f   libogg_static:framing.obj
 0001:00224f90       ogg_page_checksum_set      0000000140225f90 f   libogg_static:framing.obj
 0001:002251e0       ogg_stream_clear           00000001402261e0 f   libogg_static:framing.obj
 0001:00225240       ogg_stream_check           0000000140226240 f   libogg_static:framing.obj
 0001:00225260       ogg_stream_init            0000000140226260 f   libogg_static:framing.obj
 0001:00225340       ogg_page_pageno            0000000140226340 f   libogg_static:framing.obj
 0001:00225370       ogg_page_serialno          0000000140226370 f   libogg_static:framing.obj
 0001:002253a0       ogg_page_granulepos        00000001402263a0 f   libogg_static:framing.obj
 0001:00225400       ogg_page_eos               0000000140226400 f   libogg_static:framing.obj
 0001:00225420       ogg_page_bos               0000000140226420 f   libogg_static:framing.obj
 0001:00225440       ogg_page_continued         0000000140226440 f   libogg_static:framing.obj
 0001:00225460       ogg_page_version           0000000140226460 f   libogg_static:framing.obj
 0001:00225470       oggpackB_write             0000000140226470 f   libogg_static:bitwise.obj
 0001:002255d0       oggpack_adv                00000001402265d0 f   libogg_static:bitwise.obj
 0001:00225630       oggpack_look               0000000140226630 f   libogg_static:bitwise.obj
 0001:00225700       oggpack_writeinit          0000000140226700 f   libogg_static:bitwise.obj
 0001:00225740       oggpack_writeclear         0000000140226740 f   libogg_static:bitwise.obj
 0001:00225770       oggpack_bytes              0000000140226770 f   libogg_static:bitwise.obj
 0001:00225790       oggpack_write              0000000140226790 f   libogg_static:bitwise.obj
 0001:002258e0       oggpack_readinit           00000001402268e0 f   libogg_static:bitwise.obj
 0001:00225900       oggpack_read               0000000140226900 f   libogg_static:bitwise.obj
 0001:00225a1b       asinf                      0000000140226a1b f   ucrt:api-ms-win-crt-math-l1-1-0.dll
 0001:00225a21       atan                       0000000140226a21 f   ucrt:api-ms-win-crt-math-l1-1-0.dll
 0001:00225a27       atan2f                     0000000140226a27 f   ucrt:api-ms-win-crt-math-l1-1-0.dll
 0001:00225a2d       ceil                       0000000140226a2d f   ucrt:api-ms-win-crt-math-l1-1-0.dll
 0001:00225a33       ceilf                      0000000140226a33 f   ucrt:api-ms-win-crt-math-l1-1-0.dll
 0001:00225a39       cos                        0000000140226a39 f   ucrt:api-ms-win-crt-math-l1-1-0.dll
 0001:00225a3f       cosf                       0000000140226a3f f   ucrt:api-ms-win-crt-math-l1-1-0.dll
 0001:00225a45       exp                        0000000140226a45 f   ucrt:api-ms-win-crt-math-l1-1-0.dll
 0001:00225a4b       floorf                     0000000140226a4b f   ucrt:api-ms-win-crt-math-l1-1-0.dll
 0001:00225a51       log                        0000000140226a51 f   ucrt:api-ms-win-crt-math-l1-1-0.dll
 0001:00225a57       pow                        0000000140226a57 f   ucrt:api-ms-win-crt-math-l1-1-0.dll
 0001:00225a5d       sin                        0000000140226a5d f   ucrt:api-ms-win-crt-math-l1-1-0.dll
 0001:00225a63       sinf                       0000000140226a63 f   ucrt:api-ms-win-crt-math-l1-1-0.dll
 0001:00225a69       sqrt                       0000000140226a69 f   ucrt:api-ms-win-crt-math-l1-1-0.dll
 0001:00225a6f       sqrtf                      0000000140226a6f f   ucrt:api-ms-win-crt-math-l1-1-0.dll
 0001:00225a75       tan                        0000000140226a75 f   ucrt:api-ms-win-crt-math-l1-1-0.dll
 0001:00225a90       _guard_dispatch_icall_nop  0000000140226a90 f   MSVCRT:guard_dispatch.obj
 0001:00225ab0       _guard_xfg_dispatch_icall_nop 0000000140226ab0 f   MSVCRT:guard_xfg_dispatch.obj
 0002:00000000       __imp_RegOpenKeyExA        0000000140231000     Advapi32:ADVAPI32.dll
 0002:00000008       __imp_RegCloseKey          0000000140231008     Advapi32:ADVAPI32.dll
 0002:00000010       __imp_RegQueryValueExA     0000000140231010     Advapi32:ADVAPI32.dll
 0002:00000018       \177ADVAPI32_NULL_THUNK_DATA 0000000140231018     Advapi32:ADVAPI32.dll
 0002:00000020       __imp_SystemTimeToTzSpecificLocalTime 0000000140231020     kernel32:KERNEL32.dll
 0002:00000028       __imp_GetTimeZoneInformation 0000000140231028     kernel32:KERNEL32.dll
 0002:00000030       __imp_QueryPerformanceCounter 0000000140231030     kernel32:KERNEL32.dll
 0002:00000038       __imp_FreeLibrary          0000000140231038     kernel32:KERNEL32.dll
 0002:00000040       __imp_QueryPerformanceFrequency 0000000140231040     kernel32:KERNEL32.dll
 0002:00000048       __imp_LoadLibraryA         0000000140231048     kernel32:KERNEL32.dll
 0002:00000050       __imp_MultiByteToWideChar  0000000140231050     kernel32:KERNEL32.dll
 0002:00000058       __imp_ReleaseMutex         0000000140231058     kernel32:KERNEL32.dll
 0002:00000060       __imp_GetFileAttributesW   0000000140231060     kernel32:KERNEL32.dll
 0002:00000068       __imp_CreateDirectoryW     0000000140231068     kernel32:KERNEL32.dll
 0002:00000070       __imp_GlobalMemoryStatusEx 0000000140231070     kernel32:KERNEL32.dll
 0002:00000078       __imp_GetVersionExA        0000000140231078     kernel32:KERNEL32.dll
 0002:00000080       __imp_GetCommandLineW      0000000140231080     kernel32:KERNEL32.dll
 0002:00000088       __imp_FindNextFileA        0000000140231088     kernel32:KERNEL32.dll
 0002:00000090       __imp_WideCharToMultiByte  0000000140231090     kernel32:KERNEL32.dll
 0002:00000098       __imp_GetModuleHandleA     0000000140231098     kernel32:KERNEL32.dll
 0002:000000a0       __imp_DeleteCriticalSection 00000001402310a0     kernel32:KERNEL32.dll
 0002:000000a8       __imp_CreateThread         00000001402310a8     kernel32:KERNEL32.dll
 0002:000000b0       __imp_CloseHandle          00000001402310b0     kernel32:KERNEL32.dll
 0002:000000b8       __imp_SetEvent             00000001402310b8     kernel32:KERNEL32.dll
 0002:000000c0       __imp_ExitThread           00000001402310c0     kernel32:KERNEL32.dll
 0002:000000c8       __imp_WaitForSingleObject  00000001402310c8     kernel32:KERNEL32.dll
 0002:000000d0       __imp_InitializeConditionVariable 00000001402310d0     kernel32:KERNEL32.dll
 0002:000000d8       __imp_InitializeCriticalSection 00000001402310d8     kernel32:KERNEL32.dll
 0002:000000e0       __imp_LeaveCriticalSection 00000001402310e0     kernel32:KERNEL32.dll
 0002:000000e8       __imp_WakeConditionVariable 00000001402310e8     kernel32:KERNEL32.dll
 0002:000000f0       __imp_EnterCriticalSection 00000001402310f0     kernel32:KERNEL32.dll
 0002:000000f8       __imp_SleepConditionVariableCS 00000001402310f8     kernel32:KERNEL32.dll
 0002:00000100       __imp_CreateDirectoryA     0000000140231100     kernel32:KERNEL32.dll
 0002:00000108       __imp_FileTimeToSystemTime 0000000140231108     kernel32:KERNEL32.dll
 0002:00000110       __imp_GetFileAttributesA   0000000140231110     kernel32:KERNEL32.dll
 0002:00000118       __imp_FindClose            0000000140231118     kernel32:KERNEL32.dll
 0002:00000120       __imp_FindFirstFileA       0000000140231120     kernel32:KERNEL32.dll
 0002:00000128       __imp_GetProcAddress       0000000140231128     kernel32:KERNEL32.dll
 0002:00000130       __imp_GetCurrentProcess    0000000140231130     kernel32:KERNEL32.dll
 0002:00000138       __imp_CreateEventA         0000000140231138     kernel32:KERNEL32.dll
 0002:00000140       __imp_RtlVirtualUnwind     0000000140231140     kernel32:KERNEL32.dll
 0002:00000148       __imp_LoadLibraryExA       0000000140231148     kernel32:KERNEL32.dll
 0002:00000150       __imp_VirtualQuery         0000000140231150     kernel32:KERNEL32.dll
 0002:00000158       __imp_SetLastError         0000000140231158     kernel32:KERNEL32.dll
 0002:00000160       __imp_GetModuleHandleW     0000000140231160     kernel32:KERNEL32.dll
 0002:00000168       __imp_VirtualProtect       0000000140231168     kernel32:KERNEL32.dll
 0002:00000170       __imp_VirtualAlloc         0000000140231170     kernel32:KERNEL32.dll
 0002:00000178       __imp_GetCurrentThreadId   0000000140231178     kernel32:KERNEL32.dll
 0002:00000180       __imp_InitializeSListHead  0000000140231180     kernel32:KERNEL32.dll
 0002:00000188       __imp_GetSystemTimeAsFileTime 0000000140231188     kernel32:KERNEL32.dll
 0002:00000190       __imp_GetCurrentProcessId  0000000140231190     kernel32:KERNEL32.dll
 0002:00000198       __imp_GetStartupInfoW      0000000140231198     kernel32:KERNEL32.dll
 0002:000001a0       __imp_IsDebuggerPresent    00000001402311a0     kernel32:KERNEL32.dll
 0002:000001a8       __imp_SleepConditionVariableSRW 00000001402311a8     kernel32:KERNEL32.dll
 0002:000001b0       __imp_WakeAllConditionVariable 00000001402311b0     kernel32:KERNEL32.dll
 0002:000001b8       __imp_AcquireSRWLockExclusive 00000001402311b8     kernel32:KERNEL32.dll
 0002:000001c0       __imp_ReleaseSRWLockExclusive 00000001402311c0     kernel32:KERNEL32.dll
 0002:000001c8       __imp_IsProcessorFeaturePresent 00000001402311c8     kernel32:KERNEL32.dll
 0002:000001d0       __imp_TerminateProcess     00000001402311d0     kernel32:KERNEL32.dll
 0002:000001d8       __imp_SetUnhandledExceptionFilter 00000001402311d8     kernel32:KERNEL32.dll
 0002:000001e0       __imp_UnhandledExceptionFilter 00000001402311e0     kernel32:KERNEL32.dll
 0002:000001e8       __imp_VirtualFree          00000001402311e8     kernel32:KERNEL32.dll
 0002:000001f0       __imp_RtlLookupFunctionEntry 00000001402311f0     kernel32:KERNEL32.dll
 0002:000001f8       __imp_RtlCaptureContext    00000001402311f8     kernel32:KERNEL32.dll
 0002:00000200       __imp_LCMapStringEx        0000000140231200     kernel32:KERNEL32.dll
 0002:00000208       __imp_InitializeCriticalSectionEx 0000000140231208     kernel32:KERNEL32.dll
 0002:00000210       __imp_DecodePointer        0000000140231210     kernel32:KERNEL32.dll
 0002:00000218       __imp_EncodePointer        0000000140231218     kernel32:KERNEL32.dll
 0002:00000220       __imp_GetSystemInfo        0000000140231220     kernel32:KERNEL32.dll
 0002:00000228       __imp_RaiseException       0000000140231228     kernel32:KERNEL32.dll
 0002:00000230       __imp_GetLastError         0000000140231230     kernel32:KERNEL32.dll
 0002:00000238       \177KERNEL32_NULL_THUNK_DATA 0000000140231238     kernel32:KERNEL32.dll
 0002:00000240       __imp_glEnable             0000000140231240     opengl32:OPENGL32.dll
 0002:00000248       __imp_wglGetProcAddress    0000000140231248     opengl32:OPENGL32.dll
 0002:00000250       __imp_glScissor            0000000140231250     opengl32:OPENGL32.dll
 0002:00000258       __imp_glGetString          0000000140231258     opengl32:OPENGL32.dll
 0002:00000260       __imp_glFinish             0000000140231260     opengl32:OPENGL32.dll
 0002:00000268       __imp_glTexSubImage2D      0000000140231268     opengl32:OPENGL32.dll
 0002:00000270       __imp_glPolygonMode        0000000140231270     opengl32:OPENGL32.dll
 0002:00000278       __imp_glTexParameterf      0000000140231278     opengl32:OPENGL32.dll
 0002:00000280       __imp_glDrawElements       0000000140231280     opengl32:OPENGL32.dll
 0002:00000288       __imp_glColorMask          0000000140231288     opengl32:OPENGL32.dll
 0002:00000290       __imp_glDepthFunc          0000000140231290     opengl32:OPENGL32.dll
 0002:00000298       __imp_glPolygonOffset      0000000140231298     opengl32:OPENGL32.dll
 0002:000002a0       __imp_glGetError           00000001402312a0     opengl32:OPENGL32.dll
 0002:000002a8       __imp_glDrawBuffer         00000001402312a8     opengl32:OPENGL32.dll
 0002:000002b0       __imp_glClearColor         00000001402312b0     opengl32:OPENGL32.dll
 0002:000002b8       __imp_glReadBuffer         00000001402312b8     opengl32:OPENGL32.dll
 0002:000002c0       __imp_glClear              00000001402312c0     opengl32:OPENGL32.dll
 0002:000002c8       __imp_glLineWidth          00000001402312c8     opengl32:OPENGL32.dll
 0002:000002d0       __imp_glReadPixels         00000001402312d0     opengl32:OPENGL32.dll
 0002:000002d8       __imp_glViewport           00000001402312d8     opengl32:OPENGL32.dll
 0002:000002e0       __imp_glCopyTexImage2D     00000001402312e0     opengl32:OPENGL32.dll
 0002:000002e8       __imp_glBlendFunc          00000001402312e8     opengl32:OPENGL32.dll
 0002:000002f0       __imp_glDepthMask          00000001402312f0     opengl32:OPENGL32.dll
 0002:000002f8       __imp_glDisable            00000001402312f8     opengl32:OPENGL32.dll
 0002:00000300       __imp_glPointSize          0000000140231300     opengl32:OPENGL32.dll
 0002:00000308       __imp_glGetIntegerv        0000000140231308     opengl32:OPENGL32.dll
 0002:00000310       __imp_glTexImage2D         0000000140231310     opengl32:OPENGL32.dll
 0002:00000318       __imp_glDeleteTextures     0000000140231318     opengl32:OPENGL32.dll
 0002:00000320       __imp_glTexParameteri      0000000140231320     opengl32:OPENGL32.dll
 0002:00000328       __imp_glTexParameterfv     0000000140231328     opengl32:OPENGL32.dll
 0002:00000330       __imp_glGenTextures        0000000140231330     opengl32:OPENGL32.dll
 0002:00000338       __imp_glBindTexture        0000000140231338     opengl32:OPENGL32.dll
 0002:00000340       __imp_glDrawArrays         0000000140231340     opengl32:OPENGL32.dll
 0002:00000348       __imp_glCullFace           0000000140231348     opengl32:OPENGL32.dll
 0002:00000350       \177OPENGL32_NULL_THUNK_DATA 0000000140231350     opengl32:OPENGL32.dll
 0002:00000358       __imp_SetCursorPos         0000000140231358     user32:USER32.dll
 0002:00000360       __imp_GetCursorPos         0000000140231360     user32:USER32.dll
 0002:00000368       __imp_EnumDisplayDevicesA  0000000140231368     user32:USER32.dll
 0002:00000370       __imp_DestroyWindow        0000000140231370     user32:USER32.dll
 0002:00000378       __imp_DefWindowProcA       0000000140231378     user32:USER32.dll
 0002:00000380       __imp_CreateWindowExA      0000000140231380     user32:USER32.dll
 0002:00000388       __imp_GetWindowLongPtrA    0000000140231388     user32:USER32.dll
 0002:00000390       __imp_PostQuitMessage      0000000140231390     user32:USER32.dll
 0002:00000398       __imp_SetWindowLongPtrA    0000000140231398     user32:USER32.dll
 0002:000003a0       __imp_GetWindowTextW       00000001402313a0     user32:USER32.dll
 0002:000003a8       __imp_MessageBoxA          00000001402313a8     user32:USER32.dll
 0002:000003b0       \177USER32_NULL_THUNK_DATA 00000001402313b0     user32:USER32.dll
 0002:000003b8       __imp_strrchr              00000001402313b8     vcruntime:VCRUNTIME140.dll
 0002:000003c0       __imp__purecall            00000001402313c0     vcruntime:VCRUNTIME140.dll
 0002:000003c8       __imp___intrinsic_setjmp   00000001402313c8     vcruntime:VCRUNTIME140.dll
 0002:000003d0       __imp___current_exception_context 00000001402313d0     vcruntime:VCRUNTIME140.dll
 0002:000003d8       __imp___current_exception  00000001402313d8     vcruntime:VCRUNTIME140.dll
 0002:000003e0       __imp___uncaught_exception 00000001402313e0     vcruntime:VCRUNTIME140.dll
 0002:000003e8       __imp__CxxThrowException   00000001402313e8     vcruntime:VCRUNTIME140.dll
 0002:000003f0       __imp___C_specific_handler 00000001402313f0     vcruntime:VCRUNTIME140.dll
 0002:000003f8       __imp_memcmp               00000001402313f8     vcruntime:VCRUNTIME140.dll
 0002:00000400       __imp_memchr               0000000140231400     vcruntime:VCRUNTIME140.dll
 0002:00000408       __imp_strstr               0000000140231408     vcruntime:VCRUNTIME140.dll
 0002:00000410       __imp_memset               0000000140231410     vcruntime:VCRUNTIME140.dll
 0002:00000418       __imp_memmove              0000000140231418     vcruntime:VCRUNTIME140.dll
 0002:00000420       __imp_memcpy               0000000140231420     vcruntime:VCRUNTIME140.dll
 0002:00000428       __imp___std_exception_copy 0000000140231428     vcruntime:VCRUNTIME140.dll
 0002:00000430       __imp___std_exception_destroy 0000000140231430     vcruntime:VCRUNTIME140.dll
 0002:00000438       __imp___std_terminate      0000000140231438     vcruntime:VCRUNTIME140.dll
 0002:00000440       __imp_longjmp              0000000140231440     vcruntime:VCRUNTIME140.dll
 0002:00000448       \177VCRUNTIME140_NULL_THUNK_DATA 0000000140231448     vcruntime:VCRUNTIME140.dll
 0002:00000450       __imp___CxxFrameHandler4   0000000140231450     vcruntime:VCRUNTIME140_1.dll
 0002:00000458       \177VCRUNTIME140_1_NULL_THUNK_DATA 0000000140231458     vcruntime:VCRUNTIME140_1.dll
 0002:00000460       __imp_timeBeginPeriod      0000000140231460     winmm:WINMM.dll
 0002:00000468       __imp_timeGetTime          0000000140231468     winmm:WINMM.dll
 0002:00000470       __imp_timeEndPeriod        0000000140231470     winmm:WINMM.dll
 0002:00000478       \177WINMM_NULL_THUNK_DATA  0000000140231478     winmm:WINMM.dll
 0002:00000480       __imp_getsockopt           0000000140231480     ws2_32:WS2_32.dll
 0002:00000488       __imp_ioctlsocket          0000000140231488     ws2_32:WS2_32.dll
 0002:00000490       __imp_setsockopt           0000000140231490     ws2_32:WS2_32.dll
 0002:00000498       __imp_socket               0000000140231498     ws2_32:WS2_32.dll
 0002:000004a0       __imp_listen               00000001402314a0     ws2_32:WS2_32.dll
 0002:000004a8       __imp_ntohs                00000001402314a8     ws2_32:WS2_32.dll
 0002:000004b0       __imp_WSAGetLastError      00000001402314b0     ws2_32:WS2_32.dll
 0002:000004b8       __imp_bind                 00000001402314b8     ws2_32:WS2_32.dll
 0002:000004c0       __imp_closesocket          00000001402314c0     ws2_32:WS2_32.dll
 0002:000004c8       __imp_gethostbyaddr        00000001402314c8     ws2_32:WS2_32.dll
 0002:000004d0       __imp_inet_ntoa            00000001402314d0     ws2_32:WS2_32.dll
 0002:000004d8       __imp_gethostbyname        00000001402314d8     ws2_32:WS2_32.dll
 0002:000004e0       __imp_WSACleanup           00000001402314e0     ws2_32:WS2_32.dll
 0002:000004e8       __imp_WSAStartup           00000001402314e8     ws2_32:WS2_32.dll
 0002:000004f0       __imp_select               00000001402314f0     ws2_32:WS2_32.dll
 0002:000004f8       __imp_accept               00000001402314f8     ws2_32:WS2_32.dll
 0002:00000500       __imp_getsockname          0000000140231500     ws2_32:WS2_32.dll
 0002:00000508       __imp_shutdown             0000000140231508     ws2_32:WS2_32.dll
 0002:00000510       __imp_WSASendTo            0000000140231510     ws2_32:WS2_32.dll
 0002:00000518       __imp___WSAFDIsSet         0000000140231518     ws2_32:WS2_32.dll
 0002:00000520       __imp_htonl                0000000140231520     ws2_32:WS2_32.dll
 0002:00000528       __imp_ntohl                0000000140231528     ws2_32:WS2_32.dll
 0002:00000530       __imp_htons                0000000140231530     ws2_32:WS2_32.dll
 0002:00000538       __imp_WSARecvFrom          0000000140231538     ws2_32:WS2_32.dll
 0002:00000540       __imp_connect              0000000140231540     ws2_32:WS2_32.dll
 0002:00000548       \177WS2_32_NULL_THUNK_DATA 0000000140231548     ws2_32:WS2_32.dll
 0002:00000550       __imp_atoi                 0000000140231550     ucrt:api-ms-win-crt-convert-l1-1-0.dll
 0002:00000558       __imp_atof                 0000000140231558     ucrt:api-ms-win-crt-convert-l1-1-0.dll
 0002:00000560       __imp_strtol               0000000140231560     ucrt:api-ms-win-crt-convert-l1-1-0.dll
 0002:00000568       __imp_atol                 0000000140231568     ucrt:api-ms-win-crt-convert-l1-1-0.dll
 0002:00000570       \177api-ms-win-crt-convert-l1-1-0_NULL_THUNK_DATA 0000000140231570     ucrt:api-ms-win-crt-convert-l1-1-0.dll
 0002:00000578       __imp__unlock_file         0000000140231578     ucrt:api-ms-win-crt-filesystem-l1-1-0.dll
 0002:00000580       __imp_remove               0000000140231580     ucrt:api-ms-win-crt-filesystem-l1-1-0.dll
 0002:00000588       __imp__lock_file           0000000140231588     ucrt:api-ms-win-crt-filesystem-l1-1-0.dll
 0002:00000590       \177api-ms-win-crt-filesystem-l1-1-0_NULL_THUNK_DATA 0000000140231590     ucrt:api-ms-win-crt-filesystem-l1-1-0.dll
 0002:00000598       __imp__set_new_mode        0000000140231598     ucrt:api-ms-win-crt-heap-l1-1-0.dll
 0002:000005a0       __imp_calloc               00000001402315a0     ucrt:api-ms-win-crt-heap-l1-1-0.dll
 0002:000005a8       __imp_free                 00000001402315a8     ucrt:api-ms-win-crt-heap-l1-1-0.dll
 0002:000005b0       __imp__callnewh            00000001402315b0     ucrt:api-ms-win-crt-heap-l1-1-0.dll
 0002:000005b8       __imp_malloc               00000001402315b8     ucrt:api-ms-win-crt-heap-l1-1-0.dll
 0002:000005c0       __imp_realloc              00000001402315c0     ucrt:api-ms-win-crt-heap-l1-1-0.dll
 0002:000005c8       \177api-ms-win-crt-heap-l1-1-0_NULL_THUNK_DATA 00000001402315c8     ucrt:api-ms-win-crt-heap-l1-1-0.dll
 0002:000005d0       __imp____mb_cur_max_func   00000001402315d0     ucrt:api-ms-win-crt-locale-l1-1-0.dll
 0002:000005d8       __imp_localeconv           00000001402315d8     ucrt:api-ms-win-crt-locale-l1-1-0.dll
 0002:000005e0       __imp_setlocale            00000001402315e0     ucrt:api-ms-win-crt-locale-l1-1-0.dll
 0002:000005e8       __imp____lc_locale_name_func 00000001402315e8     ucrt:api-ms-win-crt-locale-l1-1-0.dll
 0002:000005f0       __imp__unlock_locales      00000001402315f0     ucrt:api-ms-win-crt-locale-l1-1-0.dll
 0002:000005f8       __imp__lock_locales        00000001402315f8     ucrt:api-ms-win-crt-locale-l1-1-0.dll
 0002:00000600       __imp__configthreadlocale  0000000140231600     ucrt:api-ms-win-crt-locale-l1-1-0.dll
 0002:00000608       __imp___pctype_func        0000000140231608     ucrt:api-ms-win-crt-locale-l1-1-0.dll
 0002:00000610       __imp____lc_codepage_func  0000000140231610     ucrt:api-ms-win-crt-locale-l1-1-0.dll
 0002:00000618       \177api-ms-win-crt-locale-l1-1-0_NULL_THUNK_DATA 0000000140231618     ucrt:api-ms-win-crt-locale-l1-1-0.dll
 0002:00000620       __imp_sqrt                 0000000140231620     ucrt:api-ms-win-crt-math-l1-1-0.dll
 0002:00000628       __imp_sinf                 0000000140231628     ucrt:api-ms-win-crt-math-l1-1-0.dll
 0002:00000630       __imp_sin                  0000000140231630     ucrt:api-ms-win-crt-math-l1-1-0.dll
 0002:00000638       __imp_pow                  0000000140231638     ucrt:api-ms-win-crt-math-l1-1-0.dll
 0002:00000640       __imp_ldexp                0000000140231640     ucrt:api-ms-win-crt-math-l1-1-0.dll
 0002:00000648       __imp_sqrtf                0000000140231648     ucrt:api-ms-win-crt-math-l1-1-0.dll
 0002:00000650       __imp_atan                 0000000140231650     ucrt:api-ms-win-crt-math-l1-1-0.dll
 0002:00000658       __imp_floor                0000000140231658     ucrt:api-ms-win-crt-math-l1-1-0.dll
 0002:00000660       __imp_log                  0000000140231660     ucrt:api-ms-win-crt-math-l1-1-0.dll
 0002:00000668       __imp_floorf               0000000140231668     ucrt:api-ms-win-crt-math-l1-1-0.dll
 0002:00000670       __imp_exp                  0000000140231670     ucrt:api-ms-win-crt-math-l1-1-0.dll
 0002:00000678       __imp_cosf                 0000000140231678     ucrt:api-ms-win-crt-math-l1-1-0.dll
 0002:00000680       __imp_cos                  0000000140231680     ucrt:api-ms-win-crt-math-l1-1-0.dll
 0002:00000688       __imp_asinf                0000000140231688     ucrt:api-ms-win-crt-math-l1-1-0.dll
 0002:00000690       __imp_ceilf                0000000140231690     ucrt:api-ms-win-crt-math-l1-1-0.dll
 0002:00000698       __imp_ceil                 0000000140231698     ucrt:api-ms-win-crt-math-l1-1-0.dll
 0002:000006a0       __imp_atan2f               00000001402316a0     ucrt:api-ms-win-crt-math-l1-1-0.dll
 0002:000006a8       __imp_frexp                00000001402316a8     ucrt:api-ms-win-crt-math-l1-1-0.dll
 0002:000006b0       __imp_tan                  00000001402316b0     ucrt:api-ms-win-crt-math-l1-1-0.dll
 0002:000006b8       __imp___setusermatherr     00000001402316b8     ucrt:api-ms-win-crt-math-l1-1-0.dll
 0002:000006c0       __imp__dclass              00000001402316c0     ucrt:api-ms-win-crt-math-l1-1-0.dll
 0002:000006c8       __imp__ldclass             00000001402316c8     ucrt:api-ms-win-crt-math-l1-1-0.dll
 0002:000006d0       \177api-ms-win-crt-math-l1-1-0_NULL_THUNK_DATA 00000001402316d0     ucrt:api-ms-win-crt-math-l1-1-0.dll
 0002:000006d8       __imp__configure_narrow_argv 00000001402316d8     ucrt:api-ms-win-crt-runtime-l1-1-0.dll
 0002:000006e0       __imp__set_app_type        00000001402316e0     ucrt:api-ms-win-crt-runtime-l1-1-0.dll
 0002:000006e8       __imp__seh_filter_exe      00000001402316e8     ucrt:api-ms-win-crt-runtime-l1-1-0.dll
 0002:000006f0       __imp__cexit               00000001402316f0     ucrt:api-ms-win-crt-runtime-l1-1-0.dll
 0002:000006f8       __imp__wassert             00000001402316f8     ucrt:api-ms-win-crt-runtime-l1-1-0.dll
 0002:00000700       __imp__crt_atexit          0000000140231700     ucrt:api-ms-win-crt-runtime-l1-1-0.dll
 0002:00000708       __imp__register_thread_local_exe_atexit_callback 0000000140231708     ucrt:api-ms-win-crt-runtime-l1-1-0.dll
 0002:00000710       __imp_strerror             0000000140231710     ucrt:api-ms-win-crt-runtime-l1-1-0.dll
 0002:00000718       __imp__errno               0000000140231718     ucrt:api-ms-win-crt-runtime-l1-1-0.dll
 0002:00000720       __imp_exit                 0000000140231720     ucrt:api-ms-win-crt-runtime-l1-1-0.dll
 0002:00000728       __imp__c_exit              0000000140231728     ucrt:api-ms-win-crt-runtime-l1-1-0.dll
 0002:00000730       __imp_abort                0000000140231730     ucrt:api-ms-win-crt-runtime-l1-1-0.dll
 0002:00000738       __imp__get_narrow_winmain_command_line 0000000140231738     ucrt:api-ms-win-crt-runtime-l1-1-0.dll
 0002:00000740       __imp__initterm            0000000140231740     ucrt:api-ms-win-crt-runtime-l1-1-0.dll
 0002:00000748       __imp__initialize_narrow_environment 0000000140231748     ucrt:api-ms-win-crt-runtime-l1-1-0.dll
 0002:00000750       __imp__register_onexit_function 0000000140231750     ucrt:api-ms-win-crt-runtime-l1-1-0.dll
 0002:00000758       __imp__initterm_e          0000000140231758     ucrt:api-ms-win-crt-runtime-l1-1-0.dll
 0002:00000760       __imp_terminate            0000000140231760     ucrt:api-ms-win-crt-runtime-l1-1-0.dll
 0002:00000768       __imp__initialize_onexit_table 0000000140231768     ucrt:api-ms-win-crt-runtime-l1-1-0.dll
 0002:00000770       __imp__exit                0000000140231770     ucrt:api-ms-win-crt-runtime-l1-1-0.dll
 0002:00000778       __imp__invalid_parameter_noinfo_noreturn 0000000140231778     ucrt:api-ms-win-crt-runtime-l1-1-0.dll
 0002:00000780       \177api-ms-win-crt-runtime-l1-1-0_NULL_THUNK_DATA 0000000140231780     ucrt:api-ms-win-crt-runtime-l1-1-0.dll
 0002:00000788       __imp__set_fmode           0000000140231788     ucrt:api-ms-win-crt-stdio-l1-1-0.dll
 0002:00000790       __imp___stdio_common_vfprintf 0000000140231790     ucrt:api-ms-win-crt-stdio-l1-1-0.dll
 0002:00000798       __imp___acrt_iob_func      0000000140231798     ucrt:api-ms-win-crt-stdio-l1-1-0.dll
 0002:000007a0       __imp___p__commode         00000001402317a0     ucrt:api-ms-win-crt-stdio-l1-1-0.dll
 0002:000007a8       __imp__get_stream_buffer_pointers 00000001402317a8     ucrt:api-ms-win-crt-stdio-l1-1-0.dll
 0002:000007b0       __imp_fsetpos              00000001402317b0     ucrt:api-ms-win-crt-stdio-l1-1-0.dll
 0002:000007b8       __imp_ungetc               00000001402317b8     ucrt:api-ms-win-crt-stdio-l1-1-0.dll
 0002:000007c0       __imp_setvbuf              00000001402317c0     ucrt:api-ms-win-crt-stdio-l1-1-0.dll
 0002:000007c8       __imp_fgetpos              00000001402317c8     ucrt:api-ms-win-crt-stdio-l1-1-0.dll
 0002:000007d0       __imp_fwrite               00000001402317d0     ucrt:api-ms-win-crt-stdio-l1-1-0.dll
 0002:000007d8       __imp_fflush               00000001402317d8     ucrt:api-ms-win-crt-stdio-l1-1-0.dll
 0002:000007e0       __imp_fputc                00000001402317e0     ucrt:api-ms-win-crt-stdio-l1-1-0.dll
 0002:000007e8       __imp_fgetc                00000001402317e8     ucrt:api-ms-win-crt-stdio-l1-1-0.dll
 0002:000007f0       __imp_fseek                00000001402317f0     ucrt:api-ms-win-crt-stdio-l1-1-0.dll
 0002:000007f8       __imp_fopen                00000001402317f8     ucrt:api-ms-win-crt-stdio-l1-1-0.dll
 0002:00000800       __imp__fseeki64            0000000140231800     ucrt:api-ms-win-crt-stdio-l1-1-0.dll
 0002:00000808       __imp_fread                0000000140231808     ucrt:api-ms-win-crt-stdio-l1-1-0.dll
 0002:00000810       __imp_ftell                0000000140231810     ucrt:api-ms-win-crt-stdio-l1-1-0.dll
 0002:00000818       __imp___stdio_common_vsprintf_s 0000000140231818     ucrt:api-ms-win-crt-stdio-l1-1-0.dll
 0002:00000820       __imp___stdio_common_vsprintf 0000000140231820     ucrt:api-ms-win-crt-stdio-l1-1-0.dll
 0002:00000828       __imp_fclose               0000000140231828     ucrt:api-ms-win-crt-stdio-l1-1-0.dll
 0002:00000830       \177api-ms-win-crt-stdio-l1-1-0_NULL_THUNK_DATA 0000000140231830     ucrt:api-ms-win-crt-stdio-l1-1-0.dll
 0002:00000838       __imp_strncmp              0000000140231838     ucrt:api-ms-win-crt-string-l1-1-0.dll
 0002:00000840       __imp_strcspn              0000000140231840     ucrt:api-ms-win-crt-string-l1-1-0.dll
 0002:00000848       __imp_tolower              0000000140231848     ucrt:api-ms-win-crt-string-l1-1-0.dll
 0002:00000850       __imp_isspace              0000000140231850     ucrt:api-ms-win-crt-string-l1-1-0.dll
 0002:00000858       __imp_strncpy              0000000140231858     ucrt:api-ms-win-crt-string-l1-1-0.dll
 0002:00000860       __imp_strcmp               0000000140231860     ucrt:api-ms-win-crt-string-l1-1-0.dll
 0002:00000868       __imp_strlen               0000000140231868     ucrt:api-ms-win-crt-string-l1-1-0.dll
 0002:00000870       __imp___strncnt            0000000140231870     ucrt:api-ms-win-crt-string-l1-1-0.dll
 0002:00000878       __imp_islower              0000000140231878     ucrt:api-ms-win-crt-string-l1-1-0.dll
 0002:00000880       __imp__wcsdup              0000000140231880     ucrt:api-ms-win-crt-string-l1-1-0.dll
 0002:00000888       __imp_isupper              0000000140231888     ucrt:api-ms-win-crt-string-l1-1-0.dll
 0002:00000890       \177api-ms-win-crt-string-l1-1-0_NULL_THUNK_DATA 0000000140231890     ucrt:api-ms-win-crt-string-l1-1-0.dll
 0002:00000898       __imp_clock                0000000140231898     ucrt:api-ms-win-crt-time-l1-1-0.dll
 0002:000008a0       __imp__time64              00000001402318a0     ucrt:api-ms-win-crt-time-l1-1-0.dll
 0002:000008a8       __imp__localtime64         00000001402318a8     ucrt:api-ms-win-crt-time-l1-1-0.dll
 0002:000008b0       __imp_strftime             00000001402318b0     ucrt:api-ms-win-crt-time-l1-1-0.dll
 0002:000008b8       \177api-ms-win-crt-time-l1-1-0_NULL_THUNK_DATA 00000001402318b8     ucrt:api-ms-win-crt-time-l1-1-0.dll
 0002:000008c0       __imp_rand                 00000001402318c0     ucrt:api-ms-win-crt-utility-l1-1-0.dll
 0002:000008c8       __imp_qsort                00000001402318c8     ucrt:api-ms-win-crt-utility-l1-1-0.dll
 0002:000008d0       \177api-ms-win-crt-utility-l1-1-0_NULL_THUNK_DATA 00000001402318d0     ucrt:api-ms-win-crt-utility-l1-1-0.dll
 0002:000008d8       __imp_Discord_Initialize   00000001402318d8     discord-rpc:discord-rpc.dll
 0002:000008e0       __imp_Discord_Shutdown     00000001402318e0     discord-rpc:discord-rpc.dll
 0002:000008e8       __imp_Discord_UpdatePresence 00000001402318e8     discord-rpc:discord-rpc.dll
 0002:000008f0       \177discord-rpc_NULL_THUNK_DATA 00000001402318f0     discord-rpc:discord-rpc.dll
 0002:000008f8       __imp_sentry_init          00000001402318f8     sentry:sentry.dll
 0002:00000900       __imp_sentry_close         0000000140231900     sentry:sentry.dll
 0002:00000908       __imp_sentry_options_set_database_path 0000000140231908     sentry:sentry.dll
 0002:00000910       __imp_sentry_options_set_dsn 0000000140231910     sentry:sentry.dll
 0002:00000918       __imp_sentry_options_set_release 0000000140231918     sentry:sentry.dll
 0002:00000920       __imp_sentry_options_set_debug 0000000140231920     sentry:sentry.dll
 0002:00000928       __imp_sentry_options_free  0000000140231928     sentry:sentry.dll
 0002:00000930       __imp_sentry_options_new   0000000140231930     sentry:sentry.dll
 0002:00000938       \177sentry_NULL_THUNK_DATA 0000000140231938     sentry:sentry.dll
 0002:00000940       __guard_check_icall_fptr   0000000140231940     MSVCRT:guard_support.obj
 0002:00000948       __guard_xfg_check_icall_fptr 0000000140231948     MSVCRT:guard_support.obj
 0002:00000950       __guard_dispatch_icall_fptr 0000000140231950     MSVCRT:guard_support.obj
 0002:00000958       __guard_xfg_dispatch_icall_fptr 0000000140231958     MSVCRT:guard_support.obj
 0002:00000960       __guard_xfg_table_dispatch_icall_fptr 0000000140231960     MSVCRT:guard_support.obj
 0002:00000968       __castguard_check_failure_os_handled_fptr 0000000140231968     MSVCRT:guard_support.obj
 0002:00000970       __guard_memcpy_fptr        0000000140231970     vcruntime:softmemtag.obj
 0002:00000978       __xc_a                     0000000140231978     MSVCRT:initializers.obj
 0002:00000b78       __xc_z                     0000000140231b78     MSVCRT:initializers.obj
 0002:00000b80       __xi_a                     0000000140231b80     MSVCRT:initializers.obj
 0002:00000b98       __xi_z                     0000000140231b98     MSVCRT:initializers.obj
 0002:00000ba0       __xl_a                     0000000140231ba0     MSVCRT:tlssup.obj
 0002:00000ba8       __xl_z                     0000000140231ba8     MSVCRT:tlssup.obj
 0002:00000bb0       __xp_a                     0000000140231bb0     MSVCRT:initializers.obj
 0002:00000bb8       __xp_z                     0000000140231bb8     MSVCRT:initializers.obj
 0002:00000bc0       __xt_a                     0000000140231bc0     MSVCRT:initializers.obj
 0002:00000bc8       __xt_z                     0000000140231bc8     MSVCRT:initializers.obj
 0002:00000be0       __sz_SDL2_dll              0000000140231be0     SDL2:SDL2.dll
 0002:00000bf0       ft_bitmap_glyph_class      0000000140231bf0     freetype253:ftglyph.obj
 0002:00000c28       ft_outline_glyph_class     0000000140231c28     freetype253:ftglyph.obj
 0002:00000c60       ft_raccess_guess_table     0000000140231c60     freetype253:ftbase.obj
 0002:00000d70       ??_C@_02PEOAMJM@?4_@       0000000140231d70     freetype253:ftbase.obj
 0002:00000d74       ??_C@_05FLPKNBDI@?1rsrc@   0000000140231d74     freetype253:ftbase.obj
 0002:00000d80       ??_C@_0BC@OBHLCHMP@?1?4?4namedfork?1rsrc@ 0000000140231d80     freetype253:ftbase.obj
 0002:00000d98       ??_C@_0O@FDMCFKOC@resource?4frk?1@ 0000000140231d98     freetype253:ftbase.obj
 0002:00000da8       ??_C@_0L@FGJFJHGF@?4resource?1@ 0000000140231da8     freetype253:ftbase.obj
 0002:00000db4       ??_C@_01FGNFDNOH@?$CF@     0000000140231db4     freetype253:ftbase.obj
 0002:00000db8       ??_C@_0O@KCDCBAF@?4AppleDouble?1@ 0000000140231db8     freetype253:ftbase.obj
 0002:00000dc8       ??_C@_03LBLPCGAC@cid@      0000000140231dc8     freetype253:ftbase.obj
 0002:00000dcc       ??_C@_05MJDCDNNA@type1@    0000000140231dcc     freetype253:ftbase.obj
 0002:00000dd4       ??_C@_03IINFADLN@cff@      0000000140231dd4     freetype253:ftbase.obj
 0002:00000dd8       ??_C@_08OKLLNAKL@truetype@ 0000000140231dd8     freetype253:ftbase.obj
 0002:00000de8       ??_C@_07IAOBDJBM@kerning@  0000000140231de8     freetype253:ftbase.obj
 0002:00000df0       ??_C@_0L@POCJHJKN@glyph?9dict@ 0000000140231df0     freetype253:ftbase.obj
 0002:00000e00       ??_C@_0BF@GDPJODJF@postscript?9font?9name@ 0000000140231e00     freetype253:ftbase.obj
 0002:00000e18       ??_C@_0L@MBBJBANC@sfnt?9table@ 0000000140231e18     freetype253:ftbase.obj
 0002:00000e28       ??_C@_08OHCKCLF@tt?9cmaps@ 0000000140231e28     freetype253:ftbase.obj
 0002:00000e38       ??_C@_0L@CIHKIEFA@properties@ 0000000140231e38     freetype253:ftbase.obj
 0002:00000e44       ??_C@_06GNKBHGHD@type42@   0000000140231e44     freetype253:ftbase.obj
 0002:00000e50       ??_C@_0BA@DHLLBDBB@truetype?9engine@ 0000000140231e50     freetype253:ftbase.obj
 0002:00000f20       ??_C@_02JDPG@rb@           0000000140231f20     freetype253:ftsystem.obj
 0002:00000f30       af_blue_strings            0000000140231f30     freetype253:autofit.obj
 0002:00001140       af_blue_stringsets         0000000140232140     freetype253:autofit.obj
 0002:00001228       autofit_module_class       0000000140232228     freetype253:autofit.obj
 0002:00001260       af_writing_system_classes  0000000140232260     freetype253:autofit.obj
 0002:00001288       af_cyrl_script_class       0000000140232288     freetype253:autofit.obj
 0002:000012a8       af_grek_script_class       00000001402322a8     freetype253:autofit.obj
 0002:000012c8       af_hebr_script_class       00000001402322c8     freetype253:autofit.obj
 0002:000012e8       af_latn_script_class       00000001402322e8     freetype253:autofit.obj
 0002:00001308       af_none_script_class       0000000140232308     freetype253:autofit.obj
 0002:00001328       af_beng_script_class       0000000140232328     freetype253:autofit.obj
 0002:00001348       af_deva_script_class       0000000140232348     freetype253:autofit.obj
 0002:00001368       af_gujr_script_class       0000000140232368     freetype253:autofit.obj
 0002:00001388       af_guru_script_class       0000000140232388     freetype253:autofit.obj
 0002:000013a8       af_knda_script_class       00000001402323a8     freetype253:autofit.obj
 0002:000013c8       af_limb_script_class       00000001402323c8     freetype253:autofit.obj
 0002:000013e8       af_mlym_script_class       00000001402323e8     freetype253:autofit.obj
 0002:00001408       af_orya_script_class       0000000140232408     freetype253:autofit.obj
 0002:00001428       af_sinh_script_class       0000000140232428     freetype253:autofit.obj
 0002:00001448       af_sund_script_class       0000000140232448     freetype253:autofit.obj
 0002:00001468       af_sylo_script_class       0000000140232468     freetype253:autofit.obj
 0002:00001488       af_taml_script_class       0000000140232488     freetype253:autofit.obj
 0002:000014a8       af_telu_script_class       00000001402324a8     freetype253:autofit.obj
 0002:000014c8       af_tibt_script_class       00000001402324c8     freetype253:autofit.obj
 0002:000014e8       af_hani_script_class       00000001402324e8     freetype253:autofit.obj
 0002:00001510       af_script_classes          0000000140232510     freetype253:autofit.obj
 0002:000015b8       af_cyrl_c2cp_style_class   00000001402325b8     freetype253:autofit.obj
 0002:000015d0       af_cyrl_c2sc_style_class   00000001402325d0     freetype253:autofit.obj
 0002:000015e8       af_cyrl_ordn_style_class   00000001402325e8     freetype253:autofit.obj
 0002:00001600       af_cyrl_pcap_style_class   0000000140232600     freetype253:autofit.obj
 0002:00001618       af_cyrl_sinf_style_class   0000000140232618     freetype253:autofit.obj
 0002:00001630       af_cyrl_smcp_style_class   0000000140232630     freetype253:autofit.obj
 0002:00001648       af_cyrl_subs_style_class   0000000140232648     freetype253:autofit.obj
 0002:00001660       af_cyrl_sups_style_class   0000000140232660     freetype253:autofit.obj
 0002:00001678       af_cyrl_titl_style_class   0000000140232678     freetype253:autofit.obj
 0002:00001690       af_cyrl_dflt_style_class   0000000140232690     freetype253:autofit.obj
 0002:000016a8       af_grek_c2cp_style_class   00000001402326a8     freetype253:autofit.obj
 0002:000016c0       af_grek_c2sc_style_class   00000001402326c0     freetype253:autofit.obj
 0002:000016d8       af_grek_ordn_style_class   00000001402326d8     freetype253:autofit.obj
 0002:000016f0       af_grek_pcap_style_class   00000001402326f0     freetype253:autofit.obj
 0002:00001708       af_grek_sinf_style_class   0000000140232708     freetype253:autofit.obj
 0002:00001720       af_grek_smcp_style_class   0000000140232720     freetype253:autofit.obj
 0002:00001738       af_grek_subs_style_class   0000000140232738     freetype253:autofit.obj
 0002:00001750       af_grek_sups_style_class   0000000140232750     freetype253:autofit.obj
 0002:00001768       af_grek_titl_style_class   0000000140232768     freetype253:autofit.obj
 0002:00001780       af_grek_dflt_style_class   0000000140232780     freetype253:autofit.obj
 0002:00001798       af_hebr_dflt_style_class   0000000140232798     freetype253:autofit.obj
 0002:000017b0       af_latn_c2cp_style_class   00000001402327b0     freetype253:autofit.obj
 0002:000017c8       af_latn_c2sc_style_class   00000001402327c8     freetype253:autofit.obj
 0002:000017e0       af_latn_ordn_style_class   00000001402327e0     freetype253:autofit.obj
 0002:000017f8       af_latn_pcap_style_class   00000001402327f8     freetype253:autofit.obj
 0002:00001810       af_latn_sinf_style_class   0000000140232810     freetype253:autofit.obj
 0002:00001828       af_latn_smcp_style_class   0000000140232828     freetype253:autofit.obj
 0002:00001840       af_latn_subs_style_class   0000000140232840     freetype253:autofit.obj
 0002:00001858       af_latn_sups_style_class   0000000140232858     freetype253:autofit.obj
 0002:00001870       af_latn_titl_style_class   0000000140232870     freetype253:autofit.obj
 0002:00001888       af_latn_dflt_style_class   0000000140232888     freetype253:autofit.obj
 0002:000018a0       af_none_dflt_style_class   00000001402328a0     freetype253:autofit.obj
 0002:000018b8       af_beng_dflt_style_class   00000001402328b8     freetype253:autofit.obj
 0002:000018d0       af_deva_dflt_style_class   00000001402328d0     freetype253:autofit.obj
 0002:000018e8       af_gujr_dflt_style_class   00000001402328e8     freetype253:autofit.obj
 0002:00001900       af_guru_dflt_style_class   0000000140232900     freetype253:autofit.obj
 0002:00001918       af_knda_dflt_style_class   0000000140232918     freetype253:autofit.obj
 0002:00001930       af_limb_dflt_style_class   0000000140232930     freetype253:autofit.obj
 0002:00001948       af_mlym_dflt_style_class   0000000140232948     freetype253:autofit.obj
 0002:00001960       af_orya_dflt_style_class   0000000140232960     freetype253:autofit.obj
 0002:00001978       af_sinh_dflt_style_class   0000000140232978     freetype253:autofit.obj
 0002:00001990       af_sund_dflt_style_class   0000000140232990     freetype253:autofit.obj
 0002:000019a8       af_sylo_dflt_style_class   00000001402329a8     freetype253:autofit.obj
 0002:000019c0       af_taml_dflt_style_class   00000001402329c0     freetype253:autofit.obj
 0002:000019d8       af_telu_dflt_style_class   00000001402329d8     freetype253:autofit.obj
 0002:000019f0       af_tibt_dflt_style_class   00000001402329f0     freetype253:autofit.obj
 0002:00001a08       af_hani_dflt_style_class   0000000140232a08     freetype253:autofit.obj
 0002:00001a20       af_style_classes           0000000140232a20     freetype253:autofit.obj
 0002:00001ba0       af_cyrl_uniranges          0000000140232ba0     freetype253:autofit.obj
 0002:00001bc8       af_grek_uniranges          0000000140232bc8     freetype253:autofit.obj
 0002:00001be0       af_hebr_uniranges          0000000140232be0     freetype253:autofit.obj
 0002:00001c00       af_latn_uniranges          0000000140232c00     freetype253:autofit.obj
 0002:00001cb8       af_none_uniranges          0000000140232cb8     freetype253:autofit.obj
 0002:00001cc0       af_beng_uniranges          0000000140232cc0     freetype253:autofit.obj
 0002:00001cd0       af_deva_uniranges          0000000140232cd0     freetype253:autofit.obj
 0002:00001ce0       af_gujr_uniranges          0000000140232ce0     freetype253:autofit.obj
 0002:00001cf0       af_guru_uniranges          0000000140232cf0     freetype253:autofit.obj
 0002:00001d00       af_knda_uniranges          0000000140232d00     freetype253:autofit.obj
 0002:00001d10       af_limb_uniranges          0000000140232d10     freetype253:autofit.obj
 0002:00001d20       af_mlym_uniranges          0000000140232d20     freetype253:autofit.obj
 0002:00001d30       af_orya_uniranges          0000000140232d30     freetype253:autofit.obj
 0002:00001d40       af_sinh_uniranges          0000000140232d40     freetype253:autofit.obj
 0002:00001d50       af_sund_uniranges          0000000140232d50     freetype253:autofit.obj
 0002:00001d60       af_sylo_uniranges          0000000140232d60     freetype253:autofit.obj
 0002:00001d70       af_taml_uniranges          0000000140232d70     freetype253:autofit.obj
 0002:00001d80       af_telu_uniranges          0000000140232d80     freetype253:autofit.obj
 0002:00001d90       af_tibt_uniranges          0000000140232d90     freetype253:autofit.obj
 0002:00001da0       af_hani_uniranges          0000000140232da0     freetype253:autofit.obj
 0002:00001ea8       af_dummy_writing_system_class 0000000140232ea8     freetype253:autofit.obj
 0002:00001ee0       af_latin_writing_system_class 0000000140232ee0     freetype253:autofit.obj
 0002:00001f18       af_cjk_writing_system_class 0000000140232f18     freetype253:autofit.obj
 0002:00001f50       af_indic_writing_system_class 0000000140232f50     freetype253:autofit.obj
 0002:00001fb8       af_autofitter_interface    0000000140232fb8     freetype253:autofit.obj
 0002:00001fd8       ??_C@_0BA@OKOILHEH@fallback?9script@ 0000000140232fd8     freetype253:autofit.obj
 0002:00001fe8       ??_C@_0P@PHBNIPOP@default?9script@ 0000000140232fe8     freetype253:autofit.obj
 0002:00001ff8       ??_C@_0BC@OOHNGIJD@increase?9x?9height@ 0000000140232ff8     freetype253:autofit.obj
 0002:00002010       ??_C@_0BE@CELKBFDM@glyph?9to?9script?9map@ 0000000140233010     freetype253:autofit.obj
 0002:00002028       ??_C@_0L@MNEBCNMP@autofitter@ 0000000140233028     freetype253:autofit.obj
 0002:00002040       __xmm@00000000000000000001000000010000 0000000140233040     freetype253:autofit.obj
 0002:000020c0       tt_driver_class            00000001402330c0     freetype253:truetype.obj
 0002:00002170       tt_default_graphics_state  0000000140233170     freetype253:truetype.obj
 0002:000026b0       ??_C@_06ODJMJFLN@Weight@   00000001402336b0     freetype253:truetype.obj
 0002:000026b8       ??_C@_05IBAMDCFI@Width@    00000001402336b8     freetype253:truetype.obj
 0002:000026c0       ??_C@_0M@EDHPABCB@OpticalSize@ 00000001402336c0     freetype253:truetype.obj
 0002:000026cc       ??_C@_05BCGFHEPH@Slant@    00000001402336cc     freetype253:truetype.obj
 0002:000026d8       ??_C@_0BE@OJJAFABD@interpreter?9version@ 00000001402336d8     freetype253:truetype.obj
 0002:000026f0       ??_C@_0BB@PMIOOMFN@xf86?9driver?9name@ 00000001402336f0     freetype253:truetype.obj
 0002:00002708       ??_C@_08KJILHNAM@TrueType@ 0000000140233708     freetype253:truetype.obj
 0002:00002718       ??_C@_0O@DHADKGAK@multi?9masters@ 0000000140233718     freetype253:truetype.obj
 0002:00002728       ??_C@_07CDLHCBDE@tt?9glyf@ 0000000140233728     freetype253:truetype.obj
 0002:00002730       ??_C@_04JAPIGAPK@sfnt@     0000000140233730     freetype253:truetype.obj
 0002:00002738       ??_C@_07JBKHDJHE@?4notdef@ 0000000140233738     freetype253:truetype.obj
 0002:00002740       ??_C@_0P@EMKCEFJO@?$CF?$CBPS?9AdobeFont@ 0000000140233740     freetype253:type1.obj
 0002:00002750       ??_C@_0L@LLIKMEDC@?$CF?$CBFontType@ 0000000140233750     freetype253:type1.obj
 0002:0000275c       ??_C@_05OJJBIBFE@eexec@    000000014023375c     freetype253:type1.obj
 0002:00002768       ??_C@_0BB@MLEHKAJM@StandardEncoding@ 0000000140233768     freetype253:type1.obj
 0002:00002780       ??_C@_0P@LHOFAKJ@ExpertEncoding@ 0000000140233780     freetype253:type1.obj
 0002:00002790       ??_C@_0BC@OHHLKLPP@ISOLatin1Encoding@ 0000000140233790     freetype253:type1.obj
 0002:000027a4       ??_C@_03BHPKJDPK@dup@      00000001402337a4     freetype253:type1.obj
 0002:000027a8       ??_C@_03KMONJGDG@put@      00000001402337a8     freetype253:type1.obj
 0002:00003080       t1_driver_class            0000000140234080     freetype253:type1.obj
 0002:00003210       ??_C@_07CPCPJPKL@version@  0000000140234210     freetype253:type1.obj
 0002:00003218       ??_C@_06JHGCIHDH@Notice@   0000000140234218     freetype253:type1.obj
 0002:00003220       ??_C@_08FPDCFGEH@FullName@ 0000000140234220     freetype253:type1.obj
 0002:00003230       ??_C@_0L@KKMPOENF@FamilyName@ 0000000140234230     freetype253:type1.obj
 0002:00003240       ??_C@_0M@ILCDBHGP@ItalicAngle@ 0000000140234240     freetype253:type1.obj
 0002:00003250       ??_C@_0N@OPLNPOL@isFixedPitch@ 0000000140234250     freetype253:type1.obj
 0002:00003260       ??_C@_0BC@CCIMILPE@UnderlinePosition@ 0000000140234260     freetype253:type1.obj
 0002:00003278       ??_C@_0BD@KBICJDLM@UnderlineThickness@ 0000000140234278     freetype253:type1.obj
 0002:0000328c       ??_C@_06FIINGLDE@FSType@   000000014023428c     freetype253:type1.obj
 0002:00003298       ??_C@_08OMJGNOHD@UniqueID@ 0000000140234298     freetype253:type1.obj
 0002:000032a4       ??_C@_05CIIKKFON@lenIV@    00000001402342a4     freetype253:type1.obj
 0002:000032b0       ??_C@_0O@PJDGHDCK@LanguageGroup@ 00000001402342b0     freetype253:type1.obj
 0002:000032c0       ??_C@_08NLHBPEGP@password@ 00000001402342c0     freetype253:type1.obj
 0002:000032d0       ??_C@_09IPAGIEBG@BlueScale@ 00000001402342d0     freetype253:type1.obj
 0002:000032e0       ??_C@_09GDCMDLCO@BlueShift@ 00000001402342e0     freetype253:type1.obj
 0002:000032f0       ??_C@_08IPFLJFPM@BlueFuzz@ 00000001402342f0     freetype253:type1.obj
 0002:00003300       ??_C@_0L@DKDIMLOI@BlueValues@ 0000000140234300     freetype253:type1.obj
 0002:00003310       ??_C@_0L@CCJAIIMC@OtherBlues@ 0000000140234310     freetype253:type1.obj
 0002:00003320       ??_C@_0M@OIPOLIDA@FamilyBlues@ 0000000140234320     freetype253:type1.obj
 0002:00003330       ??_C@_0BB@FMLCJJDP@FamilyOtherBlues@ 0000000140234330     freetype253:type1.obj
 0002:00003344       ??_C@_05PHECBFLF@StdHW@    0000000140234344     freetype253:type1.obj
 0002:0000334c       ??_C@_05OBPKJLMP@StdVW@    000000014023434c     freetype253:type1.obj
 0002:00003358       ??_C@_0L@NKGPCONN@MinFeature@ 0000000140234358     freetype253:type1.obj
 0002:00003368       ??_C@_09NCKADFKP@StemSnapH@ 0000000140234368     freetype253:type1.obj
 0002:00003378       ??_C@_09GOBAKHA@StemSnapV@ 0000000140234378     freetype253:type1.obj
 0002:00003388       ??_C@_0BA@PKGIFANC@ExpansionFactor@ 0000000140234388     freetype253:type1.obj
 0002:00003398       ??_C@_09BDDIAPM@ForceBold@ 0000000140234398     freetype253:type1.obj
 0002:000033a8       ??_C@_08MKFDOKHL@FontName@ 00000001402343a8     freetype253:type1.obj
 0002:000033b8       ??_C@_09PNDIDGHG@PaintType@ 00000001402343b8     freetype253:type1.obj
 0002:000033c8       ??_C@_08GBFACKAL@FontType@ 00000001402343c8     freetype253:type1.obj
 0002:000033d8       ??_C@_0M@GLGMDIGG@StrokeWidth@ 00000001402343d8     freetype253:type1.obj
 0002:000033e8       ??_C@_08EBMMLPNI@FontBBox@ 00000001402343e8     freetype253:type1.obj
 0002:000033f4       ??_C@_03DOACNACD@NDV@      00000001402343f4     freetype253:type1.obj
 0002:000033f8       ??_C@_03MMGIAIPO@CDV@      00000001402343f8     freetype253:type1.obj
 0002:00003400       ??_C@_0N@PGGOPDKP@DesignVector@ 0000000140234400     freetype253:type1.obj
 0002:00003410       ??_C@_0L@LNCCOCBB@FontMatrix@ 0000000140234410     freetype253:type1.obj
 0002:00003420       ??_C@_08EJAHIGCJ@Encoding@ 0000000140234420     freetype253:type1.obj
 0002:0000342c       ??_C@_05DHFNOCDJ@Subrs@    000000014023442c     freetype253:type1.obj
 0002:00003438       ??_C@_0M@EKIFGBLL@CharStrings@ 0000000140234438     freetype253:type1.obj
 0002:00003448       ??_C@_07CFINJGKH@Private@  0000000140234448     freetype253:type1.obj
 0002:00003450       ??_C@_0BF@BEKHBPMN@BlendDesignPositions@ 0000000140234450     freetype253:type1.obj
 0002:00003468       ??_C@_0P@FPDIEJKK@BlendDesignMap@ 0000000140234468     freetype253:type1.obj
 0002:00003478       ??_C@_0P@LEAACMFJ@BlendAxisTypes@ 0000000140234478     freetype253:type1.obj
 0002:00003488       ??_C@_0N@JPPBHHHF@WeightVector@ 0000000140234488     freetype253:type1.obj
 0002:00003498       ??_C@_0P@KEOGGALI@BuildCharArray@ 0000000140234498     freetype253:type1.obj
 0002:000034a8       ??_C@_09BJJLCLMA@closefile@ 00000001402344a8     freetype253:type1.obj
 0002:000034b8       ??_C@_0O@CJLBGMNG@FontDirectory@ 00000001402344b8     freetype253:type1.obj
 0002:000034c8       ??_C@_08MNGCAOLP@pshinter@ 00000001402344c8     freetype253:type1.obj
 0002:000034d8       ??_C@_0BB@JIMLNENF@postscript?9cmaps@ 00000001402344d8     freetype253:type1.obj
 0002:000034ec       ??_C@_05MNCLAAKB@psaux@    00000001402344ec     freetype253:type1.obj
 0002:000034f8       ??_C@_07FFHPBFOK@Regular@  00000001402344f8     freetype253:type1.obj
 0002:00003500       ??_C@_04DIPHHIHJ@Bold@     0000000140234500     freetype253:type1.obj
 0002:00003508       ??_C@_05BPGNDIAE@Black@    0000000140234508     freetype253:type1.obj
 0002:00003510       ??_C@_06JCBOBHIA@Type?51@  0000000140234510     freetype253:type1.obj
 0002:00003518       ??_C@_0BA@EAOIOGJA@postscript?9info@ 0000000140234518     freetype253:type1.obj
 0002:00003570       cff_cmap_encoding_class_rec 0000000140234570     freetype253:cff.obj
 0002:000035c0       cff_cmap_unicode_class_rec 00000001402345c0     freetype253:cff.obj
 0002:00003610       cff_driver_class           0000000140234610     freetype253:cff.obj
 0002:00004648       ??_C@_0BF@GIDENNON@darkening?9parameters@ 0000000140235648     freetype253:cff.obj
 0002:00004660       ??_C@_0P@DGAAAJJA@hinting?9engine@ 0000000140235660     freetype253:cff.obj
 0002:00004670       ??_C@_0BC@GFOLLGHN@no?9stem?9darkening@ 0000000140235670     freetype253:cff.obj
 0002:00004684       ??_C@_03IFCOMOMB@CFF@      0000000140235684     freetype253:cff.obj
 0002:00004688       ??_C@_03LMEEOLHO@CID@      0000000140235688     freetype253:cff.obj
 0002:00004690       ??_C@_0CA@JGHPJJJF@?$CF?$CBPS?9Adobe?93?40?5Resource?9CIDFont@ 0000000140235690     freetype253:type1cid.obj
 0002:000046b0       ??_C@_09BFOLOCGO@StartData@ 00000001402356b0     freetype253:type1cid.obj
 0002:000046bc       ??_C@_06EMLBPOPP@?1sfnts@  00000001402356bc     freetype253:type1cid.obj
 0002:000046c4       ??_C@_05NPBNGLLN@?$CIHex?$CJ@ 00000001402356c4     freetype253:type1cid.obj
 0002:00005060       t1cid_driver_class         0000000140236060     freetype253:type1cid.obj
 0002:000051a0       ??_C@_0M@CKCGNNAK@CIDFontName@ 00000001402361a0     freetype253:type1cid.obj
 0002:000051b0       ??_C@_0P@FDOGBFAP@CIDFontVersion@ 00000001402361b0     freetype253:type1cid.obj
 0002:000051c0       ??_C@_0M@IBCFBNHK@CIDFontType@ 00000001402361c0     freetype253:type1cid.obj
 0002:000051d0       ??_C@_08EPBENDNC@Registry@ 00000001402361d0     freetype253:type1cid.obj
 0002:000051e0       ??_C@_08HMKBFHBJ@Ordering@ 00000001402361e0     freetype253:type1cid.obj
 0002:000051f0       ??_C@_0L@EJNILPMC@Supplement@ 00000001402361f0     freetype253:type1cid.obj
 0002:00005200       ??_C@_07CNNFHHEA@UIDBase@  0000000140236200     freetype253:type1cid.obj
 0002:00005208       ??_C@_0N@LBMCPKAC@CIDMapOffset@ 0000000140236208     freetype253:type1cid.obj
 0002:00005218       ??_C@_07NNGKIHHK@FDBytes@  0000000140236218     freetype253:type1cid.obj
 0002:00005220       ??_C@_07BBMAIHOE@GDBytes@  0000000140236220     freetype253:type1cid.obj
 0002:00005228       ??_C@_08LPCKMOBH@CIDCount@ 0000000140236228     freetype253:type1cid.obj
 0002:00005238       ??_C@_0O@DKIHOHFK@SubrMapOffset@ 0000000140236238     freetype253:type1cid.obj
 0002:00005248       ??_C@_07OJDBLIDF@SDBytes@  0000000140236248     freetype253:type1cid.obj
 0002:00005250       ??_C@_09NKAONILE@SubrCount@ 0000000140236250     freetype253:type1cid.obj
 0002:00005260       ??_C@_0BC@HBJENNOG@lenBuildCharArray@ 0000000140236260     freetype253:type1cid.obj
 0002:00005278       ??_C@_0BD@BGHMBBEO@ForceBoldThreshold@ 0000000140236278     freetype253:type1cid.obj
 0002:00005290       ??_C@_07PEKDNLEP@FDArray@  0000000140236290     freetype253:type1cid.obj
 0002:00005298       ??_C@_0BC@JBBEDJNJ@?$CFADOBeginFontDict@ 0000000140236298     freetype253:type1cid.obj
 0002:000052b0       ??_C@_0L@DDPIBKML@CID?5Type?51@ 00000001402362b0     freetype253:type1cid.obj
 0002:000052bc       ??_C@_05CNMLIGFM@t1cid@    00000001402362bc     freetype253:type1cid.obj
 0002:000053a0       pfr_cmap_class_rec         00000001402363a0     freetype253:pfr.obj
 0002:000053f0       pfr_driver_class           00000001402363f0     freetype253:pfr.obj
 0002:00005498       pfr_metrics_service_rec    0000000140236498     freetype253:pfr.obj
 0002:000054e0       ??_C@_0M@BAGPBJNL@pfr?9metrics@ 00000001402364e0     freetype253:pfr.obj
 0002:000054ec       ??_C@_03OJCMOBOF@PFR@      00000001402364ec     freetype253:pfr.obj
 0002:000054f0       ??_C@_03OENHCMJJ@pfr@      00000001402364f0     freetype253:pfr.obj
 0002:000058c0       t42_driver_class           00000001402368c0     freetype253:type42.obj
 0002:00005a00       ??_C@_05FJOKMJFH@sfnts@    0000000140236a00     freetype253:type42.obj
 0002:00005a08       ??_C@_05MDIJLHEA@known@    0000000140236a08     freetype253:type42.obj
 0002:00005a10       ??_C@_07GJBALKN@Type?542@  0000000140236a10     freetype253:type42.obj
 0002:00005a20       winfnt_driver_class        0000000140236a20     freetype253:winfnt.obj
 0002:00005cc0       ??_C@_0M@DFCIIFPB@Bold?5Italic@ 0000000140236cc0     freetype253:winfnt.obj
 0002:00005ccc       ??_C@_06PPMHIBHB@Italic@   0000000140236ccc     freetype253:winfnt.obj
 0002:00005cd8       ??_C@_0M@FPCOPFGH@Windows?5FNT@ 0000000140236cd8     freetype253:winfnt.obj
 0002:00005ce8       ??_C@_08NAMFKPDH@winfonts@ 0000000140236ce8     freetype253:winfnt.obj
 0002:00005e30       pcf_driver_class           0000000140236e30     freetype253:pcf.obj
 0002:00005ee0       pcf_cmap_class             0000000140236ee0     freetype253:pcf.obj
 0002:00005f70       ??_C@_05NOFPJGIP@SLANT@    0000000140236f70     freetype253:pcf.obj
 0002:00005f78       ??_C@_07EGOIFKG@Oblique@   0000000140236f78     freetype253:pcf.obj
 0002:00005f80       ??_C@_0M@FCJHKPGH@WEIGHT_NAME@ 0000000140236f80     freetype253:pcf.obj
 0002:00005f90       ??_C@_0O@DANCJNNA@SETWIDTH_NAME@ 0000000140236f90     freetype253:pcf.obj
 0002:00005fa0       ??_C@_0P@BLEODLOA@ADD_STYLE_NAME@ 0000000140236fa0     freetype253:pcf.obj
 0002:00005fb0       ??_C@_0M@FBEHGJKE@FAMILY_NAME@ 0000000140236fb0     freetype253:pcf.obj
 0002:00005fc0       ??_C@_0O@KPOPAFON@AVERAGE_WIDTH@ 0000000140236fc0     freetype253:pcf.obj
 0002:00005fd0       ??_C@_0L@JCJJGPJF@POINT_SIZE@ 0000000140236fd0     freetype253:pcf.obj
 0002:00005fe0       ??_C@_0L@CNGHIHBP@PIXEL_SIZE@ 0000000140236fe0     freetype253:pcf.obj
 0002:00005ff0       ??_C@_0N@NBDHNJFJ@RESOLUTION_X@ 0000000140236ff0     freetype253:pcf.obj
 0002:00006000       ??_C@_0N@MICMOIBI@RESOLUTION_Y@ 0000000140237000     freetype253:pcf.obj
 0002:00006010       ??_C@_0BB@OHIDJKBJ@CHARSET_REGISTRY@ 0000000140237010     freetype253:pcf.obj
 0002:00006028       ??_C@_0BB@OBJAMPOC@CHARSET_ENCODING@ 0000000140237028     freetype253:pcf.obj
 0002:0000603c       ??_C@_05FPAEEJJG@10646@    000000014023703c     freetype253:pcf.obj
 0002:00006044       ??_C@_04LBDHIBCK@8859@     0000000140237044     freetype253:pcf.obj
 0002:0000604c       ??_C@_03DDONLALG@bdf@      000000014023704c     freetype253:pcf.obj
 0002:00006050       ??_C@_03MBEJPEFL@PCF@      0000000140237050     freetype253:pcf.obj
 0002:00006054       ??_C@_03MMLCDJCH@pcf@      0000000140237054     freetype253:pcf.obj
 0002:00006060       ps_table_funcs             0000000140237060     freetype253:psaux.obj
 0002:00006080       ps_parser_funcs            0000000140237080     freetype253:psaux.obj
 0002:000060f0       t1_builder_funcs           00000001402370f0     freetype253:psaux.obj
 0002:00006130       t1_decoder_funcs           0000000140237130     freetype253:psaux.obj
 0002:00006150       t1_cmap_standard_class_rec 0000000140237150     freetype253:psaux.obj
 0002:000061a0       t1_cmap_expert_class_rec   00000001402371a0     freetype253:psaux.obj
 0002:000061f0       t1_cmap_custom_class_rec   00000001402371f0     freetype253:psaux.obj
 0002:00006240       t1_cmap_unicode_class_rec  0000000140237240     freetype253:psaux.obj
 0002:00006290       afm_parser_funcs           0000000140237290     freetype253:psaux.obj
 0002:000062a8       t1_cmap_classes            00000001402372a8     freetype253:psaux.obj
 0002:00006300       psaux_module_class         0000000140237300     freetype253:psaux.obj
 0002:00006680       ??_C@_08NBPEBJDA@Ascender@ 0000000140237680     freetype253:psaux.obj
 0002:00006690       ??_C@_09POOBGNPO@AxisLabel@ 0000000140237690     freetype253:psaux.obj
 0002:000066a0       ??_C@_08KLONHBMG@AxisType@ 00000001402376a0     freetype253:psaux.obj
 0002:000066ac       ??_C@_01HMGJMAIH@B@        00000001402376ac     freetype253:psaux.obj
 0002:000066b0       ??_C@_01GFHCPBMG@C@        00000001402376b0     freetype253:psaux.obj
 0002:000066b4       ??_C@_02KJDGAJLC@CC@       00000001402376b4     freetype253:psaux.obj
 0002:000066b8       ??_C@_02EKMCNAHJ@CH@       00000001402376b8     freetype253:psaux.obj
 0002:000066c0       ??_C@_09JOCJHGEG@CapHeight@ 00000001402376c0     freetype253:psaux.obj
 0002:000066d0       ??_C@_09CGMEAFLF@CharWidth@ 00000001402376d0     freetype253:psaux.obj
 0002:000066e0       ??_C@_0N@LHPDLMAH@CharacterSet@ 00000001402376e0     freetype253:psaux.obj
 0002:000066f0       ??_C@_0L@EMODJLOD@Characters@ 00000001402376f0     freetype253:psaux.obj
 0002:00006700       ??_C@_09JMDLBBJN@Descender@ 0000000140237700     freetype253:psaux.obj
 0002:00006710       ??_C@_0P@JNPLONMI@EncodingScheme@ 0000000140237710     freetype253:psaux.obj
 0002:00006720       ??_C@_07DLEALFPL@EndAxis@  0000000140237720     freetype253:psaux.obj
 0002:00006728       ??_C@_0P@GFNMGKCM@EndCharMetrics@ 0000000140237728     freetype253:psaux.obj
 0002:00006738       ??_C@_0O@JABMALCH@EndComposites@ 0000000140237738     freetype253:psaux.obj
 0002:00006748       ??_C@_0N@FNMEONKF@EndDirection@ 0000000140237748     freetype253:psaux.obj
 0002:00006758       ??_C@_0P@FGFFCKLI@EndFontMetrics@ 0000000140237758     freetype253:psaux.obj
 0002:00006768       ??_C@_0M@HKHGIIOM@EndKernData@ 0000000140237768     freetype253:psaux.obj
 0002:00006778       ??_C@_0N@IJIACAAI@EndKernPairs@ 0000000140237778     freetype253:psaux.obj
 0002:00006788       ??_C@_0N@FEBBJBLC@EndTrackKern@ 0000000140237788     freetype253:psaux.obj
 0002:00006798       ??_C@_07BNJNBMEL@EscChar@  0000000140237798     freetype253:psaux.obj
 0002:000067a0       ??_C@_0L@PAHDJIHN@IsBaseFont@ 00000001402377a0     freetype253:psaux.obj
 0002:000067b0       ??_C@_09OIFAOJEJ@IsCIDFont@ 00000001402377b0     freetype253:psaux.obj
 0002:000067c0       ??_C@_0N@LNIFJEBO@IsFixedPitch@ 00000001402377c0     freetype253:psaux.obj
 0002:000067d0       ??_C@_08CHFNODLO@IsFixedV@ 00000001402377d0     freetype253:psaux.obj
 0002:000067dc       ??_C@_02MGMKBJJI@KP@       00000001402377dc     freetype253:psaux.obj
 0002:000067e0       ??_C@_03MGLCBEGC@KPH@      00000001402377e0     freetype253:psaux.obj
 0002:000067e4       ??_C@_03IMHAAGDD@KPX@      00000001402377e4     freetype253:psaux.obj
 0002:000067e8       ??_C@_03JFGLDHHC@KPY@      00000001402377e8     freetype253:psaux.obj
 0002:000067ec       ??_C@_01OCOKONAJ@L@        00000001402377ec     freetype253:psaux.obj
 0002:000067f0       ??_C@_0O@NDBFHPJC@MappingScheme@ 00000001402377f0     freetype253:psaux.obj
 0002:00006800       ??_C@_0M@PGHPLBFB@MetricsSets@ 0000000140237800     freetype253:psaux.obj
 0002:0000680c       ??_C@_01NANMIPIL@N@        000000014023780c     freetype253:psaux.obj
 0002:00006810       ??_C@_03LMDOAABO@PCC@      0000000140237810     freetype253:psaux.obj
 0002:00006818       ??_C@_09JMBADFPL@StartAxis@ 0000000140237818     freetype253:psaux.obj
 0002:00006828       ??_C@_0BB@JDMDJAID@StartCharMetrics@ 0000000140237828     freetype253:psaux.obj
 0002:00006840       ??_C@_0BA@DGMAPPPC@StartComposites@ 0000000140237840     freetype253:psaux.obj
 0002:00006850       ??_C@_0P@DNGHFPAA@StartDirection@ 0000000140237850     freetype253:psaux.obj
 0002:00006860       ??_C@_0BB@KAEKNABH@StartFontMetrics@ 0000000140237860     freetype253:psaux.obj
 0002:00006878       ??_C@_0O@GJEKPIHD@StartKernData@ 0000000140237878     freetype253:psaux.obj
 0002:00006888       ??_C@_0P@OJCDJCKN@StartKernPairs@ 0000000140237888     freetype253:psaux.obj
 0002:00006898       ??_C@_0BA@HHMIMKDE@StartKernPairs0@ 0000000140237898     freetype253:psaux.obj
 0002:000068a8       ??_C@_0BA@GONDPLHF@StartKernPairs1@ 00000001402378a8     freetype253:psaux.obj
 0002:000068b8       ??_C@_0P@DELCCDBH@StartTrackKern@ 00000001402378b8     freetype253:psaux.obj
 0002:000068c8       ??_C@_09DJCDMHFC@TrackKern@ 00000001402378c8     freetype253:psaux.obj
 0002:000068d4       ??_C@_02IEGOIODN@VV@       00000001402378d4     freetype253:psaux.obj
 0002:000068d8       ??_C@_07HFOFDFIM@VVector@  00000001402378d8     freetype253:psaux.obj
 0002:000068e0       ??_C@_07NGFJPNPN@Version@  00000001402378e0     freetype253:psaux.obj
 0002:000068e8       ??_C@_01ELNMCGJD@W@        00000001402378e8     freetype253:psaux.obj
 0002:000068ec       ??_C@_02LGALCICL@W0@       00000001402378ec     freetype253:psaux.obj
 0002:000068f0       ??_C@_03NOGICFDE@W0X@      00000001402378f0     freetype253:psaux.obj
 0002:000068f4       ??_C@_03MHHDBEHF@W0Y@      00000001402378f4     freetype253:psaux.obj
 0002:000068f8       ??_C@_02KPBABJGK@W1@       00000001402378f8     freetype253:psaux.obj
 0002:000068fc       ??_C@_03NPKKEPAD@W1X@      00000001402378fc     freetype253:psaux.obj
 0002:00006900       ??_C@_03MGLBHOEC@W1Y@      0000000140237900     freetype253:psaux.obj
 0002:00006904       ??_C@_02BLCPMJIE@WX@       0000000140237904     freetype253:psaux.obj
 0002:00006908       ??_C@_02CDEPIMF@WY@        0000000140237908     freetype253:psaux.obj
 0002:00006910       ??_C@_07MIHJBPO@XHeight@   0000000140237910     freetype253:psaux.obj
 0002:00006920       psnames_module_class       0000000140237920     freetype253:psmodule.obj
 0002:00015cc0       ??_C@_07POODEHEH@psnames@  0000000140246cc0     freetype253:psmodule.obj
 0002:00015ce0       pshinter_module_class      0000000140246ce0     freetype253:pshinter.obj
 0002:00015d20       ft_standard_raster         0000000140246d20     freetype253:raster.obj
 0002:00015d50       ft_raster1_renderer_class  0000000140246d50     freetype253:raster.obj
 0002:00015dc0       ft_raster5_renderer_class  0000000140246dc0     freetype253:raster.obj
 0002:00015e28       ??_C@_07EFFNHEPH@raster1@  0000000140246e28     freetype253:raster.obj
 0002:00015e30       ??_C@_07CBDBLBPD@raster5@  0000000140246e30     freetype253:raster.obj
 0002:00015e40       tt_cmap13_class_rec        0000000140246e40     freetype253:sfnt.obj
 0002:00015eb0       tt_cmap14_class_rec        0000000140246eb0     freetype253:sfnt.obj
 0002:00016048       sfnt_module_class          0000000140247048     freetype253:sfnt.obj
 0002:000164e0       tt_cmap0_class_rec         00000001402474e0     freetype253:sfnt.obj
 0002:00016550       tt_cmap2_class_rec         0000000140247550     freetype253:sfnt.obj
 0002:000165c0       tt_cmap4_class_rec         00000001402475c0     freetype253:sfnt.obj
 0002:00016630       tt_cmap6_class_rec         0000000140247630     freetype253:sfnt.obj
 0002:000166a0       tt_cmap8_class_rec         00000001402476a0     freetype253:sfnt.obj
 0002:00016710       tt_cmap10_class_rec        0000000140247710     freetype253:sfnt.obj
 0002:00016780       tt_cmap12_class_rec        0000000140247780     freetype253:sfnt.obj
 0002:000167f0       ft_grays_raster            00000001402477f0     freetype253:smooth.obj
 0002:00016850       ft_smooth_renderer_class   0000000140247850     freetype253:smooth.obj
 0002:000168c0       ft_smooth_lcd_renderer_class 00000001402478c0     freetype253:smooth.obj
 0002:00016930       ft_smooth_lcdv_renderer_class 0000000140247930     freetype253:smooth.obj
 0002:00016998       ??_C@_06INICNAFJ@smooth@   0000000140247998     freetype253:smooth.obj
 0002:000169a0       ??_C@_0L@KCJBAIJI@smooth?9lcd@ 00000001402479a0     freetype253:smooth.obj
 0002:000169b0       ??_C@_0M@IHBDFEAO@smooth?9lcdv@ 00000001402479b0     freetype253:smooth.obj
 0002:00017290       bdf_driver_class           0000000140248290     freetype253:bdf.obj
 0002:00017340       bdf_cmap_class             0000000140248340     freetype253:bdf.obj
 0002:000173d0       ??_C@_0BC@DEIBICAG@AVG_CAPITAL_WIDTH@ 00000001402483d0     freetype253:bdf.obj
 0002:000173e8       ??_C@_0BE@FDPIDJIH@AVG_LOWERCASE_WIDTH@ 00000001402483e8     freetype253:bdf.obj
 0002:00017400       ??_C@_0L@IPPBEDCK@CAP_HEIGHT@ 0000000140248400     freetype253:bdf.obj
 0002:00017410       ??_C@_0BE@KNHMGHPI@CHARSET_COLLECTIONS@ 0000000140248410     freetype253:bdf.obj
 0002:00017428       ??_C@_07JEDAPFNH@COMMENT@  0000000140248428     freetype253:bdf.obj
 0002:00017430       ??_C@_09DJIAAPDG@COPYRIGHT@ 0000000140248430     freetype253:bdf.obj
 0002:00017440       ??_C@_0N@LOGJBDOF@DEFAULT_CHAR@ 0000000140248440     freetype253:bdf.obj
 0002:00017450       ??_C@_0M@LFJMPFGC@DESTINATION@ 0000000140248450     freetype253:bdf.obj
 0002:00017460       ??_C@_0BB@PJMJCLEI@DEVICE_FONT_NAME@ 0000000140248460     freetype253:bdf.obj
 0002:00017478       ??_C@_09GEIPNEKC@END_SPACE@ 0000000140248478     freetype253:bdf.obj
 0002:00017488       ??_C@_09DLOGKOHL@FACE_NAME@ 0000000140248488     freetype253:bdf.obj
 0002:00017498       ??_C@_0N@LCIIJFB@FIGURE_WIDTH@ 0000000140248498     freetype253:bdf.obj
 0002:000174a8       ??_C@_04IJMKNFPK@FONT@     00000001402484a8     freetype253:bdf.obj
 0002:000174b0       ??_C@_0BC@LNICJLFI@FONTNAME_REGISTRY@ 00000001402484b0     freetype253:bdf.obj
 0002:000174c8       ??_C@_0M@ECCDLGDC@FONT_ASCENT@ 00000001402484c8     freetype253:bdf.obj
 0002:000174d8       ??_C@_0N@BAIKBLGK@FONT_DESCENT@ 00000001402484d8     freetype253:bdf.obj
 0002:000174e8       ??_C@_07GMNLECKJ@FOUNDRY@  00000001402484e8     freetype253:bdf.obj
 0002:000174f0       ??_C@_09IGHCOKHJ@FULL_NAME@ 00000001402484f0     freetype253:bdf.obj
 0002:00017500       ??_C@_0N@LHJKBLMB@ITALIC_ANGLE@ 0000000140248500     freetype253:bdf.obj
 0002:00017510       ??_C@_09IDPFHPOD@MAX_SPACE@ 0000000140248510     freetype253:bdf.obj
 0002:00017520       ??_C@_09ICPJOFFH@MIN_SPACE@ 0000000140248520     freetype253:bdf.obj
 0002:00017530       ??_C@_0L@CKCFAFFG@NORM_SPACE@ 0000000140248530     freetype253:bdf.obj
 0002:0001753c       ??_C@_06FMPEGAHJ@NOTICE@   000000014024853c     freetype253:bdf.obj
 0002:00017548       ??_C@_0L@MANNMNIK@QUAD_WIDTH@ 0000000140248548     freetype253:bdf.obj
 0002:00017558       ??_C@_0L@CAMLDNCF@RAW_ASCENT@ 0000000140248558     freetype253:bdf.obj
 0002:00017568       ??_C@_0BC@LNOEENJF@RAW_AVERAGE_WIDTH@ 0000000140248568     freetype253:bdf.obj
 0002:00017580       ??_C@_0BG@PEMOHOIO@RAW_AVG_CAPITAL_WIDTH@ 0000000140248580     freetype253:bdf.obj
 0002:00017598       ??_C@_0BI@BEKJFFLM@RAW_AVG_LOWERCASE_WIDTH@ 0000000140248598     freetype253:bdf.obj
 0002:000175b0       ??_C@_0P@PDBKEGFB@RAW_CAP_HEIGHT@ 00000001402485b0     freetype253:bdf.obj
 0002:000175c0       ??_C@_0M@JDDLHGCG@RAW_DESCENT@ 00000001402485c0     freetype253:bdf.obj
 0002:000175d0       ??_C@_0O@FDGFBIGM@RAW_END_SPACE@ 00000001402485d0     freetype253:bdf.obj
 0002:000175e0       ??_C@_0BB@LHIJKBAI@RAW_FIGURE_WIDTH@ 00000001402485e0     freetype253:bdf.obj
 0002:000175f8       ??_C@_0O@LEBPLDCN@RAW_MAX_SPACE@ 00000001402485f8     freetype253:bdf.obj
 0002:00017608       ??_C@_0O@LFBDCJJJ@RAW_MIN_SPACE@ 0000000140248608     freetype253:bdf.obj
 0002:00017618       ??_C@_0P@FGMOAACN@RAW_NORM_SPACE@ 0000000140248618     freetype253:bdf.obj
 0002:00017628       ??_C@_0P@FBIMICGE@RAW_PIXEL_SIZE@ 0000000140248628     freetype253:bdf.obj
 0002:00017638       ??_C@_0P@OOHCGKOO@RAW_POINT_SIZE@ 0000000140248638     freetype253:bdf.obj
 0002:00017648       ??_C@_0O@HNFKKCGD@RAW_PIXELSIZE@ 0000000140248648     freetype253:bdf.obj
 0002:00017658       ??_C@_0O@FDNDDOFA@RAW_POINTSIZE@ 0000000140248658     freetype253:bdf.obj
 0002:00017668       ??_C@_0P@LMDGMIPB@RAW_QUAD_WIDTH@ 0000000140248668     freetype253:bdf.obj
 0002:00017678       ??_C@_0BD@HHNHPPKD@RAW_SMALL_CAP_SIZE@ 0000000140248678     freetype253:bdf.obj
 0002:00017690       ??_C@_0BF@DLAIFMIE@RAW_STRIKEOUT_ASCENT@ 0000000140248690     freetype253:bdf.obj
 0002:000176a8       ??_C@_0BG@DCPBCGDJ@RAW_STRIKEOUT_DESCENT@ 00000001402486a8     freetype253:bdf.obj
 0002:000176c0       ??_C@_0BD@FGAMCDPE@RAW_SUBSCRIPT_SIZE@ 00000001402486c0     freetype253:bdf.obj
 0002:000176d8       ??_C@_0BA@ICOMKGEO@RAW_SUBSCRIPT_X@ 00000001402486d8     freetype253:bdf.obj
 0002:000176e8       ??_C@_0BA@JLPHJHAP@RAW_SUBSCRIPT_Y@ 00000001402486e8     freetype253:bdf.obj
 0002:000176f8       ??_C@_0BF@ILCJEECH@RAW_SUPERSCRIPT_SIZE@ 00000001402486f8     freetype253:bdf.obj
 0002:00017710       ??_C@_0BC@EMCLOPNI@RAW_SUPERSCRIPT_X@ 0000000140248710     freetype253:bdf.obj
 0002:00017728       ??_C@_0BC@FFDANOJJ@RAW_SUPERSCRIPT_Y@ 0000000140248728     freetype253:bdf.obj
 0002:00017740       ??_C@_0BH@LIHCGIBB@RAW_UNDERLINE_POSITION@ 0000000140248740     freetype253:bdf.obj
 0002:00017758       ??_C@_0BI@OEPMFPAK@RAW_UNDERLINE_THICKNESS@ 0000000140248758     freetype253:bdf.obj
 0002:00017770       ??_C@_0N@LFICGJOL@RAW_X_HEIGHT@ 0000000140248770     freetype253:bdf.obj
 0002:00017780       ??_C@_0BC@JMGAMBDF@RELATIVE_SETWIDTH@ 0000000140248780     freetype253:bdf.obj
 0002:00017798       ??_C@_0BA@NKHOPHOP@RELATIVE_WEIGHT@ 0000000140248798     freetype253:bdf.obj
 0002:000177a8       ??_C@_0L@JGAABLGD@RESOLUTION@ 00000001402487a8     freetype253:bdf.obj
 0002:000177b8       ??_C@_0P@CJBLANOF@SMALL_CAP_SIZE@ 00000001402487b8     freetype253:bdf.obj
 0002:000177c8       ??_C@_07JKNGKIOL@SPACING@  00000001402487c8     freetype253:bdf.obj
 0002:000177d0       ??_C@_0BB@MOJIHJPL@STRIKEOUT_ASCENT@ 00000001402487d0     freetype253:bdf.obj
 0002:000177e8       ??_C@_0BC@PCLONKLB@STRIKEOUT_DESCENT@ 00000001402487e8     freetype253:bdf.obj
 0002:00017800       ??_C@_0P@IMANBLC@SUBSCRIPT_SIZE@ 0000000140248800     freetype253:bdf.obj
 0002:00017810       ??_C@_0M@EFEHOFPP@SUBSCRIPT_X@ 0000000140248810     freetype253:bdf.obj
 0002:00017820       ??_C@_0M@FMFMNELO@SUBSCRIPT_Y@ 0000000140248820     freetype253:bdf.obj
 0002:00017830       ??_C@_0BB@HOLJGBFI@SUPERSCRIPT_SIZE@ 0000000140248830     freetype253:bdf.obj
 0002:00017848       ??_C@_0O@FOCAKHKA@SUPERSCRIPT_X@ 0000000140248848     freetype253:bdf.obj
 0002:00017858       ??_C@_0O@EHDLJGOB@SUPERSCRIPT_Y@ 0000000140248858     freetype253:bdf.obj
 0002:00017868       ??_C@_0BD@FLNBCMPP@UNDERLINE_POSITION@ 0000000140248868     freetype253:bdf.obj
 0002:00017880       ??_C@_0BE@KDKNDDDB@UNDERLINE_THICKNESS@ 0000000140248880     freetype253:bdf.obj
 0002:00017894       ??_C@_06CIAKHCPD@WEIGHT@   0000000140248894     freetype253:bdf.obj
 0002:000178a0       ??_C@_08IHHFFHAA@X_HEIGHT@ 00000001402488a0     freetype253:bdf.obj
 0002:000178b0       ??_C@_0BG@NJJHMBCE@_MULE_BASELINE_OFFSET@ 00000001402488b0     freetype253:bdf.obj
 0002:000178c8       ??_C@_0BH@EGBLCDE@_MULE_RELATIVE_COMPOSE@ 00000001402488c8     freetype253:bdf.obj
 0002:000178e0       ??_C@_01JOAMLHOP@?9@       00000001402488e0     freetype253:bdf.obj
 0002:000178e4       ??_C@_05HCHEPOAH@CHARS@    00000001402488e4     freetype253:bdf.obj
 0002:000178ec       ??_C@_02EOIDJNGE@?5?$CL@   00000001402488ec     freetype253:bdf.obj
 0002:000178f0       ??_C@_07MLEKHHFJ@ENDFONT@  00000001402488f0     freetype253:bdf.obj
 0002:000178f8       ??_C@_07MDHLCACL@ENDCHAR@  00000001402488f8     freetype253:bdf.obj
 0002:00017900       ??_C@_09BPKMEANO@STARTCHAR@ 0000000140248900     freetype253:bdf.obj
 0002:00017910       ??_C@_08LEFKDKKN@ENCODING@ 0000000140248910     freetype253:bdf.obj
 0002:0001791c       ??_C@_06HDKFFNNH@SWIDTH@   000000014024891c     freetype253:bdf.obj
 0002:00017924       ??_C@_06NBNMPPJH@DWIDTH@   0000000140248924     freetype253:bdf.obj
 0002:0001792c       ??_C@_03OONKDOKH@BBX@      000000014024892c     freetype253:bdf.obj
 0002:00017930       ??_C@_06PGFOEMDN@BITMAP@   0000000140248930     freetype253:bdf.obj
 0002:00017938       ??_C@_0O@JFDPHGFD@ENDPROPERTIES@ 0000000140248938     freetype253:bdf.obj
 0002:00017948       ??_C@_03OACELNE@?$CFhd@    0000000140248948     freetype253:bdf.obj
 0002:00017950       ??_C@_0BG@NDMEGDOA@_XFREE86_GLYPH_RANGES@ 0000000140248950     freetype253:bdf.obj
 0002:00017968       ??_C@_09BHJNBHKM@STARTFONT@ 0000000140248968     freetype253:bdf.obj
 0002:00017978       ??_C@_0BA@HGECMEMA@STARTPROPERTIES@ 0000000140248978     freetype253:bdf.obj
 0002:00017988       ??_C@_0BA@PIDAKDPC@FONTBOUNDINGBOX@ 0000000140248988     freetype253:bdf.obj
 0002:00017998       ??_C@_04EMFHLKGI@SIZE@     0000000140248998     freetype253:bdf.obj
 0002:000179a0       ??_C@_03DOBGHNMK@BDF@      00000001402489a0     freetype253:bdf.obj
 0002:000179b0       __xmm@00000008000000000000000100000001 00000001402489b0     freetype253:bdf.obj
 0002:00018d60       ??_C@_0CI@CGMOPDPD@oversubscribed?5dynamic?5bit?5leng@ 0000000140249d60     freetype253:ftgzip.obj
 0002:00018d88       ??_C@_0CE@LOHAHEGK@incomplete?5dynamic?5bit?5lengths?5@ 0000000140249d88     freetype253:ftgzip.obj
 0002:00018db0       ??_C@_0CD@GJIDGCKE@oversubscribed?5literal?1length?5t@ 0000000140249db0     freetype253:ftgzip.obj
 0002:00018dd8       ??_C@_0BP@NEEEJJNA@incomplete?5literal?1length?5tree@ 0000000140249dd8     freetype253:ftgzip.obj
 0002:00018df8       ??_C@_0BN@KBLCDIAI@oversubscribed?5distance?5tree@ 0000000140249df8     freetype253:ftgzip.obj
 0002:00018e18       ??_C@_0BJ@CBCPDPJF@incomplete?5distance?5tree@ 0000000140249e18     freetype253:ftgzip.obj
 0002:00018e38       ??_C@_0CB@KPKKKLFO@empty?5distance?5tree?5with?5length@ 0000000140249e38     freetype253:ftgzip.obj
 0002:00018e60       ??_C@_0BM@FFFLPBBC@invalid?5literal?1length?5code@ 0000000140249e60     freetype253:ftgzip.obj
 0002:00018e80       ??_C@_0BG@LBKINIKP@invalid?5distance?5code@ 0000000140249e80     freetype253:ftgzip.obj
 0002:00018e98       ??_C@_0BD@PJCBIDD@invalid?5block?5type@ 0000000140249e98     freetype253:ftgzip.obj
 0002:00018eb0       ??_C@_0BN@LGAADGOK@invalid?5stored?5block?5lengths@ 0000000140249eb0     freetype253:ftgzip.obj
 0002:00018ed0       ??_C@_0CE@GMIGFPBB@too?5many?5length?5or?5distance?5sym@ 0000000140249ed0     freetype253:ftgzip.obj
 0002:00018ef8       ??_C@_0BK@BMMPFBBH@invalid?5bit?5length?5repeat@ 0000000140249ef8     freetype253:ftgzip.obj
 0002:00018f14       ??_C@_05DOIEBMOI@1?41?44@  0000000140249f14     freetype253:ftgzip.obj
 0002:00018f20       ??_C@_0BL@IHKGDAEE@unknown?5compression?5method@ 0000000140249f20     freetype253:ftgzip.obj
 0002:00018f40       ??_C@_0BE@EMOGCLGO@invalid?5window?5size@ 0000000140249f40     freetype253:ftgzip.obj
 0002:00018f58       ??_C@_0BH@LIBMMIGA@incorrect?5header?5check@ 0000000140249f58     freetype253:ftgzip.obj
 0002:00018f70       ??_C@_0BA@MOKMMFOD@need?5dictionary@ 0000000140249f70     freetype253:ftgzip.obj
 0002:00018f80       ??_C@_0BF@MEIGEHBE@incorrect?5data?5check@ 0000000140249f80     freetype253:ftgzip.obj
 0002:00019100       __sz_OpenAL32_dll          000000014024a100     openal32:OpenAL32.dll
 0002:00019118       DETOUR_EXE_RESTORE_GUID    000000014024a118     detours:modules.obj
 0002:00019200       __xmm@3ff00000000000003ff0000000000000 000000014024a200     libvorbisfile_static:vorbisfile.obj
 0002:00019210       ??_C@_1BK@DBDEIDLH@?$AAK?$AAE?$AAR?$AAN?$AAE?$AAL?$AA3?$AA2?$AA?4?$AAD?$AAL?$AAL@ 000000014024a210     Delayimp:delayhlp.obj
 0002:00019230       ??_C@_0BI@OMNLIJDB@AcquireSRWLockExclusive@ 000000014024a230     Delayimp:delayhlp.obj
 0002:00019248       ??_C@_0BI@HMIEPCNJ@ReleaseSRWLockExclusive@ 000000014024a248     Delayimp:delayhlp.obj
 0002:00019260       __pfnDliNotifyHook2        000000014024a260     Delayimp:delayhk2.obj
 0002:00019268       __pfnDliFailureHook2       000000014024a268     Delayimp:delayhk1.obj
 0002:00019278       ??_7exception@std@@6B@     000000014024a278     libcpmt:cout.obj
 0002:00019290       ??_7bad_alloc@std@@6B@     000000014024a290     libcpmt:cout.obj
 0002:000192a8       ??_7bad_array_new_length@std@@6B@ 000000014024a2a8     libcpmt:cout.obj
 0002:000192c0       ??_7runtime_error@std@@6B@ 000000014024a2c0     libcpmt:cout.obj
 0002:000192d8       ??_7_System_error@std@@6B@ 000000014024a2d8     libcpmt:cout.obj
 0002:000192f0       ??_7system_error@std@@6B@  000000014024a2f0     libcpmt:cout.obj
 0002:00019308       ??_7_Iostream_error_category2@std@@6B@ 000000014024a308     libcpmt:cout.obj
 0002:00019340       ??_7bad_cast@std@@6B@      000000014024a340     libcpmt:cout.obj
 0002:00019358       ??_7_Facet_base@std@@6B@   000000014024a358     libcpmt:cout.obj
 0002:00019378       ??_7?$ctype@D@std@@6B@     000000014024a378     libcpmt:cout.obj
 0002:000193d8       ??_7failure@ios_base@std@@6B@ 000000014024a3d8     libcpmt:cout.obj
 0002:000193f0       ??_7ios_base@std@@6B@      000000014024a3f0     libcpmt:cout.obj
 0002:00019400       ??_7?$basic_ios@DU?$char_traits@D@std@@@std@@6B@ 000000014024a400     libcpmt:cout.obj
 0002:00019410       ??_7?$basic_ostream@DU?$char_traits@D@std@@@std@@6B@ 000000014024a410     libcpmt:cout.obj
 0002:00019420       ??_7?$basic_streambuf@DU?$char_traits@D@std@@@std@@6B@ 000000014024a420     libcpmt:cout.obj
 0002:000194a0       ??_7?$basic_filebuf@DU?$char_traits@D@std@@@std@@6B@ 000000014024a4a0     libcpmt:cout.obj
 0002:00019520       ??_7?$codecvt@DDU_Mbstatet@@@std@@6B@ 000000014024a520     libcpmt:cout.obj
 0002:00019570       ??_C@_0P@GHFPNOJB@bad?5allocation@ 000000014024a570     libcpmt:xthrow.obj
 0002:00019588       ??_7logic_error@std@@6B@   000000014024a588     libcpmt:xthrow.obj
 0002:000195a0       ??_7length_error@std@@6B@  000000014024a5a0     libcpmt:xthrow.obj
 0002:000195b8       ??_7out_of_range@std@@6B@  000000014024a5b8     libcpmt:xthrow.obj
 0002:00019d60       ??_C@_07IPNMCAN@success@   000000014024ad60     libcpmt:syserror.obj
 0002:00019d68       ??_C@_0BN@LKKBCCDB@address?5family?5not?5supported@ 000000014024ad68     libcpmt:syserror.obj
 0002:00019d88       ??_C@_0P@LDMLAFHI@address?5in?5use@ 000000014024ad88     libcpmt:syserror.obj
 0002:00019d98       ??_C@_0BG@DHPCNBJB@address?5not?5available@ 000000014024ad98     libcpmt:syserror.obj
 0002:00019db0       ??_C@_0BC@DFIBIBIL@already?5connected@ 000000014024adb0     libcpmt:syserror.obj
 0002:00019dc8       ??_C@_0BH@CAKOHOMI@argument?5list?5too?5long@ 000000014024adc8     libcpmt:syserror.obj
 0002:00019de0       ??_C@_0BH@CGIMPKIM@argument?5out?5of?5domain@ 000000014024ade0     libcpmt:syserror.obj
 0002:00019df8       ??_C@_0M@KGHGGJGL@bad?5address@ 000000014024adf8     libcpmt:syserror.obj
 0002:00019e08       ??_C@_0BE@MPJPGCEO@bad?5file?5descriptor@ 000000014024ae08     libcpmt:syserror.obj
 0002:00019e20       ??_C@_0M@PMMIEFCP@bad?5message@ 000000014024ae20     libcpmt:syserror.obj
 0002:00019e30       ??_C@_0M@KPHOFDBE@broken?5pipe@ 000000014024ae30     libcpmt:syserror.obj
 0002:00019e40       ??_C@_0BD@MGNDDEGM@connection?5aborted@ 000000014024ae40     libcpmt:syserror.obj
 0002:00019e58       ??_C@_0BP@KAIHPOGN@connection?5already?5in?5progress@ 000000014024ae58     libcpmt:syserror.obj
 0002:00019e78       ??_C@_0BD@PJLIIJEL@connection?5refused@ 000000014024ae78     libcpmt:syserror.obj
 0002:00019e90       ??_C@_0BB@IECNJNOI@connection?5reset@ 000000014024ae90     libcpmt:syserror.obj
 0002:00019ea8       ??_C@_0BC@PPHBOELF@cross?5device?5link@ 000000014024aea8     libcpmt:syserror.obj
 0002:00019ec0       ??_C@_0BN@KDMIFEIP@destination?5address?5required@ 000000014024aec0     libcpmt:syserror.obj
 0002:00019ee0       ??_C@_0BI@NGCEHDD@device?5or?5resource?5busy@ 000000014024aee0     libcpmt:syserror.obj
 0002:00019ef8       ??_C@_0BE@JIDOCPHM@directory?5not?5empty@ 000000014024aef8     libcpmt:syserror.obj
 0002:00019f10       ??_C@_0BI@BNCLIGPB@executable?5format?5error@ 000000014024af10     libcpmt:syserror.obj
 0002:00019f28       ??_C@_0M@MIDIAGJP@file?5exists@ 000000014024af28     libcpmt:syserror.obj
 0002:00019f38       ??_C@_0P@DNAJLBJK@file?5too?5large@ 000000014024af38     libcpmt:syserror.obj
 0002:00019f48       ??_C@_0BC@EJHOMAAK@filename?5too?5long@ 000000014024af48     libcpmt:syserror.obj
 0002:00019f60       ??_C@_0BH@KEFGLDAF@function?5not?5supported@ 000000014024af60     libcpmt:syserror.obj
 0002:00019f78       ??_C@_0BB@DHFDFGDM@host?5unreachable@ 000000014024af78     libcpmt:syserror.obj
 0002:00019f90       ??_C@_0BD@JPHBMONG@identifier?5removed@ 000000014024af90     libcpmt:syserror.obj
 0002:00019fa8       ??_C@_0BG@CDNPAGJK@illegal?5byte?5sequence@ 000000014024afa8     libcpmt:syserror.obj
 0002:00019fc0       ??_C@_0CD@BNPLBMNA@inappropriate?5io?5control?5operat@ 000000014024afc0     libcpmt:syserror.obj
 0002:00019fe8       ??_C@_0M@EGEKIIMP@interrupted@ 000000014024afe8     libcpmt:syserror.obj
 0002:00019ff8       ??_C@_0BB@FCMFBGOM@invalid?5argument@ 000000014024aff8     libcpmt:syserror.obj
 0002:0001a010       ??_C@_0N@OHAFKDEK@invalid?5seek@ 000000014024b010     libcpmt:syserror.obj
 0002:0001a020       ??_C@_08GLNPIFBN@io?5error@ 000000014024b020     libcpmt:syserror.obj
 0002:0001a030       ??_C@_0P@FLLDBIDK@is?5a?5directory@ 000000014024b030     libcpmt:syserror.obj
 0002:0001a040       ??_C@_0N@IFLPBIOP@message?5size@ 000000014024b040     libcpmt:syserror.obj
 0002:0001a050       ??_C@_0N@KIIEAAIO@network?5down@ 000000014024b050     libcpmt:syserror.obj
 0002:0001a060       ??_C@_0O@FNPDBHEE@network?5reset@ 000000014024b060     libcpmt:syserror.obj
 0002:0001a070       ??_C@_0BE@IFNCKGE@network?5unreachable@ 000000014024b070     libcpmt:syserror.obj
 0002:0001a088       ??_C@_0BA@PFFCAOFK@no?5buffer?5space@ 000000014024b088     libcpmt:syserror.obj
 0002:0001a098       ??_C@_0BB@IEPBLJHK@no?5child?5process@ 000000014024b098     libcpmt:syserror.obj
 0002:0001a0b0       ??_C@_07PLECNNKG@no?5link@ 000000014024b0b0     libcpmt:syserror.obj
 0002:0001a0b8       ??_C@_0BC@NJECKMKE@no?5lock?5available@ 000000014024b0b8     libcpmt:syserror.obj
 0002:0001a0d0       ??_C@_0BF@PBGGPKKE@no?5message?5available@ 000000014024b0d0     libcpmt:syserror.obj
 0002:0001a0e8       ??_C@_0L@EDOLMPAK@no?5message@ 000000014024b0e8     libcpmt:syserror.obj
 0002:0001a0f8       ??_C@_0BD@EAMBFIDF@no?5protocol?5option@ 000000014024b0f8     libcpmt:syserror.obj
 0002:0001a110       ??_C@_0BD@IJDJKDEA@no?5space?5on?5device@ 000000014024b110     libcpmt:syserror.obj
 0002:0001a128       ??_C@_0BE@MKFDAFMP@no?5stream?5resources@ 000000014024b128     libcpmt:syserror.obj
 0002:0001a140       ??_C@_0BK@IMCPHCBI@no?5such?5device?5or?5address@ 000000014024b140     libcpmt:syserror.obj
 0002:0001a160       ??_C@_0P@FDINDDOK@no?5such?5device@ 000000014024b160     libcpmt:syserror.obj
 0002:0001a170       ??_C@_0BK@NDOCBPGE@no?5such?5file?5or?5directory@ 000000014024b170     libcpmt:syserror.obj
 0002:0001a190       ??_C@_0BA@ENLPPKBN@no?5such?5process@ 000000014024b190     libcpmt:syserror.obj
 0002:0001a1a0       ??_C@_0BA@DOCPFFJG@not?5a?5directory@ 000000014024b1a0     libcpmt:syserror.obj
 0002:0001a1b0       ??_C@_0N@POEIPGGF@not?5a?5socket@ 000000014024b1b0     libcpmt:syserror.obj
 0002:0001a1c0       ??_C@_0N@LGAPMMPI@not?5a?5stream@ 000000014024b1c0     libcpmt:syserror.obj
 0002:0001a1d0       ??_C@_0O@GLMIBBEG@not?5connected@ 000000014024b1d0     libcpmt:syserror.obj
 0002:0001a1e0       ??_C@_0BC@ENOOLCNF@not?5enough?5memory@ 000000014024b1e0     libcpmt:syserror.obj
 0002:0001a1f8       ??_C@_0O@NHEDABJP@not?5supported@ 000000014024b1f8     libcpmt:syserror.obj
 0002:0001a208       ??_C@_0BD@MOLBPMEA@operation?5canceled@ 000000014024b208     libcpmt:syserror.obj
 0002:0001a220       ??_C@_0BG@KDKHOPCO@operation?5in?5progress@ 000000014024b220     libcpmt:syserror.obj
 0002:0001a238       ??_C@_0BI@OHIEJAAB@operation?5not?5permitted@ 000000014024b238     libcpmt:syserror.obj
 0002:0001a250       ??_C@_0BI@LNEGIFLN@operation?5not?5supported@ 000000014024b250     libcpmt:syserror.obj
 0002:0001a268       ??_C@_0BG@OEMDKMEE@operation?5would?5block@ 000000014024b268     libcpmt:syserror.obj
 0002:0001a280       ??_C@_0L@BLPOFLNJ@owner?5dead@ 000000014024b280     libcpmt:syserror.obj
 0002:0001a290       ??_C@_0BC@CIJDGCDI@permission?5denied@ 000000014024b290     libcpmt:syserror.obj
 0002:0001a2a8       ??_C@_0P@FNPOCJBE@protocol?5error@ 000000014024b2a8     libcpmt:syserror.obj
 0002:0001a2b8       ??_C@_0BH@JPPPLHJB@protocol?5not?5supported@ 000000014024b2b8     libcpmt:syserror.obj
 0002:0001a2d0       ??_C@_0BG@EICBIHDP@read?5only?5file?5system@ 000000014024b2d0     libcpmt:syserror.obj
 0002:0001a2e8       ??_C@_0BO@BJBOMOEJ@resource?5deadlock?5would?5occur@ 000000014024b2e8     libcpmt:syserror.obj
 0002:0001a308       ??_C@_0BP@LKNGHENJ@resource?5unavailable?5try?5again@ 000000014024b308     libcpmt:syserror.obj
 0002:0001a328       ??_C@_0BE@GOIPJJHG@result?5out?5of?5range@ 000000014024b328     libcpmt:syserror.obj
 0002:0001a340       ??_C@_0BG@MPLKFPAE@state?5not?5recoverable@ 000000014024b340     libcpmt:syserror.obj
 0002:0001a358       ??_C@_0P@DIIFGFCG@stream?5timeout@ 000000014024b358     libcpmt:syserror.obj
 0002:0001a368       ??_C@_0P@IPFDMIFL@text?5file?5busy@ 000000014024b368     libcpmt:syserror.obj
 0002:0001a378       ??_C@_09KJPPMAOI@timed?5out@ 000000014024b378     libcpmt:syserror.obj
 0002:0001a388       ??_C@_0BO@HACHBEKI@too?5many?5files?5open?5in?5system@ 000000014024b388     libcpmt:syserror.obj
 0002:0001a3a8       ??_C@_0BE@GHAFMPAH@too?5many?5files?5open@ 000000014024b3a8     libcpmt:syserror.obj
 0002:0001a3c0       ??_C@_0P@HCOMKFCC@too?5many?5links@ 000000014024b3c0     libcpmt:syserror.obj
 0002:0001a3d0       ??_C@_0BO@EFGOJEF@too?5many?5symbolic?5link?5levels@ 000000014024b3d0     libcpmt:syserror.obj
 0002:0001a3f0       ??_C@_0BA@KGKGOOJA@value?5too?5large@ 000000014024b3f0     libcpmt:syserror.obj
 0002:0001a400       ??_C@_0BE@MIEJDDNH@wrong?5protocol?5type@ 000000014024b400     libcpmt:syserror.obj
 0002:0001a418       ??_C@_0O@BFJCFAAK@unknown?5error@ 000000014024b418     libcpmt:syserror.obj
 0002:0001a430       ??_7_Locimp@locale@std@@6B@ 000000014024b430     libcpmt:locale0.obj
 0002:0001a448       ??_C@_01NBENCBCI@?$CK@     000000014024b448     libcpmt:locale0.obj
 0002:0001a450       ?_BADOFF@std@@3_JB         000000014024b450     libcpmt:ios.obj
 0002:0001a568       ??_7?$num_put@DV?$ostreambuf_iterator@DU?$char_traits@D@std@@@std@@@std@@6B@ 000000014024b568     libcpmt:locale.obj
 0002:0001a5c8       ??_7?$numpunct@D@std@@6B@  000000014024b5c8     libcpmt:locale.obj
 0002:0001a6b0       ??_7type_info@@6B@         000000014024b6b0     MSVCRT:std_type_info_static.obj
 0002:0001a6d0       _load_config_used          000000014024b6d0     MSVCRT:loadcfg.obj
 0002:0001a810       ??_C@_0BJ@HFNMHALN@Out?5of?5memory?5?9?5aborting@ 000000014024b810     SDL2Main:SDL_windows_main.obj
 0002:0001a830       ??_C@_0M@HFFOIJBL@Fatal?5Error@ 000000014024b830     SDL2Main:SDL_windows_main.obj
 0002:0001a83c       _Asan_string_should_annotate 000000014024b83c     libcpmt:asan_noop.obj
 0002:0001a83c       _Asan_string_should_annotate_default 000000014024b83c     libcpmt:asan_noop.obj
 0002:0001a83d       _Asan_vector_should_annotate_default 000000014024b83d     libcpmt:asan_noop.obj
 0002:0001a840       ??_C@_1MG@HKMAIALN@?$AAD?$AA?3?$AA?2?$AAs?$AAo?$AAu?$AAr?$AAc?$AAe?$AAs?$AAd?$AAk?$AA?2?$AAp?$AAa@ 000000014024b840     bmp.obj
 0002:0001a908       ??_C@_04HDOCAJNK@?$CFs?$CFs@ 000000014024b908     bmp.obj
 0002:0001a910       ??_C@_1BK@MJPHNBOB@?$AA?$CG?$AAl?$AAh?$AAs?$AA?5?$AA?$CB?$AA?$DN?$AA?5?$AA?$CG?$AAr?$AAh?$AAs@ 000000014024b910     bmp.obj
 0002:0001a930       ??_C@_1ME@KMLLDDII@?$AAD?$AA?3?$AA?2?$AAs?$AAo?$AAu?$AAr?$AAc?$AAe?$AAs?$AAd?$AAk?$AA?2?$AAp?$AAa@ 000000014024b930     bmp.obj
 0002:0001a9f8       ??_C@_1CA@JPJGFIBD@?$AAp?$AAs?$AAr?$AAc?$AA?5?$AA?$CB?$AA?$DN?$AA?5?$AAn?$AAu?$AAl?$AAl?$AAp?$AAt?$AAr@ 000000014024b9f8     bmp.obj
 0002:0001aa18       ??_C@_1CC@NJLGPCEP@?$AAp?$AAd?$AAe?$AAs?$AAt?$AA?5?$AA?$CB?$AA?$DN?$AA?5?$AAn?$AAu?$AAl?$AAl?$AAp?$AAt@ 000000014024ba18     bmp.obj
 0002:0001aa40       ??_C@_1CC@DIBAPLEO@?$AAp?$AAs?$AAt?$AAr?$AA1?$AA?5?$AA?$CB?$AA?$DN?$AA?5?$AAn?$AAu?$AAl?$AAl?$AAp?$AAt@ 000000014024ba40     bmp.obj
 0002:0001aa68       ??_C@_1CC@MKEHBGLG@?$AAp?$AAs?$AAt?$AAr?$AA2?$AA?5?$AA?$CB?$AA?$DN?$AA?5?$AAn?$AAu?$AAl?$AAl?$AAp?$AAt@ 000000014024ba68     bmp.obj
 0002:0001aa90       ??_C@_1CA@NHGFKLLC@?$AAp?$AAs?$AAt?$AAr?$AA?5?$AA?$CB?$AA?$DN?$AA?5?$AAn?$AAu?$AAl?$AAl?$AAp?$AAt?$AAr@ 000000014024ba90     bmp.obj
 0002:0001aab0       ??_C@_1CG@CMMINFPP@?$AAp?$AAs?$AAu?$AAb?$AAs?$AAt?$AAr?$AA?5?$AA?$CB?$AA?$DN?$AA?5?$AAn?$AAu?$AAl?$AAl@ 000000014024bab0     bmp.obj
 0002:0001b4d0       ?BASICDRAW_CACHE_SIZE@CBasicDraw@@2IB 000000014024c4d0     r_basicdraw.obj
 0002:0001b7f0       ?DEFAULT_FOLDER@CSentencesFile@@2QBDB 000000014024c7f0     sentencesfile.obj
 0002:0001b9c0       ?DEFAULT_MATERIAL_TYPE@CStepSound@@2QBDB 000000014024c9c0     stepsound.obj
 0002:0001b9c8       ?CONCRETE_MATERIAL_TYPE@CStepSound@@2QBDB 000000014024c9c8     stepsound.obj
 0002:0001b9d8       ?DEFAULT_FOOTSTEP_TYPE@CStepSound@@2QBDB 000000014024c9d8     stepsound.obj
 0002:0001c91c       ?ANISOTROPY_OFF_VALUE@CTextureManager@@2IB 000000014024d91c     texturemanager.obj
 0002:0001fcb0       ?g_pEAXMultipliers@CSoundEngine@@0QBMB 0000000140250cb0     cl_snd.obj
 0002:0001fd38       ?SOUNDENGINE_CONFIG_GRP_NAME@CSoundEngine@@2QBDB 0000000140250d38     cl_snd.obj
 0002:0001fd50       ?g_pEAXEffects@CSoundEngine@@0QBUEFXEAXREVERBPROPERTIES@@B 0000000140250d50     cl_snd.obj
 0002:000209d8       ?SOUNDENGINE_HRTF_SETTING_NAME@CSoundEngine@@2QBDB 00000001402519d8     cl_snd.obj
 0002:00021970       ?TEXTBOX_TEXTSCHEMA_NAME@CConsole@@2QBDB 0000000140252970     console.obj
 0002:00021980       ?TOGGLECONSOLE_CMD_NAME@CConsole@@2QBDB 0000000140252980     console.obj
 0002:00023584       ?MSG_BUFFER_ALLOC_SIZE@CNetworking@@2IB 0000000140254584     networking.obj
 0002:00023588       ?MSG_DATA_BUFFER_ALLOC_SIZE@CNetworking@@2IB 0000000140254588     networking.obj
 0002:000247e0       ?g_cubemapResolutions@CCubemapManager@@0PAY01IA 00000001402557e0     r_cubemaps.obj
 0002:00024a48       ?DECAL_TEXTURE_PATH@CDecalManager@@2QBDB 0000000140255a48     r_decals.obj
 0002:00025950       ?FLARE_HALO_DIST_SCALES@CLensFlareRenderer@@2QBMB 0000000140256950     r_lensflare.obj
 0002:00025970       ?FLARE_HALO_ALPHAS@CLensFlareRenderer@@2QBMB 0000000140256970     r_lensflare.obj
